ARM GAS  C:\Users\Administrator\AppData\Local\Temp\ccijwwP1.s 			page 1


   1              		.cpu cortex-m0plus
   2              		.fpu softvfp
   3              		.eabi_attribute 20, 1
   4              		.eabi_attribute 21, 1
   5              		.eabi_attribute 23, 3
   6              		.eabi_attribute 24, 1
   7              		.eabi_attribute 25, 1
   8              		.eabi_attribute 26, 1
   9              		.eabi_attribute 30, 1
  10              		.eabi_attribute 34, 0
  11              		.eabi_attribute 18, 4
  12              		.code	16
  13              		.file	"EZI2C_EZI2C_INT.c"
  14              		.text
  15              	.Ltext0:
  16              		.cfi_sections	.debug_frame
  17              		.section	.text.EZI2C_EZI2C_STRETCH_ISR,"ax",%progbits
  18              		.align	2
  19              		.global	EZI2C_EZI2C_STRETCH_ISR
  20              		.code	16
  21              		.thumb_func
  22              		.type	EZI2C_EZI2C_STRETCH_ISR, %function
  23              	EZI2C_EZI2C_STRETCH_ISR:
  24              	.LFB1:
  25              		.file 1 "Generated_Source\\PSoC4\\EZI2C_EZI2C_INT.c"
   1:Generated_Source\PSoC4/EZI2C_EZI2C_INT.c **** /***************************************************************************//**
   2:Generated_Source\PSoC4/EZI2C_EZI2C_INT.c **** * \file EZI2C_EZI2C_INT.c
   3:Generated_Source\PSoC4/EZI2C_EZI2C_INT.c **** * \version 3.20
   4:Generated_Source\PSoC4/EZI2C_EZI2C_INT.c **** *
   5:Generated_Source\PSoC4/EZI2C_EZI2C_INT.c **** * \brief
   6:Generated_Source\PSoC4/EZI2C_EZI2C_INT.c **** *  This file provides the source code to the Interrupt Service Routine for
   7:Generated_Source\PSoC4/EZI2C_EZI2C_INT.c **** *  the SCB Component in EZI2C mode.
   8:Generated_Source\PSoC4/EZI2C_EZI2C_INT.c **** *
   9:Generated_Source\PSoC4/EZI2C_EZI2C_INT.c **** * Note:
  10:Generated_Source\PSoC4/EZI2C_EZI2C_INT.c **** *
  11:Generated_Source\PSoC4/EZI2C_EZI2C_INT.c **** ********************************************************************************
  12:Generated_Source\PSoC4/EZI2C_EZI2C_INT.c **** * \copyright
  13:Generated_Source\PSoC4/EZI2C_EZI2C_INT.c **** * Copyright 2013-2016, Cypress Semiconductor Corporation.  All rights reserved.
  14:Generated_Source\PSoC4/EZI2C_EZI2C_INT.c **** * You may use this file only in accordance with the license, terms, conditions,
  15:Generated_Source\PSoC4/EZI2C_EZI2C_INT.c **** * disclaimers, and limitations in the end user license agreement accompanying
  16:Generated_Source\PSoC4/EZI2C_EZI2C_INT.c **** * the software package with which this file was provided.
  17:Generated_Source\PSoC4/EZI2C_EZI2C_INT.c **** *******************************************************************************/
  18:Generated_Source\PSoC4/EZI2C_EZI2C_INT.c **** 
  19:Generated_Source\PSoC4/EZI2C_EZI2C_INT.c **** #include "EZI2C_PVT.h"
  20:Generated_Source\PSoC4/EZI2C_EZI2C_INT.c **** #include "EZI2C_EZI2C_PVT.h"
  21:Generated_Source\PSoC4/EZI2C_EZI2C_INT.c **** #include "cyapicallbacks.h"
  22:Generated_Source\PSoC4/EZI2C_EZI2C_INT.c **** 
  23:Generated_Source\PSoC4/EZI2C_EZI2C_INT.c **** #if(EZI2C_EZI2C_SCL_STRETCH_ENABLE_CONST)
  24:Generated_Source\PSoC4/EZI2C_EZI2C_INT.c ****     /*******************************************************************************
  25:Generated_Source\PSoC4/EZI2C_EZI2C_INT.c ****     * Function Name: EZI2C_EZI2C_STRETCH_ISR
  26:Generated_Source\PSoC4/EZI2C_EZI2C_INT.c ****     ****************************************************************************//**
  27:Generated_Source\PSoC4/EZI2C_EZI2C_INT.c ****     *
  28:Generated_Source\PSoC4/EZI2C_EZI2C_INT.c ****     *  Handles the Interrupt Service Routine for the SCB EZI2C mode.
  29:Generated_Source\PSoC4/EZI2C_EZI2C_INT.c ****     *  The clock stretching is used during operation.
  30:Generated_Source\PSoC4/EZI2C_EZI2C_INT.c ****     *
  31:Generated_Source\PSoC4/EZI2C_EZI2C_INT.c ****     *******************************************************************************/
  32:Generated_Source\PSoC4/EZI2C_EZI2C_INT.c ****     CY_ISR_PROTO(EZI2C_EZI2C_STRETCH_ISR)
ARM GAS  C:\Users\Administrator\AppData\Local\Temp\ccijwwP1.s 			page 2


  33:Generated_Source\PSoC4/EZI2C_EZI2C_INT.c ****     {
  26              		.loc 1 33 0
  27              		.cfi_startproc
  28 0000 70B5     		push	{r4, r5, r6, lr}
  29              		.cfi_def_cfa_offset 16
  30              		.cfi_offset 4, -16
  31              		.cfi_offset 5, -12
  32              		.cfi_offset 6, -8
  33              		.cfi_offset 14, -4
  34:Generated_Source\PSoC4/EZI2C_EZI2C_INT.c ****         static uint16 locBufSize;
  35:Generated_Source\PSoC4/EZI2C_EZI2C_INT.c ****         uint32 locIndex;
  36:Generated_Source\PSoC4/EZI2C_EZI2C_INT.c ****         uint32 locStatus;
  37:Generated_Source\PSoC4/EZI2C_EZI2C_INT.c **** 
  38:Generated_Source\PSoC4/EZI2C_EZI2C_INT.c ****         uint32 endTransfer;
  39:Generated_Source\PSoC4/EZI2C_EZI2C_INT.c ****         uint32 fifoIndex;
  40:Generated_Source\PSoC4/EZI2C_EZI2C_INT.c ****         uint32 locByte;
  41:Generated_Source\PSoC4/EZI2C_EZI2C_INT.c **** 
  42:Generated_Source\PSoC4/EZI2C_EZI2C_INT.c ****         uint32 locIntrCause;
  43:Generated_Source\PSoC4/EZI2C_EZI2C_INT.c ****         uint32 locIntrSlave;
  44:Generated_Source\PSoC4/EZI2C_EZI2C_INT.c **** 
  45:Generated_Source\PSoC4/EZI2C_EZI2C_INT.c ****     #ifdef EZI2C_EZI2C_STRETCH_ISR_ENTRY_CALLBACK
  46:Generated_Source\PSoC4/EZI2C_EZI2C_INT.c ****         EZI2C_EZI2C_STRETCH_ISR_EntryCallback();
  47:Generated_Source\PSoC4/EZI2C_EZI2C_INT.c ****     #endif /* EZI2C_EZI2C_STRETCH_ISR_ENTRY_CALLBACK */
  48:Generated_Source\PSoC4/EZI2C_EZI2C_INT.c **** 
  49:Generated_Source\PSoC4/EZI2C_EZI2C_INT.c ****     #if(EZI2C_SECONDARY_ADDRESS_ENABLE_CONST)
  50:Generated_Source\PSoC4/EZI2C_EZI2C_INT.c ****         /* Variable intended to be used with either buffer */
  51:Generated_Source\PSoC4/EZI2C_EZI2C_INT.c ****         static volatile uint8 * EZI2C_dataBuffer; /* Pointer to data buffer              */
  52:Generated_Source\PSoC4/EZI2C_EZI2C_INT.c ****         static uint16 EZI2C_bufSizeBuf;           /* Size of buffer in bytes             */
  53:Generated_Source\PSoC4/EZI2C_EZI2C_INT.c ****         static uint16 EZI2C_protectBuf;           /* Start index of write protected area */
  54:Generated_Source\PSoC4/EZI2C_EZI2C_INT.c **** 
  55:Generated_Source\PSoC4/EZI2C_EZI2C_INT.c ****         static uint8 activeAddress;
  56:Generated_Source\PSoC4/EZI2C_EZI2C_INT.c ****         uint32 ackResponse;
  57:Generated_Source\PSoC4/EZI2C_EZI2C_INT.c **** 
  58:Generated_Source\PSoC4/EZI2C_EZI2C_INT.c ****         ackResponse = EZI2C_EZI2C_ACK_RECEIVED_ADDRESS;
  59:Generated_Source\PSoC4/EZI2C_EZI2C_INT.c ****     #endif /* (EZI2C_SECONDARY_ADDRESS_ENABLE_CONST) */
  60:Generated_Source\PSoC4/EZI2C_EZI2C_INT.c **** 
  61:Generated_Source\PSoC4/EZI2C_EZI2C_INT.c ****     #if !defined (CY_REMOVE_EZI2C_CUSTOM_INTR_HANDLER)
  62:Generated_Source\PSoC4/EZI2C_EZI2C_INT.c ****         if(NULL != EZI2C_customIntrHandler)
  34              		.loc 1 62 0
  35 0002 B24B     		ldr	r3, .L39
  36 0004 1B68     		ldr	r3, [r3]
  37 0006 002B     		cmp	r3, #0
  38 0008 00D0     		beq	.L2
  63:Generated_Source\PSoC4/EZI2C_EZI2C_INT.c ****         {
  64:Generated_Source\PSoC4/EZI2C_EZI2C_INT.c ****             EZI2C_customIntrHandler();
  39              		.loc 1 64 0
  40 000a 9847     		blx	r3
  41              	.LVL0:
  42              	.L2:
  65:Generated_Source\PSoC4/EZI2C_EZI2C_INT.c ****         }
  66:Generated_Source\PSoC4/EZI2C_EZI2C_INT.c ****     #else
  67:Generated_Source\PSoC4/EZI2C_EZI2C_INT.c ****         CY_EZI2C_CUSTOM_INTR_HANDLER();
  68:Generated_Source\PSoC4/EZI2C_EZI2C_INT.c ****     #endif /* !defined (CY_REMOVE_EZI2C_CUSTOM_INTR_HANDLER) */
  69:Generated_Source\PSoC4/EZI2C_EZI2C_INT.c **** 
  70:Generated_Source\PSoC4/EZI2C_EZI2C_INT.c ****         /* Make local copy of global variable */
  71:Generated_Source\PSoC4/EZI2C_EZI2C_INT.c ****         locIndex = EZI2C_EZI2C_GET_INDEX(activeAddress);
  43              		.loc 1 71 0
ARM GAS  C:\Users\Administrator\AppData\Local\Temp\ccijwwP1.s 			page 3


  44 000c B04B     		ldr	r3, .L39+4
  45 000e 1C88     		ldrh	r4, [r3]
  46              	.LVL1:
  72:Generated_Source\PSoC4/EZI2C_EZI2C_INT.c **** 
  73:Generated_Source\PSoC4/EZI2C_EZI2C_INT.c ****         /* Get interrupt sources */
  74:Generated_Source\PSoC4/EZI2C_EZI2C_INT.c ****         locIntrSlave = EZI2C_GetSlaveInterruptSource();
  47              		.loc 1 74 0
  48 0010 B04B     		ldr	r3, .L39+8
  49 0012 1D68     		ldr	r5, [r3]
  50              	.LVL2:
  75:Generated_Source\PSoC4/EZI2C_EZI2C_INT.c ****         locIntrCause = EZI2C_GetInterruptCause();
  51              		.loc 1 75 0
  52 0014 B04B     		ldr	r3, .L39+12
  53 0016 1E68     		ldr	r6, [r3]
  54              	.LVL3:
  76:Generated_Source\PSoC4/EZI2C_EZI2C_INT.c **** 
  77:Generated_Source\PSoC4/EZI2C_EZI2C_INT.c ****         /* INTR_SLAVE.I2C_ARB_LOST and INTR_SLAVE_I2C.BUS_ERROR */
  78:Generated_Source\PSoC4/EZI2C_EZI2C_INT.c ****         /* Handles errors on the bus. There are cases when both bits are set.
  79:Generated_Source\PSoC4/EZI2C_EZI2C_INT.c ****         * The error recovery is common: re-enable the scb IP. The content of the RX FIFO is lost.
  80:Generated_Source\PSoC4/EZI2C_EZI2C_INT.c ****         */
  81:Generated_Source\PSoC4/EZI2C_EZI2C_INT.c ****         if(0u != (locIntrSlave & (EZI2C_INTR_SLAVE_I2C_ARB_LOST |
  55              		.loc 1 81 0
  56 0018 0223     		mov	r3, #2
  57 001a FF33     		add	r3, r3, #255
  58 001c 1D42     		tst	r5, r3
  59 001e 36D0     		beq	.L3
  82:Generated_Source\PSoC4/EZI2C_EZI2C_INT.c ****                                   EZI2C_INTR_SLAVE_I2C_BUS_ERROR)))
  83:Generated_Source\PSoC4/EZI2C_EZI2C_INT.c ****         {
  84:Generated_Source\PSoC4/EZI2C_EZI2C_INT.c ****             EZI2C_CTRL_REG &= (uint32) ~EZI2C_CTRL_ENABLED; /* Disable SCB block */
  60              		.loc 1 84 0
  61 0020 AE4A     		ldr	r2, .L39+16
  62 0022 1368     		ldr	r3, [r2]
  63 0024 5B00     		lsl	r3, r3, #1
  64 0026 5B08     		lsr	r3, r3, #1
  65 0028 1360     		str	r3, [r2]
  85:Generated_Source\PSoC4/EZI2C_EZI2C_INT.c **** 
  86:Generated_Source\PSoC4/EZI2C_EZI2C_INT.c ****         #if(EZI2C_CY_SCBIP_V0)
  87:Generated_Source\PSoC4/EZI2C_EZI2C_INT.c ****             if(0u != ((uint8) EZI2C_EZI2C_STATUS_BUSY & EZI2C_curStatus))
  88:Generated_Source\PSoC4/EZI2C_EZI2C_INT.c ****         #endif /* (EZI2C_CY_SCBIP_V0) */
  89:Generated_Source\PSoC4/EZI2C_EZI2C_INT.c ****             {
  90:Generated_Source\PSoC4/EZI2C_EZI2C_INT.c ****                 EZI2C_curStatus &= (uint8) ~EZI2C_EZI2C_STATUS_BUSY;
  66              		.loc 1 90 0
  67 002a AD4B     		ldr	r3, .L39+20
  68 002c 1A78     		ldrb	r2, [r3]
  69 002e 2021     		mov	r1, #32
  70 0030 8A43     		bic	r2, r1
  71 0032 1A70     		strb	r2, [r3]
  91:Generated_Source\PSoC4/EZI2C_EZI2C_INT.c ****                 EZI2C_curStatus |= (uint8)  EZI2C_EZI2C_STATUS_ERR;
  72              		.loc 1 91 0
  73 0034 1978     		ldrb	r1, [r3]
  74 0036 1022     		mov	r2, #16
  75 0038 0A43     		orr	r2, r1
  76 003a 1A70     		strb	r2, [r3]
  92:Generated_Source\PSoC4/EZI2C_EZI2C_INT.c **** 
  93:Generated_Source\PSoC4/EZI2C_EZI2C_INT.c ****                 /* INTR_TX_EMPTY is enabled in the address phase to receive data */
  94:Generated_Source\PSoC4/EZI2C_EZI2C_INT.c ****                 if(0u == (EZI2C_GetTxInterruptMode() & EZI2C_INTR_TX_EMPTY))
  77              		.loc 1 94 0
ARM GAS  C:\Users\Administrator\AppData\Local\Temp\ccijwwP1.s 			page 4


  78 003c A94B     		ldr	r3, .L39+24
  79 003e 1B68     		ldr	r3, [r3]
  80 0040 DB06     		lsl	r3, r3, #27
  81 0042 0BD4     		bmi	.L4
  95:Generated_Source\PSoC4/EZI2C_EZI2C_INT.c ****                 {
  96:Generated_Source\PSoC4/EZI2C_EZI2C_INT.c ****                     /* Write complete */
  97:Generated_Source\PSoC4/EZI2C_EZI2C_INT.c ****                     if(EZI2C_indexBuf1 != EZI2C_offsetBuf1)
  82              		.loc 1 97 0
  83 0044 A24B     		ldr	r3, .L39+4
  84 0046 1A88     		ldrh	r2, [r3]
  85 0048 A74B     		ldr	r3, .L39+28
  86 004a 1B88     		ldrh	r3, [r3]
  87 004c 9A42     		cmp	r2, r3
  88 004e 0AD0     		beq	.L5
  98:Generated_Source\PSoC4/EZI2C_EZI2C_INT.c ****                     {
  99:Generated_Source\PSoC4/EZI2C_EZI2C_INT.c ****                         EZI2C_curStatus |= (uint8) EZI2C_INTR_SLAVE_I2C_WRITE_STOP;
  89              		.loc 1 99 0
  90 0050 A34A     		ldr	r2, .L39+20
  91 0052 1178     		ldrb	r1, [r2]
  92 0054 0823     		mov	r3, #8
  93 0056 0B43     		orr	r3, r1
  94 0058 1370     		strb	r3, [r2]
  95 005a 04E0     		b	.L5
  96              	.L4:
 100:Generated_Source\PSoC4/EZI2C_EZI2C_INT.c ****                     }
 101:Generated_Source\PSoC4/EZI2C_EZI2C_INT.c ****                 }
 102:Generated_Source\PSoC4/EZI2C_EZI2C_INT.c ****                 else
 103:Generated_Source\PSoC4/EZI2C_EZI2C_INT.c ****                 {
 104:Generated_Source\PSoC4/EZI2C_EZI2C_INT.c ****                     /* Read complete */
 105:Generated_Source\PSoC4/EZI2C_EZI2C_INT.c ****                     EZI2C_curStatus |= (uint8) EZI2C_INTR_SLAVE_I2C_NACK;
  97              		.loc 1 105 0
  98 005c A04A     		ldr	r2, .L39+20
  99 005e 1178     		ldrb	r1, [r2]
 100 0060 0223     		mov	r3, #2
 101 0062 0B43     		orr	r3, r1
 102 0064 1370     		strb	r3, [r2]
 103              	.L5:
 106:Generated_Source\PSoC4/EZI2C_EZI2C_INT.c ****                 }
 107:Generated_Source\PSoC4/EZI2C_EZI2C_INT.c ****             }
 108:Generated_Source\PSoC4/EZI2C_EZI2C_INT.c **** 
 109:Generated_Source\PSoC4/EZI2C_EZI2C_INT.c ****             EZI2C_DISABLE_SLAVE_AUTO_DATA;
 104              		.loc 1 109 0
 105 0066 A14A     		ldr	r2, .L39+32
 106 0068 1168     		ldr	r1, [r2]
 107 006a A14B     		ldr	r3, .L39+36
 108 006c 0B40     		and	r3, r1
 109 006e 1360     		str	r3, [r2]
 110:Generated_Source\PSoC4/EZI2C_EZI2C_INT.c **** 
 111:Generated_Source\PSoC4/EZI2C_EZI2C_INT.c ****             /* Disable TX and RX interrupt sources */
 112:Generated_Source\PSoC4/EZI2C_EZI2C_INT.c ****             EZI2C_SetRxInterruptMode(EZI2C_NO_INTR_SOURCES);
 110              		.loc 1 112 0
 111 0070 0023     		mov	r3, #0
 112 0072 A04A     		ldr	r2, .L39+40
 113 0074 1360     		str	r3, [r2]
 113:Generated_Source\PSoC4/EZI2C_EZI2C_INT.c ****             EZI2C_SetTxInterruptMode(EZI2C_NO_INTR_SOURCES);
 114              		.loc 1 113 0
 115 0076 9B4A     		ldr	r2, .L39+24
ARM GAS  C:\Users\Administrator\AppData\Local\Temp\ccijwwP1.s 			page 5


 116 0078 1360     		str	r3, [r2]
 114:Generated_Source\PSoC4/EZI2C_EZI2C_INT.c **** 
 115:Generated_Source\PSoC4/EZI2C_EZI2C_INT.c ****         #if(EZI2C_CY_SCBIP_V0)
 116:Generated_Source\PSoC4/EZI2C_EZI2C_INT.c ****             /* Clear interrupt sources as they are not automatically cleared after SCB is disabled 
 117:Generated_Source\PSoC4/EZI2C_EZI2C_INT.c ****             EZI2C_ClearRxInterruptSource(EZI2C_INTR_RX_ALL);
 118:Generated_Source\PSoC4/EZI2C_EZI2C_INT.c ****             EZI2C_ClearSlaveInterruptSource(EZI2C_INTR_SLAVE_ALL);
 119:Generated_Source\PSoC4/EZI2C_EZI2C_INT.c ****         #endif /* (EZI2C_CY_SCBIP_V0) */
 120:Generated_Source\PSoC4/EZI2C_EZI2C_INT.c **** 
 121:Generated_Source\PSoC4/EZI2C_EZI2C_INT.c ****             EZI2C_fsmState = EZI2C_EZI2C_FSM_IDLE;
 117              		.loc 1 121 0
 118 007a 0222     		mov	r2, #2
 119 007c 9E4B     		ldr	r3, .L39+44
 120 007e 1A70     		strb	r2, [r3]
 122:Generated_Source\PSoC4/EZI2C_EZI2C_INT.c **** 
 123:Generated_Source\PSoC4/EZI2C_EZI2C_INT.c ****             EZI2C_CTRL_REG |= (uint32) EZI2C_CTRL_ENABLED;  /* Enable SCB block */
 121              		.loc 1 123 0
 122 0080 964A     		ldr	r2, .L39+16
 123 0082 1368     		ldr	r3, [r2]
 124 0084 8021     		mov	r1, #128
 125 0086 0906     		lsl	r1, r1, #24
 126 0088 0B43     		orr	r3, r1
 127 008a 1360     		str	r3, [r2]
 128 008c 1AE1     		b	.L6
 129              	.L3:
 124:Generated_Source\PSoC4/EZI2C_EZI2C_INT.c ****         }
 125:Generated_Source\PSoC4/EZI2C_EZI2C_INT.c ****         else
 126:Generated_Source\PSoC4/EZI2C_EZI2C_INT.c ****         {
 127:Generated_Source\PSoC4/EZI2C_EZI2C_INT.c ****             /* INTR_I2C_EC_WAKE_UP */
 128:Generated_Source\PSoC4/EZI2C_EZI2C_INT.c ****             /* Wakes up device from deep sleep */
 129:Generated_Source\PSoC4/EZI2C_EZI2C_INT.c ****             if(0u != (locIntrCause & EZI2C_INTR_CAUSE_I2C_EC))
 130              		.loc 1 129 0
 131 008e F306     		lsl	r3, r6, #27
 132 0090 02D5     		bpl	.L7
 130:Generated_Source\PSoC4/EZI2C_EZI2C_INT.c ****             {
 131:Generated_Source\PSoC4/EZI2C_EZI2C_INT.c ****                 /* Disables wakeup interrupt source but does not clear it. It is cleared in INTR_SL
 132:Generated_Source\PSoC4/EZI2C_EZI2C_INT.c ****                 EZI2C_SetI2CExtClkInterruptMode(EZI2C_NO_INTR_SOURCES);
 133              		.loc 1 132 0
 134 0092 0022     		mov	r2, #0
 135 0094 994B     		ldr	r3, .L39+48
 136 0096 1A60     		str	r2, [r3]
 137              	.L7:
 133:Generated_Source\PSoC4/EZI2C_EZI2C_INT.c ****             }
 134:Generated_Source\PSoC4/EZI2C_EZI2C_INT.c **** 
 135:Generated_Source\PSoC4/EZI2C_EZI2C_INT.c ****             if(0u != (locIntrCause & (EZI2C_INTR_CAUSE_RX | EZI2C_INTR_CAUSE_SLAVE)))
 138              		.loc 1 135 0
 139 0098 0A23     		mov	r3, #10
 140 009a 3342     		tst	r3, r6
 141 009c 00D1     		bne	.LCB117
 142 009e A3E0     		b	.L8	@long jump
 143              	.LCB117:
 136:Generated_Source\PSoC4/EZI2C_EZI2C_INT.c ****             {
 137:Generated_Source\PSoC4/EZI2C_EZI2C_INT.c ****                 /* INTR_RX.NOT_EMPTY */
 138:Generated_Source\PSoC4/EZI2C_EZI2C_INT.c ****                 /* Receives data byte-by-byte. Does not use RX FIFO capabilities */
 139:Generated_Source\PSoC4/EZI2C_EZI2C_INT.c ****                 if (0u != (EZI2C_GetRxInterruptSourceMasked() & EZI2C_INTR_RX_NOT_EMPTY))
 144              		.loc 1 139 0
 145 00a0 974B     		ldr	r3, .L39+52
 146 00a2 1B68     		ldr	r3, [r3]
ARM GAS  C:\Users\Administrator\AppData\Local\Temp\ccijwwP1.s 			page 6


 147 00a4 5B07     		lsl	r3, r3, #29
 148 00a6 69D5     		bpl	.L9
 140:Generated_Source\PSoC4/EZI2C_EZI2C_INT.c ****                 {
 141:Generated_Source\PSoC4/EZI2C_EZI2C_INT.c ****                 #if(EZI2C_SECONDARY_ADDRESS_ENABLE_CONST)
 142:Generated_Source\PSoC4/EZI2C_EZI2C_INT.c ****                     /* If I2C_STOP service is delayed to I2C_ADDR_MATCH the address byte is in the 
 143:Generated_Source\PSoC4/EZI2C_EZI2C_INT.c ****                     * RX_NOT_EMPTY is enabled. The address byte has to stay into RX FIFO therefore
 144:Generated_Source\PSoC4/EZI2C_EZI2C_INT.c ****                     * RX.NOT_EMPTY service has to be skipped. The address byte has to be read by I2
 145:Generated_Source\PSoC4/EZI2C_EZI2C_INT.c ****                     */
 146:Generated_Source\PSoC4/EZI2C_EZI2C_INT.c ****                     if (0u == (locIntrCause & EZI2C_INTR_CAUSE_SLAVE))
 147:Generated_Source\PSoC4/EZI2C_EZI2C_INT.c ****                 #endif /* (EZI2C_SECONDARY_ADDRESS_ENABLE_CONST) */
 148:Generated_Source\PSoC4/EZI2C_EZI2C_INT.c ****                     {
 149:Generated_Source\PSoC4/EZI2C_EZI2C_INT.c ****                         locByte = EZI2C_RX_FIFO_RD_REG;
 149              		.loc 1 149 0
 150 00a8 964B     		ldr	r3, .L39+56
 151 00aa 1A68     		ldr	r2, [r3]
 152              	.LVL4:
 150:Generated_Source\PSoC4/EZI2C_EZI2C_INT.c **** 
 151:Generated_Source\PSoC4/EZI2C_EZI2C_INT.c ****                         switch(EZI2C_fsmState)
 153              		.loc 1 151 0
 154 00ac 924B     		ldr	r3, .L39+44
 155 00ae 1B78     		ldrb	r3, [r3]
 156 00b0 012B     		cmp	r3, #1
 157 00b2 04D0     		beq	.L11
 158 00b4 002B     		cmp	r3, #0
 159 00b6 22D0     		beq	.L12
 160 00b8 022B     		cmp	r3, #2
 161 00ba 16D0     		beq	.L13
 162 00bc 57E0     		b	.L38
 163              	.L11:
 152:Generated_Source\PSoC4/EZI2C_EZI2C_INT.c ****                         {
 153:Generated_Source\PSoC4/EZI2C_EZI2C_INT.c ****                         case EZI2C_EZI2C_FSM_BYTE_WRITE:
 154:Generated_Source\PSoC4/EZI2C_EZI2C_INT.c ****                             if(0u != locBufSize)
 164              		.loc 1 154 0
 165 00be 924B     		ldr	r3, .L39+60
 166 00c0 1B88     		ldrh	r3, [r3]
 167 00c2 002B     		cmp	r3, #0
 168 00c4 0DD0     		beq	.L14
 155:Generated_Source\PSoC4/EZI2C_EZI2C_INT.c ****                             {
 156:Generated_Source\PSoC4/EZI2C_EZI2C_INT.c ****                                 /* Store data byte and ACK */
 157:Generated_Source\PSoC4/EZI2C_EZI2C_INT.c ****                                 EZI2C_I2C_SLAVE_GENERATE_ACK;
 169              		.loc 1 157 0
 170 00c6 0121     		mov	r1, #1
 171 00c8 904B     		ldr	r3, .L39+64
 172 00ca 1960     		str	r1, [r3]
 158:Generated_Source\PSoC4/EZI2C_EZI2C_INT.c **** 
 159:Generated_Source\PSoC4/EZI2C_EZI2C_INT.c ****                                 EZI2C_dataBuffer1[locIndex] = (uint8) locByte;
 173              		.loc 1 159 0
 174 00cc 904B     		ldr	r3, .L39+68
 175 00ce 1B68     		ldr	r3, [r3]
 176 00d0 1B19     		add	r3, r3, r4
 177 00d2 D2B2     		uxtb	r2, r2
 178              	.LVL5:
 179 00d4 1A70     		strb	r2, [r3]
 160:Generated_Source\PSoC4/EZI2C_EZI2C_INT.c ****                                 locIndex++;
 180              		.loc 1 160 0
 181 00d6 0134     		add	r4, r4, #1
 182              	.LVL6:
ARM GAS  C:\Users\Administrator\AppData\Local\Temp\ccijwwP1.s 			page 7


 161:Generated_Source\PSoC4/EZI2C_EZI2C_INT.c ****                                 locBufSize--;
 183              		.loc 1 161 0
 184 00d8 8B4A     		ldr	r2, .L39+60
 185 00da 1388     		ldrh	r3, [r2]
 186 00dc 013B     		sub	r3, r3, #1
 187 00de 1380     		strh	r3, [r2]
 188 00e0 48E0     		b	.L15
 189              	.LVL7:
 190              	.L14:
 162:Generated_Source\PSoC4/EZI2C_EZI2C_INT.c ****                             }
 163:Generated_Source\PSoC4/EZI2C_EZI2C_INT.c ****                             else
 164:Generated_Source\PSoC4/EZI2C_EZI2C_INT.c ****                             {
 165:Generated_Source\PSoC4/EZI2C_EZI2C_INT.c ****                                 /* Discard data byte and NACK */
 166:Generated_Source\PSoC4/EZI2C_EZI2C_INT.c ****                                 EZI2C_I2C_SLAVE_GENERATE_NACK;
 191              		.loc 1 166 0
 192 00e2 0222     		mov	r2, #2
 193              	.LVL8:
 194 00e4 894B     		ldr	r3, .L39+64
 195 00e6 1A60     		str	r2, [r3]
 196 00e8 44E0     		b	.L15
 197              	.LVL9:
 198              	.L13:
 167:Generated_Source\PSoC4/EZI2C_EZI2C_INT.c ****                             }
 168:Generated_Source\PSoC4/EZI2C_EZI2C_INT.c ****                             break;
 169:Generated_Source\PSoC4/EZI2C_EZI2C_INT.c **** 
 170:Generated_Source\PSoC4/EZI2C_EZI2C_INT.c ****                     #if(EZI2C_SUB_ADDRESS_SIZE16_CONST)
 171:Generated_Source\PSoC4/EZI2C_EZI2C_INT.c ****                         case EZI2C_EZI2C_FSM_OFFSET_HI8:
 172:Generated_Source\PSoC4/EZI2C_EZI2C_INT.c **** 
 173:Generated_Source\PSoC4/EZI2C_EZI2C_INT.c ****                             EZI2C_I2C_SLAVE_GENERATE_ACK;
 199              		.loc 1 173 0
 200 00ea 0121     		mov	r1, #1
 201 00ec 874B     		ldr	r3, .L39+64
 202 00ee 1960     		str	r1, [r3]
 174:Generated_Source\PSoC4/EZI2C_EZI2C_INT.c **** 
 175:Generated_Source\PSoC4/EZI2C_EZI2C_INT.c ****                             /* Store offset most significant byre */
 176:Generated_Source\PSoC4/EZI2C_EZI2C_INT.c ****                             locBufSize = (uint16) ((uint8) locByte);
 203              		.loc 1 176 0
 204 00f0 D2B2     		uxtb	r2, r2
 205              	.LVL10:
 206 00f2 854B     		ldr	r3, .L39+60
 207 00f4 1A80     		strh	r2, [r3]
 177:Generated_Source\PSoC4/EZI2C_EZI2C_INT.c **** 
 178:Generated_Source\PSoC4/EZI2C_EZI2C_INT.c ****                             EZI2C_fsmState = EZI2C_EZI2C_FSM_OFFSET_LO8;
 208              		.loc 1 178 0
 209 00f6 0022     		mov	r2, #0
 210 00f8 7F4B     		ldr	r3, .L39+44
 211 00fa 1A70     		strb	r2, [r3]
 179:Generated_Source\PSoC4/EZI2C_EZI2C_INT.c **** 
 180:Generated_Source\PSoC4/EZI2C_EZI2C_INT.c ****                             break;
 212              		.loc 1 180 0
 213 00fc 3AE0     		b	.L15
 214              	.LVL11:
 215              	.L12:
 181:Generated_Source\PSoC4/EZI2C_EZI2C_INT.c ****                     #endif /* (EZI2C_SUB_ADDRESS_SIZE16_CONST) */
 182:Generated_Source\PSoC4/EZI2C_EZI2C_INT.c **** 
 183:Generated_Source\PSoC4/EZI2C_EZI2C_INT.c ****                         case EZI2C_EZI2C_FSM_OFFSET_LO8:
 184:Generated_Source\PSoC4/EZI2C_EZI2C_INT.c **** 
ARM GAS  C:\Users\Administrator\AppData\Local\Temp\ccijwwP1.s 			page 8


 185:Generated_Source\PSoC4/EZI2C_EZI2C_INT.c ****                             #if (EZI2C_SUB_ADDRESS_SIZE16)
 186:Generated_Source\PSoC4/EZI2C_EZI2C_INT.c ****                             {
 187:Generated_Source\PSoC4/EZI2C_EZI2C_INT.c ****                                 /* Collect 2 bytes offset */
 188:Generated_Source\PSoC4/EZI2C_EZI2C_INT.c ****                                 locByte = ((uint32) ((uint32) locBufSize << 8u)) | locByte;
 216              		.loc 1 188 0
 217 00fe 824B     		ldr	r3, .L39+60
 218 0100 1B88     		ldrh	r3, [r3]
 219 0102 1B02     		lsl	r3, r3, #8
 220 0104 1A43     		orr	r2, r3
 221              	.LVL12:
 189:Generated_Source\PSoC4/EZI2C_EZI2C_INT.c ****                             }
 190:Generated_Source\PSoC4/EZI2C_EZI2C_INT.c ****                             #endif
 191:Generated_Source\PSoC4/EZI2C_EZI2C_INT.c **** 
 192:Generated_Source\PSoC4/EZI2C_EZI2C_INT.c ****                             /* Check offset against buffer size */
 193:Generated_Source\PSoC4/EZI2C_EZI2C_INT.c ****                             if(locByte < (uint32) EZI2C_bufSizeBuf1)
 222              		.loc 1 193 0
 223 0106 834B     		ldr	r3, .L39+72
 224 0108 1B88     		ldrh	r3, [r3]
 225 010a 9342     		cmp	r3, r2
 226 010c 2BD9     		bls	.L16
 194:Generated_Source\PSoC4/EZI2C_EZI2C_INT.c ****                             {
 195:Generated_Source\PSoC4/EZI2C_EZI2C_INT.c ****                                 EZI2C_I2C_SLAVE_GENERATE_ACK;
 227              		.loc 1 195 0
 228 010e 0121     		mov	r1, #1
 229 0110 7E4B     		ldr	r3, .L39+64
 230 0112 1960     		str	r1, [r3]
 231              	.LVL13:
 196:Generated_Source\PSoC4/EZI2C_EZI2C_INT.c **** 
 197:Generated_Source\PSoC4/EZI2C_EZI2C_INT.c ****                                 /* Update local buffer index with new offset */
 198:Generated_Source\PSoC4/EZI2C_EZI2C_INT.c ****                                 locIndex = locByte;
 199:Generated_Source\PSoC4/EZI2C_EZI2C_INT.c **** 
 200:Generated_Source\PSoC4/EZI2C_EZI2C_INT.c ****                                 /* Get available buffer size to write */
 201:Generated_Source\PSoC4/EZI2C_EZI2C_INT.c ****                                 locBufSize = (uint16) ((locByte < EZI2C_protectBuf1) ?
 232              		.loc 1 201 0
 233 0114 804B     		ldr	r3, .L39+76
 234 0116 1B88     		ldrh	r3, [r3]
 235 0118 9342     		cmp	r3, r2
 236 011a 02D9     		bls	.L35
 237              		.loc 1 201 0 is_stmt 0 discriminator 1
 238 011c 9B1A     		sub	r3, r3, r2
 239 011e 9BB2     		uxth	r3, r3
 240 0120 00E0     		b	.L17
 241              	.L35:
 242              		.loc 1 201 0
 243 0122 0023     		mov	r3, #0
 244              	.L17:
 245              		.loc 1 201 0 discriminator 4
 246 0124 7849     		ldr	r1, .L39+60
 247 0126 0B80     		strh	r3, [r1]
 202:Generated_Source\PSoC4/EZI2C_EZI2C_INT.c ****                                                        (EZI2C_protectBuf1 - locByte) : (0u));
 203:Generated_Source\PSoC4/EZI2C_EZI2C_INT.c **** 
 204:Generated_Source\PSoC4/EZI2C_EZI2C_INT.c ****                             #if(EZI2C_CY_SCBIP_V0)
 205:Generated_Source\PSoC4/EZI2C_EZI2C_INT.c **** 
 206:Generated_Source\PSoC4/EZI2C_EZI2C_INT.c ****                                 if(locBufSize < EZI2C_EZI2C_FIFO_SIZE)
 207:Generated_Source\PSoC4/EZI2C_EZI2C_INT.c ****                                 {
 208:Generated_Source\PSoC4/EZI2C_EZI2C_INT.c ****                                     /* Set FSM state to receive byte by byte */
 209:Generated_Source\PSoC4/EZI2C_EZI2C_INT.c ****                                     EZI2C_fsmState = EZI2C_EZI2C_FSM_BYTE_WRITE;
ARM GAS  C:\Users\Administrator\AppData\Local\Temp\ccijwwP1.s 			page 9


 210:Generated_Source\PSoC4/EZI2C_EZI2C_INT.c ****                                 }
 211:Generated_Source\PSoC4/EZI2C_EZI2C_INT.c ****                                 /* Receive RX FIFO chunks */
 212:Generated_Source\PSoC4/EZI2C_EZI2C_INT.c ****                                 else if(locBufSize == EZI2C_EZI2C_FIFO_SIZE)
 213:Generated_Source\PSoC4/EZI2C_EZI2C_INT.c ****                                 {
 214:Generated_Source\PSoC4/EZI2C_EZI2C_INT.c ****                                     EZI2C_ENABLE_SLAVE_AUTO_DATA; /* NACK when RX FIFO is full */
 215:Generated_Source\PSoC4/EZI2C_EZI2C_INT.c ****                                     EZI2C_SetRxInterruptMode(EZI2C_NO_INTR_SOURCES);
 216:Generated_Source\PSoC4/EZI2C_EZI2C_INT.c ****                                 }
 217:Generated_Source\PSoC4/EZI2C_EZI2C_INT.c ****                                 else
 218:Generated_Source\PSoC4/EZI2C_EZI2C_INT.c ****                                 {
 219:Generated_Source\PSoC4/EZI2C_EZI2C_INT.c ****                                     EZI2C_ENABLE_SLAVE_AUTO_DATA_ACK; /* Stretch when RX FIFO is fu
 220:Generated_Source\PSoC4/EZI2C_EZI2C_INT.c ****                                     EZI2C_SetRxInterruptMode(EZI2C_INTR_RX_FULL);
 221:Generated_Source\PSoC4/EZI2C_EZI2C_INT.c ****                                 }
 222:Generated_Source\PSoC4/EZI2C_EZI2C_INT.c **** 
 223:Generated_Source\PSoC4/EZI2C_EZI2C_INT.c ****                             #else
 224:Generated_Source\PSoC4/EZI2C_EZI2C_INT.c **** 
 225:Generated_Source\PSoC4/EZI2C_EZI2C_INT.c ****                                 #if(EZI2C_SECONDARY_ADDRESS_ENABLE)
 226:Generated_Source\PSoC4/EZI2C_EZI2C_INT.c ****                                 {
 227:Generated_Source\PSoC4/EZI2C_EZI2C_INT.c ****                                     /* Set FSM state to receive byte by byte.
 228:Generated_Source\PSoC4/EZI2C_EZI2C_INT.c ****                                     * The byte by byte receive is always chosen for two addresses. 
 229:Generated_Source\PSoC4/EZI2C_EZI2C_INT.c ****                                     */
 230:Generated_Source\PSoC4/EZI2C_EZI2C_INT.c ****                                     EZI2C_fsmState = EZI2C_EZI2C_FSM_BYTE_WRITE;
 231:Generated_Source\PSoC4/EZI2C_EZI2C_INT.c ****                                 }
 232:Generated_Source\PSoC4/EZI2C_EZI2C_INT.c ****                                 #else
 233:Generated_Source\PSoC4/EZI2C_EZI2C_INT.c ****                                 {
 234:Generated_Source\PSoC4/EZI2C_EZI2C_INT.c ****                                     if (locBufSize < EZI2C_EZI2C_FIFO_SIZE)
 248              		.loc 1 234 0 is_stmt 1 discriminator 4
 249 0128 072B     		cmp	r3, #7
 250 012a 03D8     		bhi	.L18
 235:Generated_Source\PSoC4/EZI2C_EZI2C_INT.c ****                                     {
 236:Generated_Source\PSoC4/EZI2C_EZI2C_INT.c ****                                         /* Set FSM state to receive byte by byte */
 237:Generated_Source\PSoC4/EZI2C_EZI2C_INT.c ****                                         EZI2C_fsmState = EZI2C_EZI2C_FSM_BYTE_WRITE;
 251              		.loc 1 237 0
 252 012c 0121     		mov	r1, #1
 253 012e 724B     		ldr	r3, .L39+44
 254 0130 1970     		strb	r1, [r3]
 255 0132 14E0     		b	.L19
 256              	.L18:
 238:Generated_Source\PSoC4/EZI2C_EZI2C_INT.c ****                                     }
 239:Generated_Source\PSoC4/EZI2C_EZI2C_INT.c ****                                     /* Receive RX FIFO chunks */
 240:Generated_Source\PSoC4/EZI2C_EZI2C_INT.c ****                                     else if (locBufSize == EZI2C_EZI2C_FIFO_SIZE)
 257              		.loc 1 240 0
 258 0134 082B     		cmp	r3, #8
 259 0136 09D1     		bne	.L20
 241:Generated_Source\PSoC4/EZI2C_EZI2C_INT.c ****                                     {
 242:Generated_Source\PSoC4/EZI2C_EZI2C_INT.c ****                                         EZI2C_ENABLE_SLAVE_AUTO_DATA; /* NACK when RX FIFO is full 
 260              		.loc 1 242 0
 261 0138 6C49     		ldr	r1, .L39+32
 262 013a 0B68     		ldr	r3, [r1]
 263 013c A020     		mov	r0, #160
 264 013e 0002     		lsl	r0, r0, #8
 265 0140 0343     		orr	r3, r0
 266 0142 0B60     		str	r3, [r1]
 243:Generated_Source\PSoC4/EZI2C_EZI2C_INT.c ****                                         EZI2C_SetRxInterruptMode(EZI2C_NO_INTR_SOURCES);
 267              		.loc 1 243 0
 268 0144 0021     		mov	r1, #0
 269 0146 6B4B     		ldr	r3, .L39+40
 270 0148 1960     		str	r1, [r3]
ARM GAS  C:\Users\Administrator\AppData\Local\Temp\ccijwwP1.s 			page 10


 271 014a 08E0     		b	.L19
 272              	.L20:
 244:Generated_Source\PSoC4/EZI2C_EZI2C_INT.c ****                                     }
 245:Generated_Source\PSoC4/EZI2C_EZI2C_INT.c ****                                     else
 246:Generated_Source\PSoC4/EZI2C_EZI2C_INT.c ****                                     {
 247:Generated_Source\PSoC4/EZI2C_EZI2C_INT.c ****                                         EZI2C_ENABLE_SLAVE_AUTO_DATA_ACK; /* Stretch when RX FIFO i
 273              		.loc 1 247 0
 274 014c 6749     		ldr	r1, .L39+32
 275 014e 0B68     		ldr	r3, [r1]
 276 0150 8020     		mov	r0, #128
 277 0152 8001     		lsl	r0, r0, #6
 278 0154 0343     		orr	r3, r0
 279 0156 0B60     		str	r3, [r1]
 248:Generated_Source\PSoC4/EZI2C_EZI2C_INT.c ****                                         EZI2C_SetRxInterruptMode(EZI2C_INTR_RX_FULL);
 280              		.loc 1 248 0
 281 0158 0821     		mov	r1, #8
 282 015a 664B     		ldr	r3, .L39+40
 283 015c 1960     		str	r1, [r3]
 284              	.L19:
 249:Generated_Source\PSoC4/EZI2C_EZI2C_INT.c ****                                     }
 250:Generated_Source\PSoC4/EZI2C_EZI2C_INT.c ****                                 }
 251:Generated_Source\PSoC4/EZI2C_EZI2C_INT.c ****                                 #endif
 252:Generated_Source\PSoC4/EZI2C_EZI2C_INT.c **** 
 253:Generated_Source\PSoC4/EZI2C_EZI2C_INT.c ****                             #endif /* (EZI2C_CY_SCBIP_V0) */
 254:Generated_Source\PSoC4/EZI2C_EZI2C_INT.c **** 
 255:Generated_Source\PSoC4/EZI2C_EZI2C_INT.c ****                                 /* Store local offset into global variable */
 256:Generated_Source\PSoC4/EZI2C_EZI2C_INT.c ****                                 EZI2C_EZI2C_SET_OFFSET(activeAddress, locIndex);
 285              		.loc 1 256 0
 286 015e 624B     		ldr	r3, .L39+28
 287 0160 1A80     		strh	r2, [r3]
 198:Generated_Source\PSoC4/EZI2C_EZI2C_INT.c **** 
 288              		.loc 1 198 0
 289 0162 141C     		mov	r4, r2
 290 0164 06E0     		b	.L15
 291              	.LVL14:
 292              	.L16:
 257:Generated_Source\PSoC4/EZI2C_EZI2C_INT.c ****                             }
 258:Generated_Source\PSoC4/EZI2C_EZI2C_INT.c ****                             else
 259:Generated_Source\PSoC4/EZI2C_EZI2C_INT.c ****                             {
 260:Generated_Source\PSoC4/EZI2C_EZI2C_INT.c ****                                 /* Discard offset byte and NACK */
 261:Generated_Source\PSoC4/EZI2C_EZI2C_INT.c ****                                 EZI2C_I2C_SLAVE_GENERATE_NACK;
 293              		.loc 1 261 0
 294 0166 0222     		mov	r2, #2
 295              	.LVL15:
 296 0168 684B     		ldr	r3, .L39+64
 297 016a 1A60     		str	r2, [r3]
 298 016c 02E0     		b	.L15
 299              	.LVL16:
 300              	.L38:
 262:Generated_Source\PSoC4/EZI2C_EZI2C_INT.c ****                             }
 263:Generated_Source\PSoC4/EZI2C_EZI2C_INT.c ****                             break;
 264:Generated_Source\PSoC4/EZI2C_EZI2C_INT.c **** 
 265:Generated_Source\PSoC4/EZI2C_EZI2C_INT.c ****                         default:
 266:Generated_Source\PSoC4/EZI2C_EZI2C_INT.c ****                             CYASSERT(0u != 0u); /* Should never get there */
 301              		.loc 1 266 0 discriminator 1
 302 016e 0020     		mov	r0, #0
 303 0170 FFF7FEFF 		bl	CyHalt
ARM GAS  C:\Users\Administrator\AppData\Local\Temp\ccijwwP1.s 			page 11


 304              	.LVL17:
 305              	.L15:
 267:Generated_Source\PSoC4/EZI2C_EZI2C_INT.c ****                             break;
 268:Generated_Source\PSoC4/EZI2C_EZI2C_INT.c ****                         }
 269:Generated_Source\PSoC4/EZI2C_EZI2C_INT.c **** 
 270:Generated_Source\PSoC4/EZI2C_EZI2C_INT.c ****                         EZI2C_ClearRxInterruptSource(EZI2C_INTR_RX_NOT_EMPTY);
 306              		.loc 1 270 0
 307 0174 0422     		mov	r2, #4
 308 0176 694B     		ldr	r3, .L39+80
 309 0178 1A60     		str	r2, [r3]
 310 017a 35E0     		b	.L8
 311              	.L9:
 271:Generated_Source\PSoC4/EZI2C_EZI2C_INT.c ****                     }
 272:Generated_Source\PSoC4/EZI2C_EZI2C_INT.c ****                 }
 273:Generated_Source\PSoC4/EZI2C_EZI2C_INT.c ****                 /* INTR_RX.FULL, INTR_SLAVE.I2C_STOP */
 274:Generated_Source\PSoC4/EZI2C_EZI2C_INT.c ****                 /* Receive FIFO chunks: auto data ACK is enabled */
 275:Generated_Source\PSoC4/EZI2C_EZI2C_INT.c ****                 else if (0u != (EZI2C_I2C_CTRL_REG & EZI2C_I2C_CTRL_S_READY_DATA_ACK))
 312              		.loc 1 275 0
 313 017c 5B4B     		ldr	r3, .L39+32
 314 017e 1B68     		ldr	r3, [r3]
 315 0180 9B04     		lsl	r3, r3, #18
 316 0182 31D5     		bpl	.L8
 276:Generated_Source\PSoC4/EZI2C_EZI2C_INT.c ****                 {
 277:Generated_Source\PSoC4/EZI2C_EZI2C_INT.c ****                     /* Slave interrupt (I2C_STOP or I2C_ADDR_MATCH) leads to completion of read.
 278:Generated_Source\PSoC4/EZI2C_EZI2C_INT.c ****                     * A completion event has a higher priority than the FIFO full.
 279:Generated_Source\PSoC4/EZI2C_EZI2C_INT.c ****                     * Read remaining data from RX FIFO.
 280:Generated_Source\PSoC4/EZI2C_EZI2C_INT.c ****                     */
 281:Generated_Source\PSoC4/EZI2C_EZI2C_INT.c ****                     if(0u != (locIntrCause & EZI2C_INTR_CAUSE_SLAVE))
 317              		.loc 1 281 0
 318 0184 B307     		lsl	r3, r6, #30
 319 0186 0DD5     		bpl	.L21
 282:Generated_Source\PSoC4/EZI2C_EZI2C_INT.c ****                     {
 283:Generated_Source\PSoC4/EZI2C_EZI2C_INT.c ****                         /* Read remaining bytes from RX FIFO */
 284:Generated_Source\PSoC4/EZI2C_EZI2C_INT.c ****                         fifoIndex = EZI2C_GET_RX_FIFO_ENTRIES;
 320              		.loc 1 284 0
 321 0188 654B     		ldr	r3, .L39+84
 322 018a 1B68     		ldr	r3, [r3]
 323 018c 1F21     		mov	r1, #31
 324 018e 1940     		and	r1, r3
 325              	.LVL18:
 285:Generated_Source\PSoC4/EZI2C_EZI2C_INT.c **** 
 286:Generated_Source\PSoC4/EZI2C_EZI2C_INT.c ****                         #if(EZI2C_SECONDARY_ADDRESS_ENABLE)
 287:Generated_Source\PSoC4/EZI2C_EZI2C_INT.c ****                         {
 288:Generated_Source\PSoC4/EZI2C_EZI2C_INT.c ****                             /* Update with current address match */
 289:Generated_Source\PSoC4/EZI2C_EZI2C_INT.c ****                             if(EZI2C_CHECK_INTR_SLAVE_MASKED(EZI2C_INTR_SLAVE_I2C_ADDR_MATCH))
 290:Generated_Source\PSoC4/EZI2C_EZI2C_INT.c ****                             {
 291:Generated_Source\PSoC4/EZI2C_EZI2C_INT.c ****                                 /* Update RX FIFO entries as address byte is there now */
 292:Generated_Source\PSoC4/EZI2C_EZI2C_INT.c ****                                 fifoIndex = EZI2C_GET_RX_FIFO_ENTRIES;
 293:Generated_Source\PSoC4/EZI2C_EZI2C_INT.c **** 
 294:Generated_Source\PSoC4/EZI2C_EZI2C_INT.c ****                                 /* If SR is valid, RX FIFO is full and address is in SHIFTER:
 295:Generated_Source\PSoC4/EZI2C_EZI2C_INT.c ****                                 * read 8 entries and leave address in RX FIFO for further processin
 296:Generated_Source\PSoC4/EZI2C_EZI2C_INT.c ****                                 * If SR is invalid, address is already in RX FIFO: read (entries-1)
 297:Generated_Source\PSoC4/EZI2C_EZI2C_INT.c ****                                 */
 298:Generated_Source\PSoC4/EZI2C_EZI2C_INT.c ****                                 fifoIndex -= ((0u != EZI2C_GET_RX_FIFO_SR_VALID) ? (0u) : (1u));
 299:Generated_Source\PSoC4/EZI2C_EZI2C_INT.c ****                             }
 300:Generated_Source\PSoC4/EZI2C_EZI2C_INT.c ****                         }
 301:Generated_Source\PSoC4/EZI2C_EZI2C_INT.c ****                         #endif
ARM GAS  C:\Users\Administrator\AppData\Local\Temp\ccijwwP1.s 			page 12


 302:Generated_Source\PSoC4/EZI2C_EZI2C_INT.c **** 
 303:Generated_Source\PSoC4/EZI2C_EZI2C_INT.c ****                         EZI2C_DISABLE_SLAVE_AUTO_DATA;
 326              		.loc 1 303 0
 327 0190 564A     		ldr	r2, .L39+32
 328 0192 1068     		ldr	r0, [r2]
 329 0194 564B     		ldr	r3, .L39+36
 330 0196 0340     		and	r3, r0
 331 0198 1360     		str	r3, [r2]
 332              	.LVL19:
 304:Generated_Source\PSoC4/EZI2C_EZI2C_INT.c ****                         endTransfer = EZI2C_EZI2C_CONTINUE_TRANSFER;
 333              		.loc 1 304 0
 334 019a 0120     		mov	r0, #1
 335 019c 14E0     		b	.L22
 336              	.LVL20:
 337              	.L36:
 305:Generated_Source\PSoC4/EZI2C_EZI2C_INT.c ****                     }
 306:Generated_Source\PSoC4/EZI2C_EZI2C_INT.c ****                     else
 307:Generated_Source\PSoC4/EZI2C_EZI2C_INT.c ****                     /* INTR_RX_FULL */
 308:Generated_Source\PSoC4/EZI2C_EZI2C_INT.c ****                     /* Continue transfer or disable INTR_RX_FULL to catch completion event. */
 309:Generated_Source\PSoC4/EZI2C_EZI2C_INT.c ****                     {
 310:Generated_Source\PSoC4/EZI2C_EZI2C_INT.c ****                         /* Calculate buffer size available to write data into */
 311:Generated_Source\PSoC4/EZI2C_EZI2C_INT.c ****                         locBufSize -= (uint16) EZI2C_EZI2C_FIFO_SIZE;
 312:Generated_Source\PSoC4/EZI2C_EZI2C_INT.c **** 
 313:Generated_Source\PSoC4/EZI2C_EZI2C_INT.c ****                         if(locBufSize <= EZI2C_EZI2C_FIFO_SIZE)
 314:Generated_Source\PSoC4/EZI2C_EZI2C_INT.c ****                         {
 315:Generated_Source\PSoC4/EZI2C_EZI2C_INT.c ****                             /* Send NACK when RX FIFO overflow */
 316:Generated_Source\PSoC4/EZI2C_EZI2C_INT.c ****                             fifoIndex   = locBufSize;
 317:Generated_Source\PSoC4/EZI2C_EZI2C_INT.c ****                             endTransfer = EZI2C_EZI2C_COMPLETE_TRANSFER;
 318:Generated_Source\PSoC4/EZI2C_EZI2C_INT.c ****                         }
 319:Generated_Source\PSoC4/EZI2C_EZI2C_INT.c ****                         else
 320:Generated_Source\PSoC4/EZI2C_EZI2C_INT.c ****                         {
 321:Generated_Source\PSoC4/EZI2C_EZI2C_INT.c ****                             /* Continue  transaction */
 322:Generated_Source\PSoC4/EZI2C_EZI2C_INT.c ****                             fifoIndex   = EZI2C_EZI2C_FIFO_SIZE;
 338              		.loc 1 322 0
 339 019e 0821     		mov	r1, #8
 323:Generated_Source\PSoC4/EZI2C_EZI2C_INT.c ****                             endTransfer = EZI2C_EZI2C_CONTINUE_TRANSFER;
 340              		.loc 1 323 0
 341 01a0 0120     		mov	r0, #1
 342 01a2 11E0     		b	.L22
 343              	.L21:
 311:Generated_Source\PSoC4/EZI2C_EZI2C_INT.c **** 
 344              		.loc 1 311 0
 345 01a4 584B     		ldr	r3, .L39+60
 346 01a6 1988     		ldrh	r1, [r3]
 347 01a8 0839     		sub	r1, r1, #8
 348 01aa 89B2     		uxth	r1, r1
 349 01ac 1980     		strh	r1, [r3]
 313:Generated_Source\PSoC4/EZI2C_EZI2C_INT.c ****                         {
 350              		.loc 1 313 0
 351 01ae 0829     		cmp	r1, #8
 352 01b0 F5D8     		bhi	.L36
 353              	.LVL21:
 317:Generated_Source\PSoC4/EZI2C_EZI2C_INT.c ****                         }
 354              		.loc 1 317 0
 355 01b2 0020     		mov	r0, #0
 356 01b4 08E0     		b	.L22
 357              	.LVL22:
ARM GAS  C:\Users\Administrator\AppData\Local\Temp\ccijwwP1.s 			page 13


 358              	.L24:
 324:Generated_Source\PSoC4/EZI2C_EZI2C_INT.c ****                         }
 325:Generated_Source\PSoC4/EZI2C_EZI2C_INT.c ****                     }
 326:Generated_Source\PSoC4/EZI2C_EZI2C_INT.c **** 
 327:Generated_Source\PSoC4/EZI2C_EZI2C_INT.c ****                     for(; (0u != fifoIndex); fifoIndex--)
 328:Generated_Source\PSoC4/EZI2C_EZI2C_INT.c ****                     {
 329:Generated_Source\PSoC4/EZI2C_EZI2C_INT.c ****                         /* Store data in buffer */
 330:Generated_Source\PSoC4/EZI2C_EZI2C_INT.c ****                         EZI2C_dataBuffer1[locIndex] = (uint8) EZI2C_RX_FIFO_RD_REG;
 359              		.loc 1 330 0 discriminator 2
 360 01b6 564B     		ldr	r3, .L39+68
 361 01b8 1B68     		ldr	r3, [r3]
 362 01ba 1B19     		add	r3, r3, r4
 363 01bc 514A     		ldr	r2, .L39+56
 364 01be 1268     		ldr	r2, [r2]
 365 01c0 D2B2     		uxtb	r2, r2
 366 01c2 1A70     		strb	r2, [r3]
 331:Generated_Source\PSoC4/EZI2C_EZI2C_INT.c ****                         locIndex++;
 367              		.loc 1 331 0 discriminator 2
 368 01c4 0134     		add	r4, r4, #1
 369              	.LVL23:
 327:Generated_Source\PSoC4/EZI2C_EZI2C_INT.c ****                     {
 370              		.loc 1 327 0 discriminator 2
 371 01c6 0139     		sub	r1, r1, #1
 372              	.LVL24:
 373              	.L22:
 327:Generated_Source\PSoC4/EZI2C_EZI2C_INT.c ****                     {
 374              		.loc 1 327 0 is_stmt 0 discriminator 1
 375 01c8 0029     		cmp	r1, #0
 376 01ca F4D1     		bne	.L24
 332:Generated_Source\PSoC4/EZI2C_EZI2C_INT.c ****                     }
 333:Generated_Source\PSoC4/EZI2C_EZI2C_INT.c **** 
 334:Generated_Source\PSoC4/EZI2C_EZI2C_INT.c ****                     /* Complete transfer sending NACK when RX FIFO overflow */
 335:Generated_Source\PSoC4/EZI2C_EZI2C_INT.c ****                     if(EZI2C_EZI2C_COMPLETE_TRANSFER == endTransfer)
 377              		.loc 1 335 0 is_stmt 1
 378 01cc 0028     		cmp	r0, #0
 379 01ce 08D1     		bne	.L25
 336:Generated_Source\PSoC4/EZI2C_EZI2C_INT.c ****                     {
 337:Generated_Source\PSoC4/EZI2C_EZI2C_INT.c ****                         EZI2C_ENABLE_SLAVE_AUTO_DATA_NACK;
 380              		.loc 1 337 0
 381 01d0 464A     		ldr	r2, .L39+32
 382 01d2 1368     		ldr	r3, [r2]
 383 01d4 8021     		mov	r1, #128
 384              	.LVL25:
 385 01d6 0902     		lsl	r1, r1, #8
 386 01d8 0B43     		orr	r3, r1
 387 01da 1360     		str	r3, [r2]
 338:Generated_Source\PSoC4/EZI2C_EZI2C_INT.c **** 
 339:Generated_Source\PSoC4/EZI2C_EZI2C_INT.c ****                         /* Disable INTR_RX_FULL during last RX FIFO chunk reception */
 340:Generated_Source\PSoC4/EZI2C_EZI2C_INT.c ****                         EZI2C_SetRxInterruptMode(EZI2C_NO_INTR_SOURCES);
 388              		.loc 1 340 0
 389 01dc 0022     		mov	r2, #0
 390 01de 454B     		ldr	r3, .L39+40
 391 01e0 1A60     		str	r2, [r3]
 392              	.L25:
 341:Generated_Source\PSoC4/EZI2C_EZI2C_INT.c ****                     }
 342:Generated_Source\PSoC4/EZI2C_EZI2C_INT.c **** 
 343:Generated_Source\PSoC4/EZI2C_EZI2C_INT.c ****                     EZI2C_ClearRxInterruptSource(EZI2C_INTR_RX_FULL |
ARM GAS  C:\Users\Administrator\AppData\Local\Temp\ccijwwP1.s 			page 14


 393              		.loc 1 343 0
 394 01e2 0C22     		mov	r2, #12
 395 01e4 4D4B     		ldr	r3, .L39+80
 396 01e6 1A60     		str	r2, [r3]
 397              	.LVL26:
 398              	.L8:
 344:Generated_Source\PSoC4/EZI2C_EZI2C_INT.c ****                                                             EZI2C_INTR_RX_NOT_EMPTY);
 345:Generated_Source\PSoC4/EZI2C_EZI2C_INT.c ****                 }
 346:Generated_Source\PSoC4/EZI2C_EZI2C_INT.c ****                 else
 347:Generated_Source\PSoC4/EZI2C_EZI2C_INT.c ****                 {
 348:Generated_Source\PSoC4/EZI2C_EZI2C_INT.c ****                     /* Exit for slave interrupts which are not active for RX direction:
 349:Generated_Source\PSoC4/EZI2C_EZI2C_INT.c ****                     * INTR_SLAVE.I2C_ADDR_MATCH and INTR_SLAVE.I2C_STOP while byte-by-byte receptio
 350:Generated_Source\PSoC4/EZI2C_EZI2C_INT.c ****                     */
 351:Generated_Source\PSoC4/EZI2C_EZI2C_INT.c ****                 }
 352:Generated_Source\PSoC4/EZI2C_EZI2C_INT.c ****             }
 353:Generated_Source\PSoC4/EZI2C_EZI2C_INT.c **** 
 354:Generated_Source\PSoC4/EZI2C_EZI2C_INT.c ****             if(0u != (locIntrCause & EZI2C_INTR_CAUSE_SLAVE))
 399              		.loc 1 354 0
 400 01e8 B307     		lsl	r3, r6, #30
 401 01ea 4AD5     		bpl	.L26
 355:Generated_Source\PSoC4/EZI2C_EZI2C_INT.c ****             {
 356:Generated_Source\PSoC4/EZI2C_EZI2C_INT.c ****                 /* INTR_SLAVE.I2C_STOP */
 357:Generated_Source\PSoC4/EZI2C_EZI2C_INT.c ****                 /* Catch Stop condition: completion of write or read transfer */
 358:Generated_Source\PSoC4/EZI2C_EZI2C_INT.c ****             #if(!EZI2C_SECONDARY_ADDRESS_ENABLE_CONST)
 359:Generated_Source\PSoC4/EZI2C_EZI2C_INT.c ****                 if(0u != (locIntrSlave & EZI2C_INTR_SLAVE_I2C_STOP))
 402              		.loc 1 359 0
 403 01ec EB06     		lsl	r3, r5, #27
 404 01ee 15D5     		bpl	.L27
 360:Generated_Source\PSoC4/EZI2C_EZI2C_INT.c ****             #else
 361:Generated_Source\PSoC4/EZI2C_EZI2C_INT.c ****                 /* Prevent triggering when matched address was NACKed */
 362:Generated_Source\PSoC4/EZI2C_EZI2C_INT.c ****                 if((0u != (locIntrSlave & EZI2C_INTR_SLAVE_I2C_STOP)) &&
 363:Generated_Source\PSoC4/EZI2C_EZI2C_INT.c ****                    (0u != ((uint8) EZI2C_EZI2C_STATUS_BUSY & EZI2C_curStatus)))
 364:Generated_Source\PSoC4/EZI2C_EZI2C_INT.c ****             #endif
 365:Generated_Source\PSoC4/EZI2C_EZI2C_INT.c ****                 {
 366:Generated_Source\PSoC4/EZI2C_EZI2C_INT.c ****                     /* Disable TX and RX interrupt sources */
 367:Generated_Source\PSoC4/EZI2C_EZI2C_INT.c ****                     EZI2C_SetRxInterruptMode(EZI2C_NO_INTR_SOURCES);
 405              		.loc 1 367 0
 406 01f0 0023     		mov	r3, #0
 407 01f2 404A     		ldr	r2, .L39+40
 408 01f4 1360     		str	r3, [r2]
 368:Generated_Source\PSoC4/EZI2C_EZI2C_INT.c ****                     EZI2C_SetTxInterruptMode(EZI2C_NO_INTR_SOURCES);
 409              		.loc 1 368 0
 410 01f6 3B4A     		ldr	r2, .L39+24
 411 01f8 1360     		str	r3, [r2]
 412              	.LVL27:
 369:Generated_Source\PSoC4/EZI2C_EZI2C_INT.c **** 
 370:Generated_Source\PSoC4/EZI2C_EZI2C_INT.c ****                     /* Set read completion mask */
 371:Generated_Source\PSoC4/EZI2C_EZI2C_INT.c ****                     locStatus = EZI2C_INTR_SLAVE_I2C_NACK;
 372:Generated_Source\PSoC4/EZI2C_EZI2C_INT.c **** 
 373:Generated_Source\PSoC4/EZI2C_EZI2C_INT.c ****                     /* Check if buffer content was modified: the address phase resets the locIndex 
 374:Generated_Source\PSoC4/EZI2C_EZI2C_INT.c ****                     if(locIndex != EZI2C_EZI2C_GET_OFFSET(activeAddress))
 413              		.loc 1 374 0
 414 01fa 3B4B     		ldr	r3, .L39+28
 415 01fc 1B88     		ldrh	r3, [r3]
 416 01fe A342     		cmp	r3, r4
 417 0200 01D1     		bne	.L37
 371:Generated_Source\PSoC4/EZI2C_EZI2C_INT.c **** 
ARM GAS  C:\Users\Administrator\AppData\Local\Temp\ccijwwP1.s 			page 15


 418              		.loc 1 371 0
 419 0202 0223     		mov	r3, #2
 420 0204 00E0     		b	.L28
 421              	.L37:
 375:Generated_Source\PSoC4/EZI2C_EZI2C_INT.c ****                     {
 376:Generated_Source\PSoC4/EZI2C_EZI2C_INT.c ****                         locStatus |= EZI2C_INTR_SLAVE_I2C_WRITE_STOP;
 422              		.loc 1 376 0
 423 0206 0A23     		mov	r3, #10
 424              	.L28:
 425              	.LVL28:
 377:Generated_Source\PSoC4/EZI2C_EZI2C_INT.c ****                     }
 378:Generated_Source\PSoC4/EZI2C_EZI2C_INT.c **** 
 379:Generated_Source\PSoC4/EZI2C_EZI2C_INT.c ****                     /* Complete read or write transaction */
 380:Generated_Source\PSoC4/EZI2C_EZI2C_INT.c ****                     locStatus &= locIntrSlave;
 426              		.loc 1 380 0
 427 0208 2B40     		and	r3, r5
 428              	.LVL29:
 381:Generated_Source\PSoC4/EZI2C_EZI2C_INT.c ****                     EZI2C_EZI2C_UPDATE_LOC_STATUS(activeAddress, locStatus);
 382:Generated_Source\PSoC4/EZI2C_EZI2C_INT.c ****                     locStatus |= (uint32)  EZI2C_curStatus;
 429              		.loc 1 382 0
 430 020a 354A     		ldr	r2, .L39+20
 431 020c 1178     		ldrb	r1, [r2]
 432 020e 0B43     		orr	r3, r1
 433              	.LVL30:
 383:Generated_Source\PSoC4/EZI2C_EZI2C_INT.c ****                     locStatus &= (uint32) ~EZI2C_EZI2C_STATUS_BUSY;
 384:Generated_Source\PSoC4/EZI2C_EZI2C_INT.c ****                     EZI2C_curStatus = (uint8) locStatus;
 434              		.loc 1 384 0
 435 0210 2021     		mov	r1, #32
 436 0212 8B43     		bic	r3, r1
 437              	.LVL31:
 438 0214 1370     		strb	r3, [r2]
 385:Generated_Source\PSoC4/EZI2C_EZI2C_INT.c **** 
 386:Generated_Source\PSoC4/EZI2C_EZI2C_INT.c ****                     EZI2C_fsmState = EZI2C_EZI2C_FSM_IDLE;
 439              		.loc 1 386 0
 440 0216 0222     		mov	r2, #2
 441 0218 374B     		ldr	r3, .L39+44
 442 021a 1A70     		strb	r2, [r3]
 443              	.L27:
 387:Generated_Source\PSoC4/EZI2C_EZI2C_INT.c **** 
 388:Generated_Source\PSoC4/EZI2C_EZI2C_INT.c ****                     #if(EZI2C_SECONDARY_ADDRESS_ENABLE)
 389:Generated_Source\PSoC4/EZI2C_EZI2C_INT.c ****                     {
 390:Generated_Source\PSoC4/EZI2C_EZI2C_INT.c ****                         /* Store local index into global variable, before address phase */
 391:Generated_Source\PSoC4/EZI2C_EZI2C_INT.c ****                         EZI2C_EZI2C_SET_INDEX(activeAddress, locIndex);
 392:Generated_Source\PSoC4/EZI2C_EZI2C_INT.c ****                     }
 393:Generated_Source\PSoC4/EZI2C_EZI2C_INT.c ****                     #endif
 394:Generated_Source\PSoC4/EZI2C_EZI2C_INT.c ****                 }
 395:Generated_Source\PSoC4/EZI2C_EZI2C_INT.c **** 
 396:Generated_Source\PSoC4/EZI2C_EZI2C_INT.c ****                 /* INTR_SLAVE.I2C_ADDR_MATCH */
 397:Generated_Source\PSoC4/EZI2C_EZI2C_INT.c ****                 /* The matched address is received: the slave starts its operation.
 398:Generated_Source\PSoC4/EZI2C_EZI2C_INT.c ****                 * INTR_SLAVE_I2C_STOP updates the buffer index before the address phase for two add
 399:Generated_Source\PSoC4/EZI2C_EZI2C_INT.c ****                 * This is done to update buffer index correctly before the address phase changes it
 400:Generated_Source\PSoC4/EZI2C_EZI2C_INT.c ****                 */
 401:Generated_Source\PSoC4/EZI2C_EZI2C_INT.c ****                 if(0u != (locIntrSlave & EZI2C_INTR_SLAVE_I2C_ADDR_MATCH))
 444              		.loc 1 401 0
 445 021c 6B06     		lsl	r3, r5, #25
 446 021e 2ED5     		bpl	.L29
 402:Generated_Source\PSoC4/EZI2C_EZI2C_INT.c ****                 {
ARM GAS  C:\Users\Administrator\AppData\Local\Temp\ccijwwP1.s 			page 16


 403:Generated_Source\PSoC4/EZI2C_EZI2C_INT.c ****                     #if(EZI2C_SECONDARY_ADDRESS_ENABLE)
 404:Generated_Source\PSoC4/EZI2C_EZI2C_INT.c ****                     {
 405:Generated_Source\PSoC4/EZI2C_EZI2C_INT.c ****                         /* Read address byte from RX FIFO */
 406:Generated_Source\PSoC4/EZI2C_EZI2C_INT.c ****                         locByte = EZI2C_GET_I2C_7BIT_ADDRESS(EZI2C_RX_FIFO_RD_REG);
 407:Generated_Source\PSoC4/EZI2C_EZI2C_INT.c **** 
 408:Generated_Source\PSoC4/EZI2C_EZI2C_INT.c ****                         EZI2C_ClearRxInterruptSource(EZI2C_INTR_RX_NOT_EMPTY);
 409:Generated_Source\PSoC4/EZI2C_EZI2C_INT.c **** 
 410:Generated_Source\PSoC4/EZI2C_EZI2C_INT.c ****                         /* Check received address against device addresses */
 411:Generated_Source\PSoC4/EZI2C_EZI2C_INT.c ****                         if(EZI2C_addrBuf1 == locByte)
 412:Generated_Source\PSoC4/EZI2C_EZI2C_INT.c ****                         {
 413:Generated_Source\PSoC4/EZI2C_EZI2C_INT.c ****                             /* Set buffer exposed to primary slave address */
 414:Generated_Source\PSoC4/EZI2C_EZI2C_INT.c ****                             EZI2C_dataBuffer = EZI2C_dataBuffer1;
 415:Generated_Source\PSoC4/EZI2C_EZI2C_INT.c ****                             EZI2C_bufSizeBuf = EZI2C_bufSizeBuf1;
 416:Generated_Source\PSoC4/EZI2C_EZI2C_INT.c ****                             EZI2C_protectBuf = EZI2C_protectBuf1;
 417:Generated_Source\PSoC4/EZI2C_EZI2C_INT.c **** 
 418:Generated_Source\PSoC4/EZI2C_EZI2C_INT.c ****                             activeAddress = EZI2C_EZI2C_ACTIVE_ADDRESS1;
 419:Generated_Source\PSoC4/EZI2C_EZI2C_INT.c ****                         }
 420:Generated_Source\PSoC4/EZI2C_EZI2C_INT.c ****                         else if(EZI2C_addrBuf2 == locByte)
 421:Generated_Source\PSoC4/EZI2C_EZI2C_INT.c ****                         {
 422:Generated_Source\PSoC4/EZI2C_EZI2C_INT.c ****                             /* Set buffer exposed to secondary slave address */
 423:Generated_Source\PSoC4/EZI2C_EZI2C_INT.c ****                             EZI2C_dataBuffer = EZI2C_dataBuffer2;
 424:Generated_Source\PSoC4/EZI2C_EZI2C_INT.c ****                             EZI2C_bufSizeBuf = EZI2C_bufSizeBuf2;
 425:Generated_Source\PSoC4/EZI2C_EZI2C_INT.c ****                             EZI2C_protectBuf = EZI2C_protectBuf2;
 426:Generated_Source\PSoC4/EZI2C_EZI2C_INT.c **** 
 427:Generated_Source\PSoC4/EZI2C_EZI2C_INT.c ****                             activeAddress = EZI2C_EZI2C_ACTIVE_ADDRESS2;
 428:Generated_Source\PSoC4/EZI2C_EZI2C_INT.c ****                         }
 429:Generated_Source\PSoC4/EZI2C_EZI2C_INT.c ****                         else
 430:Generated_Source\PSoC4/EZI2C_EZI2C_INT.c ****                         {
 431:Generated_Source\PSoC4/EZI2C_EZI2C_INT.c ****                             /* Address does not match */
 432:Generated_Source\PSoC4/EZI2C_EZI2C_INT.c ****                             ackResponse = EZI2C_EZI2C_NACK_RECEIVED_ADDRESS;
 433:Generated_Source\PSoC4/EZI2C_EZI2C_INT.c ****                         }
 434:Generated_Source\PSoC4/EZI2C_EZI2C_INT.c ****                     }
 435:Generated_Source\PSoC4/EZI2C_EZI2C_INT.c ****                     #endif
 436:Generated_Source\PSoC4/EZI2C_EZI2C_INT.c **** 
 437:Generated_Source\PSoC4/EZI2C_EZI2C_INT.c ****                 #if(EZI2C_SECONDARY_ADDRESS_ENABLE_CONST)
 438:Generated_Source\PSoC4/EZI2C_EZI2C_INT.c ****                     if(EZI2C_EZI2C_NACK_RECEIVED_ADDRESS == ackResponse)
 439:Generated_Source\PSoC4/EZI2C_EZI2C_INT.c ****                     {
 440:Generated_Source\PSoC4/EZI2C_EZI2C_INT.c ****                         /* Clear interrupt sources before NACK address */
 441:Generated_Source\PSoC4/EZI2C_EZI2C_INT.c ****                         EZI2C_ClearI2CExtClkInterruptSource(EZI2C_INTR_I2C_EC_WAKE_UP);
 442:Generated_Source\PSoC4/EZI2C_EZI2C_INT.c ****                         EZI2C_ClearSlaveInterruptSource(EZI2C_INTR_SLAVE_ALL);
 443:Generated_Source\PSoC4/EZI2C_EZI2C_INT.c **** 
 444:Generated_Source\PSoC4/EZI2C_EZI2C_INT.c ****                     #if(!EZI2C_CY_SCBIP_V0)
 445:Generated_Source\PSoC4/EZI2C_EZI2C_INT.c ****                         /* Disable INTR_I2C_STOP to not trigger after matched address is NACKed. Ti
 446:Generated_Source\PSoC4/EZI2C_EZI2C_INT.c ****                         EZI2C_DISABLE_INTR_SLAVE(EZI2C_INTR_SLAVE_I2C_STOP);
 447:Generated_Source\PSoC4/EZI2C_EZI2C_INT.c ****                     #endif /* (!EZI2C_CY_SCBIP_V0) */
 448:Generated_Source\PSoC4/EZI2C_EZI2C_INT.c **** 
 449:Generated_Source\PSoC4/EZI2C_EZI2C_INT.c ****                         /* NACK address byte: it does not match neither primary nor secondary */
 450:Generated_Source\PSoC4/EZI2C_EZI2C_INT.c ****                         EZI2C_I2C_SLAVE_GENERATE_NACK;
 451:Generated_Source\PSoC4/EZI2C_EZI2C_INT.c ****                     }
 452:Generated_Source\PSoC4/EZI2C_EZI2C_INT.c ****                     else
 453:Generated_Source\PSoC4/EZI2C_EZI2C_INT.c ****                 #endif /* (EZI2C_SECONDARY_ADDRESS_ENABLE_CONST) */
 454:Generated_Source\PSoC4/EZI2C_EZI2C_INT.c ****                     {
 455:Generated_Source\PSoC4/EZI2C_EZI2C_INT.c **** 
 456:Generated_Source\PSoC4/EZI2C_EZI2C_INT.c ****                     #if(EZI2C_SCB_MODE_UNCONFIG_CONST_CFG)
 457:Generated_Source\PSoC4/EZI2C_EZI2C_INT.c ****                         if(!EZI2C_SECONDARY_ADDRESS_ENABLE)
 458:Generated_Source\PSoC4/EZI2C_EZI2C_INT.c ****                         {
 459:Generated_Source\PSoC4/EZI2C_EZI2C_INT.c ****                             /* Set buffer exposed to primary slave address */
ARM GAS  C:\Users\Administrator\AppData\Local\Temp\ccijwwP1.s 			page 17


 460:Generated_Source\PSoC4/EZI2C_EZI2C_INT.c ****                             EZI2C_dataBuffer = EZI2C_dataBuffer1;
 461:Generated_Source\PSoC4/EZI2C_EZI2C_INT.c ****                             EZI2C_bufSizeBuf = EZI2C_bufSizeBuf1;
 462:Generated_Source\PSoC4/EZI2C_EZI2C_INT.c ****                             EZI2C_protectBuf = EZI2C_protectBuf1;
 463:Generated_Source\PSoC4/EZI2C_EZI2C_INT.c **** 
 464:Generated_Source\PSoC4/EZI2C_EZI2C_INT.c ****                             activeAddress = EZI2C_EZI2C_ACTIVE_ADDRESS1;
 465:Generated_Source\PSoC4/EZI2C_EZI2C_INT.c ****                         }
 466:Generated_Source\PSoC4/EZI2C_EZI2C_INT.c ****                     #endif /* (EZI2C_SCB_MODE_UNCONFIG_CONST_CFG) */
 467:Generated_Source\PSoC4/EZI2C_EZI2C_INT.c **** 
 468:Generated_Source\PSoC4/EZI2C_EZI2C_INT.c ****                         /* Bus becomes busy after address is received */
 469:Generated_Source\PSoC4/EZI2C_EZI2C_INT.c ****                         EZI2C_curStatus |= (uint8) EZI2C_EZI2C_STATUS_BUSY;
 447              		.loc 1 469 0
 448 0220 2F4A     		ldr	r2, .L39+20
 449 0222 1178     		ldrb	r1, [r2]
 450 0224 2023     		mov	r3, #32
 451 0226 0B43     		orr	r3, r1
 452 0228 1370     		strb	r3, [r2]
 470:Generated_Source\PSoC4/EZI2C_EZI2C_INT.c **** 
 471:Generated_Source\PSoC4/EZI2C_EZI2C_INT.c ****                         /* Slave is read or written: set current offset */
 472:Generated_Source\PSoC4/EZI2C_EZI2C_INT.c ****                         locIndex = EZI2C_EZI2C_GET_OFFSET(activeAddress);
 453              		.loc 1 472 0
 454 022a 2F4B     		ldr	r3, .L39+28
 455 022c 1B88     		ldrh	r3, [r3]
 456 022e 1C1C     		mov	r4, r3
 457              	.LVL32:
 473:Generated_Source\PSoC4/EZI2C_EZI2C_INT.c **** 
 474:Generated_Source\PSoC4/EZI2C_EZI2C_INT.c ****                         /* Check transaction direction */
 475:Generated_Source\PSoC4/EZI2C_EZI2C_INT.c ****                         if(EZI2C_CHECK_I2C_STATUS(EZI2C_I2C_STATUS_S_READ))
 458              		.loc 1 475 0
 459 0230 3C4A     		ldr	r2, .L39+88
 460 0232 1268     		ldr	r2, [r2]
 461 0234 D206     		lsl	r2, r2, #27
 462 0236 12D5     		bpl	.L30
 476:Generated_Source\PSoC4/EZI2C_EZI2C_INT.c ****                         {
 477:Generated_Source\PSoC4/EZI2C_EZI2C_INT.c ****                             /* Calculate slave buffer size */
 478:Generated_Source\PSoC4/EZI2C_EZI2C_INT.c ****                             locBufSize = EZI2C_bufSizeBuf1 - (uint16) locIndex;
 463              		.loc 1 478 0
 464 0238 364A     		ldr	r2, .L39+72
 465 023a 1288     		ldrh	r2, [r2]
 466 023c D31A     		sub	r3, r2, r3
 467              	.LVL33:
 468 023e 324A     		ldr	r2, .L39+60
 469 0240 1380     		strh	r3, [r2]
 479:Generated_Source\PSoC4/EZI2C_EZI2C_INT.c **** 
 480:Generated_Source\PSoC4/EZI2C_EZI2C_INT.c ****                             /* Clear TX FIFO to start fill from offset */
 481:Generated_Source\PSoC4/EZI2C_EZI2C_INT.c ****                             EZI2C_CLEAR_TX_FIFO;
 470              		.loc 1 481 0
 471 0242 394B     		ldr	r3, .L39+92
 472 0244 1A68     		ldr	r2, [r3]
 473 0246 8021     		mov	r1, #128
 474 0248 4902     		lsl	r1, r1, #9
 475 024a 0A43     		orr	r2, r1
 476 024c 1A60     		str	r2, [r3]
 477 024e 1968     		ldr	r1, [r3]
 478 0250 364A     		ldr	r2, .L39+96
 479 0252 0A40     		and	r2, r1
 480 0254 1A60     		str	r2, [r3]
 482:Generated_Source\PSoC4/EZI2C_EZI2C_INT.c ****                             EZI2C_SetTxInterruptMode(EZI2C_INTR_TX_EMPTY);
ARM GAS  C:\Users\Administrator\AppData\Local\Temp\ccijwwP1.s 			page 18


 481              		.loc 1 482 0
 482 0256 1022     		mov	r2, #16
 483 0258 224B     		ldr	r3, .L39+24
 484 025a 1A60     		str	r2, [r3]
 485 025c 02E0     		b	.L31
 486              	.LVL34:
 487              	.L30:
 483:Generated_Source\PSoC4/EZI2C_EZI2C_INT.c ****                         }
 484:Generated_Source\PSoC4/EZI2C_EZI2C_INT.c ****                         else
 485:Generated_Source\PSoC4/EZI2C_EZI2C_INT.c ****                         {
 486:Generated_Source\PSoC4/EZI2C_EZI2C_INT.c ****                             /* Master writes: enable reception interrupt. The FSM state was set in 
 487:Generated_Source\PSoC4/EZI2C_EZI2C_INT.c ****                             EZI2C_SetRxInterruptMode(EZI2C_INTR_RX_NOT_EMPTY);
 488              		.loc 1 487 0
 489 025e 0422     		mov	r2, #4
 490 0260 244B     		ldr	r3, .L39+40
 491              	.LVL35:
 492 0262 1A60     		str	r2, [r3]
 493              	.L31:
 488:Generated_Source\PSoC4/EZI2C_EZI2C_INT.c ****                         }
 489:Generated_Source\PSoC4/EZI2C_EZI2C_INT.c **** 
 490:Generated_Source\PSoC4/EZI2C_EZI2C_INT.c ****                         /* Clear interrupt sources before ACK address */
 491:Generated_Source\PSoC4/EZI2C_EZI2C_INT.c ****                         EZI2C_ClearI2CExtClkInterruptSource(EZI2C_INTR_I2C_EC_WAKE_UP);
 494              		.loc 1 491 0
 495 0264 0122     		mov	r2, #1
 496 0266 324B     		ldr	r3, .L39+100
 497 0268 1A60     		str	r2, [r3]
 492:Generated_Source\PSoC4/EZI2C_EZI2C_INT.c ****                         EZI2C_ClearSlaveInterruptSource(EZI2C_INTR_SLAVE_ALL);
 498              		.loc 1 492 0
 499 026a 3249     		ldr	r1, .L39+104
 500 026c 194B     		ldr	r3, .L39+8
 501 026e 1960     		str	r1, [r3]
 493:Generated_Source\PSoC4/EZI2C_EZI2C_INT.c **** 
 494:Generated_Source\PSoC4/EZI2C_EZI2C_INT.c ****                     #if (!EZI2C_CY_SCBIP_V0)
 495:Generated_Source\PSoC4/EZI2C_EZI2C_INT.c ****                         /* Enable STOP to trigger after address match is ACKed. Ticket ID#156094 */
 496:Generated_Source\PSoC4/EZI2C_EZI2C_INT.c ****                         EZI2C_ENABLE_INTR_SLAVE(EZI2C_INTR_SLAVE_I2C_STOP);
 502              		.loc 1 496 0
 503 0270 3149     		ldr	r1, .L39+108
 504 0272 0868     		ldr	r0, [r1]
 505 0274 1023     		mov	r3, #16
 506 0276 0343     		orr	r3, r0
 507 0278 0B60     		str	r3, [r1]
 497:Generated_Source\PSoC4/EZI2C_EZI2C_INT.c ****                     #endif /* (!EZI2C_CY_SCBIP_V0) */
 498:Generated_Source\PSoC4/EZI2C_EZI2C_INT.c **** 
 499:Generated_Source\PSoC4/EZI2C_EZI2C_INT.c ****                         /* ACK the address byte */
 500:Generated_Source\PSoC4/EZI2C_EZI2C_INT.c ****                         EZI2C_I2C_SLAVE_GENERATE_ACK;
 508              		.loc 1 500 0
 509 027a 244B     		ldr	r3, .L39+64
 510 027c 1A60     		str	r2, [r3]
 511              	.L29:
 501:Generated_Source\PSoC4/EZI2C_EZI2C_INT.c ****                     }
 502:Generated_Source\PSoC4/EZI2C_EZI2C_INT.c ****                 }
 503:Generated_Source\PSoC4/EZI2C_EZI2C_INT.c **** 
 504:Generated_Source\PSoC4/EZI2C_EZI2C_INT.c ****                 /* Clear slave interrupt sources */
 505:Generated_Source\PSoC4/EZI2C_EZI2C_INT.c ****                 EZI2C_ClearSlaveInterruptSource(locIntrSlave);
 512              		.loc 1 505 0
 513 027e 154B     		ldr	r3, .L39+8
 514 0280 1D60     		str	r5, [r3]
ARM GAS  C:\Users\Administrator\AppData\Local\Temp\ccijwwP1.s 			page 19


 515              	.L26:
 506:Generated_Source\PSoC4/EZI2C_EZI2C_INT.c ****             }
 507:Generated_Source\PSoC4/EZI2C_EZI2C_INT.c **** 
 508:Generated_Source\PSoC4/EZI2C_EZI2C_INT.c ****             /* INTR_TX.EMPTY */
 509:Generated_Source\PSoC4/EZI2C_EZI2C_INT.c ****             /* Transmits data to the master: loads data into the TX FIFO. The 0xFF sends out if the
 510:Generated_Source\PSoC4/EZI2C_EZI2C_INT.c ****             * out the buffer. The address reception with a read flag clears the TX FIFO to be loade
 511:Generated_Source\PSoC4/EZI2C_EZI2C_INT.c ****             */
 512:Generated_Source\PSoC4/EZI2C_EZI2C_INT.c ****             if(0u != (EZI2C_GetInterruptCause() & EZI2C_INTR_CAUSE_TX))
 516              		.loc 1 512 0
 517 0282 154B     		ldr	r3, .L39+12
 518 0284 1B68     		ldr	r3, [r3]
 519 0286 5B07     		lsl	r3, r3, #29
 520 0288 1CD5     		bpl	.L6
 521              	.L34:
 513:Generated_Source\PSoC4/EZI2C_EZI2C_INT.c ****             {
 514:Generated_Source\PSoC4/EZI2C_EZI2C_INT.c ****                 /* Put data into TX FIFO until there is a room */
 515:Generated_Source\PSoC4/EZI2C_EZI2C_INT.c ****                 do
 516:Generated_Source\PSoC4/EZI2C_EZI2C_INT.c ****                 {
 517:Generated_Source\PSoC4/EZI2C_EZI2C_INT.c ****                     /* Check transmit buffer range: locBufSize calculates after address reception *
 518:Generated_Source\PSoC4/EZI2C_EZI2C_INT.c ****                     if(0u != locBufSize)
 522              		.loc 1 518 0
 523 028a 1F4B     		ldr	r3, .L39+60
 524 028c 1B88     		ldrh	r3, [r3]
 525 028e 002B     		cmp	r3, #0
 526 0290 0CD0     		beq	.L32
 519:Generated_Source\PSoC4/EZI2C_EZI2C_INT.c ****                     {
 520:Generated_Source\PSoC4/EZI2C_EZI2C_INT.c ****                         EZI2C_TX_FIFO_WR_REG = (uint32) EZI2C_dataBuffer1[locIndex];
 527              		.loc 1 520 0
 528 0292 1F4B     		ldr	r3, .L39+68
 529 0294 1B68     		ldr	r3, [r3]
 530 0296 1B19     		add	r3, r3, r4
 531 0298 1B78     		ldrb	r3, [r3]
 532 029a DBB2     		uxtb	r3, r3
 533 029c 274A     		ldr	r2, .L39+112
 534 029e 1360     		str	r3, [r2]
 521:Generated_Source\PSoC4/EZI2C_EZI2C_INT.c ****                         locIndex++;
 535              		.loc 1 521 0
 536 02a0 0134     		add	r4, r4, #1
 537              	.LVL36:
 522:Generated_Source\PSoC4/EZI2C_EZI2C_INT.c ****                         locBufSize--;
 538              		.loc 1 522 0
 539 02a2 194A     		ldr	r2, .L39+60
 540 02a4 1388     		ldrh	r3, [r2]
 541 02a6 013B     		sub	r3, r3, #1
 542 02a8 1380     		strh	r3, [r2]
 543 02aa 02E0     		b	.L33
 544              	.L32:
 523:Generated_Source\PSoC4/EZI2C_EZI2C_INT.c ****                     }
 524:Generated_Source\PSoC4/EZI2C_EZI2C_INT.c ****                     else
 525:Generated_Source\PSoC4/EZI2C_EZI2C_INT.c ****                     {
 526:Generated_Source\PSoC4/EZI2C_EZI2C_INT.c ****                         EZI2C_TX_FIFO_WR_REG = EZI2C_EZI2C_OVFL_RETURN;
 545              		.loc 1 526 0
 546 02ac FF22     		mov	r2, #255
 547 02ae 234B     		ldr	r3, .L39+112
 548 02b0 1A60     		str	r2, [r3]
 549              	.L33:
 527:Generated_Source\PSoC4/EZI2C_EZI2C_INT.c ****                     }
ARM GAS  C:\Users\Administrator\AppData\Local\Temp\ccijwwP1.s 			page 20


 528:Generated_Source\PSoC4/EZI2C_EZI2C_INT.c ****                 }
 529:Generated_Source\PSoC4/EZI2C_EZI2C_INT.c ****                 while(EZI2C_EZI2C_FIFO_SIZE != EZI2C_GET_TX_FIFO_ENTRIES);
 550              		.loc 1 529 0
 551 02b2 234B     		ldr	r3, .L39+116
 552 02b4 1B68     		ldr	r3, [r3]
 553 02b6 1F22     		mov	r2, #31
 554 02b8 1340     		and	r3, r2
 555 02ba 082B     		cmp	r3, #8
 556 02bc E5D1     		bne	.L34
 530:Generated_Source\PSoC4/EZI2C_EZI2C_INT.c **** 
 531:Generated_Source\PSoC4/EZI2C_EZI2C_INT.c ****                 EZI2C_ClearTxInterruptSource(EZI2C_INTR_TX_EMPTY);
 557              		.loc 1 531 0
 558 02be 0F3A     		sub	r2, r2, #15
 559 02c0 204B     		ldr	r3, .L39+120
 560 02c2 1A60     		str	r2, [r3]
 561              	.L6:
 532:Generated_Source\PSoC4/EZI2C_EZI2C_INT.c ****             }
 533:Generated_Source\PSoC4/EZI2C_EZI2C_INT.c ****         }
 534:Generated_Source\PSoC4/EZI2C_EZI2C_INT.c **** 
 535:Generated_Source\PSoC4/EZI2C_EZI2C_INT.c ****         /* Store local index copy into global variable */
 536:Generated_Source\PSoC4/EZI2C_EZI2C_INT.c ****         EZI2C_EZI2C_SET_INDEX(activeAddress, locIndex);
 562              		.loc 1 536 0
 563 02c4 024B     		ldr	r3, .L39+4
 564 02c6 1C80     		strh	r4, [r3]
 537:Generated_Source\PSoC4/EZI2C_EZI2C_INT.c **** 
 538:Generated_Source\PSoC4/EZI2C_EZI2C_INT.c ****     #ifdef EZI2C_EZI2C_STRETCH_ISR_EXIT_CALLBACK
 539:Generated_Source\PSoC4/EZI2C_EZI2C_INT.c ****         EZI2C_EZI2C_STRETCH_ISR_ExitCallback();
 540:Generated_Source\PSoC4/EZI2C_EZI2C_INT.c ****     #endif /* EZI2C_EZI2C_STRETCH_ISR_EXIT_CALLBACK */
 541:Generated_Source\PSoC4/EZI2C_EZI2C_INT.c **** 
 542:Generated_Source\PSoC4/EZI2C_EZI2C_INT.c ****     }
 565              		.loc 1 542 0
 566              		@ sp needed
 567              	.LVL37:
 568              	.LVL38:
 569              	.LVL39:
 570 02c8 70BD     		pop	{r4, r5, r6, pc}
 571              	.L40:
 572 02ca C046     		.align	2
 573              	.L39:
 574 02cc 00000000 		.word	EZI2C_customIntrHandler
 575 02d0 00000000 		.word	EZI2C_indexBuf1
 576 02d4 400F0840 		.word	1074270016
 577 02d8 000E0840 		.word	1074269696
 578 02dc 00000840 		.word	1074266112
 579 02e0 00000000 		.word	EZI2C_curStatus
 580 02e4 880F0840 		.word	1074270088
 581 02e8 00000000 		.word	EZI2C_offsetBuf1
 582 02ec 60000840 		.word	1074266208
 583 02f0 FF5FFFFF 		.word	-40961
 584 02f4 C80F0840 		.word	1074270152
 585 02f8 00000000 		.word	EZI2C_fsmState
 586 02fc 880E0840 		.word	1074269832
 587 0300 CC0F0840 		.word	1074270156
 588 0304 40030840 		.word	1074266944
 589 0308 00000000 		.word	.LANCHOR0
 590 030c 6C000840 		.word	1074266220
 591 0310 00000000 		.word	EZI2C_dataBuffer1
ARM GAS  C:\Users\Administrator\AppData\Local\Temp\ccijwwP1.s 			page 21


 592 0314 00000000 		.word	EZI2C_bufSizeBuf1
 593 0318 00000000 		.word	EZI2C_protectBuf1
 594 031c C00F0840 		.word	1074270144
 595 0320 08030840 		.word	1074266888
 596 0324 64000840 		.word	1074266212
 597 0328 04020840 		.word	1074266628
 598 032c FFFFFEFF 		.word	-65537
 599 0330 800E0840 		.word	1074269824
 600 0334 FF0F0000 		.word	4095
 601 0338 480F0840 		.word	1074270024
 602 033c 40020840 		.word	1074266688
 603 0340 08020840 		.word	1074266632
 604 0344 800F0840 		.word	1074270080
 605              		.cfi_endproc
 606              	.LFE1:
 607              		.size	EZI2C_EZI2C_STRETCH_ISR, .-EZI2C_EZI2C_STRETCH_ISR
 608              		.bss
 609              		.align	1
 610              		.set	.LANCHOR0,. + 0
 611              		.type	locBufSize.4781, %object
 612              		.size	locBufSize.4781, 2
 613              	locBufSize.4781:
 614 0000 0000     		.space	2
 615              		.text
 616              	.Letext0:
 617              		.file 2 "Generated_Source\\PSoC4/cytypes.h"
 618              		.file 3 "Generated_Source\\PSoC4\\EZI2C_PVT.h"
 619              		.file 4 "Generated_Source\\PSoC4\\EZI2C_EZI2C_PVT.h"
 620              		.file 5 "Generated_Source\\PSoC4/CyLib.h"