ARM GAS  C:\Users\Administrator\AppData\Local\Temp\cc5eEmVR.s 			page 1


   1              		.cpu cortex-m0plus
   2              		.fpu softvfp
   3              		.eabi_attribute 20, 1
   4              		.eabi_attribute 21, 1
   5              		.eabi_attribute 23, 3
   6              		.eabi_attribute 24, 1
   7              		.eabi_attribute 25, 1
   8              		.eabi_attribute 26, 1
   9              		.eabi_attribute 30, 1
  10              		.eabi_attribute 34, 0
  11              		.eabi_attribute 18, 4
  12              		.code	16
  13              		.file	"main.c"
  14              		.text
  15              	.Ltext0:
  16              		.cfi_sections	.debug_frame
  17              		.section	.text.make_data,"ax",%progbits
  18              		.align	2
  19              		.code	16
  20              		.thumb_func
  21              		.type	make_data, %function
  22              	make_data:
  23              	.LFB38:
  24              		.file 1 "main.c"
   1:main.c        **** /* ========================================
   2:main.c        ****  *
   3:main.c        ****  * Copyright YOUR COMPANY, THE YEAR
   4:main.c        ****  * All Rights Reserved
   5:main.c        ****  * UNPUBLISHED, LICENSED SOFTWARE.
   6:main.c        ****  *
   7:main.c        ****  * CONFIDENTIAL AND PROPRIETARY INFORMATION
   8:main.c        ****  * WHICH IS THE PROPERTY OF your company.
   9:main.c        ****  *
  10:main.c        ****  * ========================================
  11:main.c        **** */
  12:main.c        **** #include "project.h"
  13:main.c        **** #include "A7105_driver.h"
  14:main.c        **** #include "timing.h"
  15:main.c        **** #include "key.h"
  16:main.c        **** #include "simple_protocol.h"
  17:main.c        **** CY_ISR_PROTO(time_1ms_Interrupt);
  18:main.c        **** CY_ISR_PROTO(gio1_interrupt);
  19:main.c        **** typedef struct
  20:main.c        **** {
  21:main.c        ****     uint8 zhaoming : 1;
  22:main.c        ****     uint8 baidong  : 1;
  23:main.c        ****     uint8 qiang    : 1;
  24:main.c        ****     uint8 ruo      : 1;
  25:main.c        ****     uint8 zidong   : 1;
  26:main.c        ****     uint8 beep     : 1;
  27:main.c        **** }Combine_function;
  28:main.c        **** 
  29:main.c        **** typedef enum
  30:main.c        **** {
  31:main.c        ****     DAI_JI,
  32:main.c        ****     HUAN_QI,
  33:main.c        ****     JING_HUA,
ARM GAS  C:\Users\Administrator\AppData\Local\Temp\cc5eEmVR.s 			page 2


  34:main.c        ****     XIN_FENG,
  35:main.c        ****     FENG_NUAN,
  36:main.c        ****     FENG_NUAN_QIANG,
  37:main.c        ****     FENG_NUAN_RUO,
  38:main.c        ****     CHUI_FENG,
  39:main.c        ****     GAN_ZAO,
  40:main.c        ****     DENG_NUAN_RUO,
  41:main.c        ****     DENG_NUAN_QIANG,
  42:main.c        ****     XIN_FENG_FENG_NUAN,
  43:main.c        ****     ZHI_NENG_GAN_ZAO,
  44:main.c        ****     ZHI_NENG_MU_YU_1,
  45:main.c        ****     ZHI_NENG_MU_YU_2,
  46:main.c        ****     ZHI_NENG_JING_HUA,
  47:main.c        ****     CHUI_FENG_JING_HUA,
  48:main.c        ****     FUNCTION_NUMBERS,
  49:main.c        **** }Mutex_function_mode;
  50:main.c        **** 
  51:main.c        **** Mutex_function_mode mutex_function_mode = DAI_JI;
  52:main.c        **** 
  53:main.c        **** uint8 t = 0;
  54:main.c        **** uint8 send_buffer[24] = {0}; 
  55:main.c        **** uint8 send_show_buffer[16] = {0};
  56:main.c        **** uint8 receive_buffer[24] = {0};
  57:main.c        **** uint16 timer_count = 0;
  58:main.c        **** uint8 src_ID[4] = {1, 2, 3, 4};
  59:main.c        **** uint8 dest_ID[4] = {0};
  60:main.c        **** 
  61:main.c        **** #define TOUCH_TUNE_SWITCH
  62:main.c        **** #define SEND_TUNE_SWITCH
  63:main.c        **** #define DATA_BUFFER_LENGTH   20
  64:main.c        **** 
  65:main.c        **** 
  66:main.c        **** static void make_data(uint8 *buffer);
  67:main.c        **** 
  68:main.c        **** typedef enum
  69:main.c        **** {
  70:main.c        ****     READ_STATE,
  71:main.c        ****     CONTROL,
  72:main.c        ****     MATCH_CODE,
  73:main.c        ****     CONNECT_NET,
  74:main.c        ****     DISCONNECT_NET,
  75:main.c        **** }Command_type;
  76:main.c        **** 
  77:main.c        **** 
  78:main.c        **** Command_type *command_type = (Command_type *)&send_show_buffer[0];  //send_show_buffer[0];    è¿™ä½
  79:main.c        **** Combine_function *p_combine_function = (Combine_function *)&send_show_buffer[1];
  80:main.c        **** Mutex_function_mode *p_mutex_function = (Mutex_function_mode *)&send_show_buffer[2];
  81:main.c        **** 
  82:main.c        **** 
  83:main.c        **** uint8 *wendu = &send_show_buffer[3];        //æ¸©åº¦
  84:main.c        **** uint8 *dingshi = &send_show_buffer[4];        //æ—¶é—´
  85:main.c        **** uint8 *xiaoshi = &send_show_buffer[5];
  86:main.c        **** uint8 *fenzhong = &send_show_buffer[6];
  87:main.c        **** 
  88:main.c        **** uint8 time_feng_nuan = 90;    //60 - 120 
  89:main.c        **** uint8 time_huan_qi = 30;      //30 - 60
  90:main.c        **** uint8 time_xin_feng = 30;    //15 - 60
ARM GAS  C:\Users\Administrator\AppData\Local\Temp\cc5eEmVR.s 			page 3


  91:main.c        **** uint8 time_xin_feng_qu_nuan = 90;  //60 - 120
  92:main.c        **** uint8 time_zhi_jing = 120;   //90 - 150
  93:main.c        **** uint8 time_zhi_mu = 90;   //60 - 120
  94:main.c        **** 
  95:main.c        **** uint8 temp_xin_feng_qn = 35;   //30 - 40
  96:main.c        **** uint8 temp_fengnuan = 35;
  97:main.c        **** 
  98:main.c        **** typedef enum
  99:main.c        **** {
 100:main.c        ****     GUAN_JI,
 101:main.c        ****     ZHI_GAN,
 102:main.c        ****     ZHI_JING,
 103:main.c        ****     ZHI_MU,
 104:main.c        **** }ZHI_NENG_MODE;
 105:main.c        **** ZHI_NENG_MODE zhi_neng_mode = GUAN_JI;
 106:main.c        **** 
 107:main.c        **** typedef enum
 108:main.c        **** {
 109:main.c        ****     QAING,
 110:main.c        ****     RUO,
 111:main.c        ****     ZI_DONG,
 112:main.c        **** }QIANG_RUO_MODE;
 113:main.c        **** QIANG_RUO_MODE qiang_ruo_mode = QAING;
 114:main.c        **** Bool send_flag = FALSE;
 115:main.c        **** 
 116:main.c        **** 
 117:main.c        **** uint8 beij_s=0,beij_m=0,beij_h=12;
 118:main.c        **** static uint8 timer_10ms=0;
 119:main.c        **** 
 120:main.c        **** Bool lcd_on = FALSE;
 121:main.c        **** uint16 LCD_on_count = 0;
 122:main.c        **** 
 123:main.c        **** typedef enum
 124:main.c        **** {
 125:main.c        ****     WAIT_LONG_PRESS,
 126:main.c        ****     WAIT_SHORT_PRESS,
 127:main.c        ****     WAIT_MESSAGE,
 128:main.c        **** }Match_code_state;
 129:main.c        **** Match_code_state match_code_state = WAIT_LONG_PRESS;
 130:main.c        **** Bool match_code = FALSE;
 131:main.c        **** Timing_type match_code_wait;
 132:main.c        **** 
 133:main.c        **** static void beij_timer(void);
 134:main.c        **** static void key_deal(void);
 135:main.c        **** static void match_code_mode(void);
 136:main.c        **** 
 137:main.c        **** int main(void)
 138:main.c        **** {
 139:main.c        ****     /* Place your initialization/startup code here (e.g. MyInst_Start()) */
 140:main.c        ****     
 141:main.c        ****     CyGlobalIntEnable; /* Enable global interrupts. */
 142:main.c        ****     //A7105_init();
 143:main.c        ****     key_init();
 144:main.c        ****     GIO1_ISR_Disable();         //ç«¯å£é»˜è®¤ç”µå¹³æ˜¯é«˜ç”µå¹³ï¼Œéœ€è¦å¿½ç•¥è¿™ä¸ªä¸‹é™æ²¿
 145:main.c        ****     GIO1_Write(0);
 146:main.c        ****     GIO1_ISR_ClearPending();
 147:main.c        ****     GIO1_ISR_Enable();
ARM GAS  C:\Users\Administrator\AppData\Local\Temp\cc5eEmVR.s 			page 4


 148:main.c        ****     
 149:main.c        ****     
 150:main.c        **** #ifdef TOUCH_TUNE_SWITCH 
 151:main.c        ****     
 152:main.c        ****     EZI2C_Start(); /* Start EZI2C Component */
 153:main.c        ****     /*
 154:main.c        ****     * Set up communication and initialize data buffer to CapSense data structure
 155:main.c        ****     * to use Tuner application
 156:main.c        ****     */
 157:main.c        ****     EZI2C_EzI2CSetBuffer1(sizeof(key_touch_dsRam), sizeof(key_touch_dsRam),(uint8 *)&key_touch_dsRa
 158:main.c        **** 
 159:main.c        **** #endif
 160:main.c        ****     Timer_1_Start();  //å¼€å®šæ—¶å™¨
 161:main.c        ****     
 162:main.c        ****     time_1ms_ISR_StartEx(time_1ms_Interrupt);      //è‡ªå®šä¹‰ä¸­æ–­æœåŠ¡å‡½æ•°
 163:main.c        ****     GIO1_ISR_StartEx(gio1_interrupt);            //æŒ‡å®šå¤–éƒ¨ä¸­æ–­GIO1ä¸­æ–­å‡½æ•°
 164:main.c        ****     key_touch_Start(); /* Initialize Component */
 165:main.c        ****     key_touch_ScanAllWidgets(); /* Scan all widgets */
 166:main.c        **** #ifdef SEND_TUNE_SWITCH
 167:main.c        ****     simple_protocol_init();
 168:main.c        **** #endif
 169:main.c        ****     (*fenzhong) = beij_m;
 170:main.c        ****     (*xiaoshi) = beij_h;
 171:main.c        ****     for(;;)
 172:main.c        ****     {
 173:main.c        ****         /* Do this only when a scan is done */
 174:main.c        ****         if (timer_count >= 10)
 175:main.c        ****         {   
 176:main.c        ****             timer_count = 0;
 177:main.c        ****             timer_10ms++;
 178:main.c        ****             LCD_on_count++;
 179:main.c        ****             
 180:main.c        ****             if (LCD_on_count > 50000)
 181:main.c        ****                 LCD_on_count = 10000;
 182:main.c        ****             
 183:main.c        ****             if(key_touch_NOT_BUSY == key_touch_IsBusy()) 
 184:main.c        ****             {
 185:main.c        ****                 key_touch_ProcessAllWidgets(); 
 186:main.c        ****                 
 187:main.c        ****     #ifdef TOUCH_TUNE_SWITCH             
 188:main.c        ****                 key_touch_RunTuner(); 
 189:main.c        ****     #endif
 190:main.c        ****                 key_scan();      //è§¦æŽ§æŒ‰é”®çš„çŠ¶æ€å·²ç»æ›´æ–°
 191:main.c        ****                 
 192:main.c        ****                 key_touch_ScanAllWidgets(); 
 193:main.c        ****             }
 194:main.c        ****         }
 195:main.c        ****         beij_timer();
 196:main.c        ****         
 197:main.c        ****         if (LCD_on_count > 800)
 198:main.c        ****         {
 199:main.c        ****             if (lcd_on)
 200:main.c        ****             {
 201:main.c        ****                 lcd_on = FALSE;
 202:main.c        ****             }
 203:main.c        ****         }
 204:main.c        ****         key_deal();
ARM GAS  C:\Users\Administrator\AppData\Local\Temp\cc5eEmVR.s 			page 5


 205:main.c        ****         match_code_mode();
 206:main.c        ****         
 207:main.c        ****         
 208:main.c        ****         if (send_flag)
 209:main.c        ****         {
 210:main.c        ****             send_flag = FALSE;
 211:main.c        ****             make_data(send_show_buffer);
 212:main.c        ****             //simple_protocol_send(send_buffer, DATA_BUFFER_LENGTH); 
 213:main.c        ****             make_data(send_show_buffer);
 214:main.c        ****             //send_data_by_A7105(DATA_BUFFER_LENGTH, send_buffer);
 215:main.c        ****         }
 216:main.c        ****         #ifdef SEND_TUNE_SWITCH
 217:main.c        ****         simple_protocol_process();
 218:main.c        ****         #endif
 219:main.c        ****         
 220:main.c        ****         /* Place your application code here. */
 221:main.c        ****     }
 222:main.c        **** }
 223:main.c        **** 
 224:main.c        **** CY_ISR(time_1ms_Interrupt)
 225:main.c        **** {
 226:main.c        ****     timer_count++;
 227:main.c        ****     timing_count();
 228:main.c        ****     Timer_1_ClearInterrupt(Timer_1_INTR_MASK_TC);
 229:main.c        **** }
 230:main.c        **** 
 231:main.c        **** CY_ISR(gio1_interrupt)
 232:main.c        **** {
 233:main.c        ****     A7105_update_wtr(TRUE);
 234:main.c        ****     GIO1_ClearInterrupt();
 235:main.c        **** }
 236:main.c        **** 
 237:main.c        **** 
 238:main.c        **** static void make_data(uint8 *buffer)
 239:main.c        **** {
  25              		.loc 1 239 0
  26              		.cfi_startproc
  27              	.LVL0:
  28 0000 10B5     		push	{r4, lr}
  29              		.cfi_def_cfa_offset 8
  30              		.cfi_offset 4, -8
  31              		.cfi_offset 14, -4
  32              	.LVL1:
 240:main.c        ****     uint8 i, check_sum = 0;
 241:main.c        ****     
 242:main.c        ****     
 243:main.c        ****     send_buffer[0] = 0x5a;
  33              		.loc 1 243 0
  34 0002 184B     		ldr	r3, .L6
  35 0004 5A22     		mov	r2, #90
  36 0006 1A70     		strb	r2, [r3]
 244:main.c        ****     send_buffer[1] = 0x01;
  37              		.loc 1 244 0
  38 0008 593A     		sub	r2, r2, #89
  39 000a 5A70     		strb	r2, [r3, #1]
 245:main.c        ****     send_buffer[2] = src_ID[0];
  40              		.loc 1 245 0
ARM GAS  C:\Users\Administrator\AppData\Local\Temp\cc5eEmVR.s 			page 6


  41 000c 164A     		ldr	r2, .L6+4
  42 000e 1178     		ldrb	r1, [r2]
  43 0010 9970     		strb	r1, [r3, #2]
 246:main.c        ****     send_buffer[3] = src_ID[1];
  44              		.loc 1 246 0
  45 0012 5178     		ldrb	r1, [r2, #1]
  46 0014 D970     		strb	r1, [r3, #3]
 247:main.c        ****     send_buffer[4] = src_ID[2];
  47              		.loc 1 247 0
  48 0016 9178     		ldrb	r1, [r2, #2]
  49 0018 1971     		strb	r1, [r3, #4]
 248:main.c        ****     send_buffer[5] = src_ID[3];
  50              		.loc 1 248 0
  51 001a D278     		ldrb	r2, [r2, #3]
  52 001c 5A71     		strb	r2, [r3, #5]
 249:main.c        ****     send_buffer[6] = dest_ID[0];
  53              		.loc 1 249 0
  54 001e 1A7E     		ldrb	r2, [r3, #24]
  55 0020 9A71     		strb	r2, [r3, #6]
 250:main.c        ****     send_buffer[7] = dest_ID[1];
  56              		.loc 1 250 0
  57 0022 5A7E     		ldrb	r2, [r3, #25]
  58 0024 DA71     		strb	r2, [r3, #7]
 251:main.c        ****     send_buffer[8] = dest_ID[2];
  59              		.loc 1 251 0
  60 0026 9A7E     		ldrb	r2, [r3, #26]
  61 0028 1A72     		strb	r2, [r3, #8]
 252:main.c        ****     send_buffer[9] = dest_ID[3];
  62              		.loc 1 252 0
  63 002a DA7E     		ldrb	r2, [r3, #27]
  64 002c 5A72     		strb	r2, [r3, #9]
  65              	.LVL2:
 253:main.c        ****     
 254:main.c        ****     for (i = 0; i < DATA_BUFFER_LENGTH - 11; i++)
  66              		.loc 1 254 0
  67 002e 0023     		mov	r3, #0
  68 0030 06E0     		b	.L2
  69              	.LVL3:
  70              	.L3:
 255:main.c        ****         send_buffer[10 + i] = buffer[i];
  71              		.loc 1 255 0 discriminator 3
  72 0032 1A1C     		mov	r2, r3
  73 0034 0A32     		add	r2, r2, #10
  74 0036 C45C     		ldrb	r4, [r0, r3]
  75 0038 0A49     		ldr	r1, .L6
  76 003a 8C54     		strb	r4, [r1, r2]
 254:main.c        ****         send_buffer[10 + i] = buffer[i];
  77              		.loc 1 254 0 discriminator 3
  78 003c 0133     		add	r3, r3, #1
  79              	.LVL4:
  80 003e DBB2     		uxtb	r3, r3
  81              	.LVL5:
  82              	.L2:
 254:main.c        ****         send_buffer[10 + i] = buffer[i];
  83              		.loc 1 254 0 is_stmt 0 discriminator 1
  84 0040 082B     		cmp	r3, #8
  85 0042 F6D9     		bls	.L3
ARM GAS  C:\Users\Administrator\AppData\Local\Temp\cc5eEmVR.s 			page 7


  86 0044 0022     		mov	r2, #0
  87 0046 0023     		mov	r3, #0
  88              	.LVL6:
  89 0048 05E0     		b	.L4
  90              	.LVL7:
  91              	.L5:
 256:main.c        ****         
 257:main.c        ****     for (i = 0; i < DATA_BUFFER_LENGTH - 1; i++)
 258:main.c        ****         check_sum += send_buffer[i];
  92              		.loc 1 258 0 is_stmt 1 discriminator 3
  93 004a 0649     		ldr	r1, .L6
  94 004c C95C     		ldrb	r1, [r1, r3]
  95 004e 8A18     		add	r2, r1, r2
  96              	.LVL8:
  97 0050 D2B2     		uxtb	r2, r2
  98              	.LVL9:
 257:main.c        ****         check_sum += send_buffer[i];
  99              		.loc 1 257 0 discriminator 3
 100 0052 0133     		add	r3, r3, #1
 101              	.LVL10:
 102 0054 DBB2     		uxtb	r3, r3
 103              	.LVL11:
 104              	.L4:
 257:main.c        ****         check_sum += send_buffer[i];
 105              		.loc 1 257 0 is_stmt 0 discriminator 1
 106 0056 122B     		cmp	r3, #18
 107 0058 F7D9     		bls	.L5
 259:main.c        ****         
 260:main.c        ****     send_buffer[DATA_BUFFER_LENGTH - 1] = ~check_sum + 1;
 108              		.loc 1 260 0 is_stmt 1
 109 005a 5242     		neg	r2, r2
 110              	.LVL12:
 111 005c 014B     		ldr	r3, .L6
 112              	.LVL13:
 113 005e DA74     		strb	r2, [r3, #19]
 261:main.c        **** }
 114              		.loc 1 261 0
 115              		@ sp needed
 116 0060 10BD     		pop	{r4, pc}
 117              	.L7:
 118 0062 C046     		.align	2
 119              	.L6:
 120 0064 00000000 		.word	.LANCHOR0
 121 0068 00000000 		.word	.LANCHOR1
 122              		.cfi_endproc
 123              	.LFE38:
 124              		.size	make_data, .-make_data
 125              		.section	.text.ID_check_ok,"ax",%progbits
 126              		.align	2
 127              		.code	16
 128              		.thumb_func
 129              		.type	ID_check_ok, %function
 130              	ID_check_ok:
 131              	.LFB42:
 262:main.c        **** 
 263:main.c        **** static void key_deal(void)
 264:main.c        **** {
ARM GAS  C:\Users\Administrator\AppData\Local\Temp\cc5eEmVR.s 			page 8


 265:main.c        ****     Key_index i;
 266:main.c        ****     for (i = 0; i < KEY_NUM; i++)
 267:main.c        ****     {
 268:main.c        ****         if (key_is_short_pressed(i))
 269:main.c        ****         {
 270:main.c        ****             /*
 271:main.c        ****             LCD_on_count = 0;
 272:main.c        ****             if (lcd_on == FALSE)
 273:main.c        ****             {
 274:main.c        ****                 *command_type = READ_STATE;
 275:main.c        ****                 lcd_on = TRUE;
 276:main.c        ****             }
 277:main.c        ****             else
 278:main.c        ****             {
 279:main.c        ****                
 280:main.c        ****             }*/
 281:main.c        ****             *command_type = CONTROL; 
 282:main.c        ****             switch(i)
 283:main.c        ****             {
 284:main.c        ****                 case KEY_DIAN_YUAN: 
 285:main.c        ****                     if (*p_mutex_function == DAI_JI)
 286:main.c        ****                         *p_mutex_function = DAI_JI;
 287:main.c        ****                     else
 288:main.c        ****                         *p_mutex_function = DAI_JI;
 289:main.c        **** 
 290:main.c        ****                     send_flag = TRUE;
 291:main.c        ****                     break;
 292:main.c        ****                 case KEY_FENG_NUAN: 
 293:main.c        ****                     if (*p_mutex_function == FENG_NUAN)
 294:main.c        ****                         *p_mutex_function = DAI_JI;
 295:main.c        ****                     else
 296:main.c        ****                     {
 297:main.c        ****                         *p_mutex_function = FENG_NUAN;
 298:main.c        ****                         p_combine_function->ruo = 0;
 299:main.c        ****                         p_combine_function->zidong = 0;
 300:main.c        ****                         p_combine_function->qiang = 1;
 301:main.c        ****                     }
 302:main.c        ****                     
 303:main.c        ****                     (*wendu) = 35;        //æ¸©åº¦
 304:main.c        ****                     (*dingshi) = 90;        //æ—¶é—´
 305:main.c        ****                     send_flag = TRUE;
 306:main.c        ****                     break;
 307:main.c        ****                 case KEY_WENDU_JIA: 
 308:main.c        ****                     if(*p_mutex_function == FENG_NUAN)
 309:main.c        ****                     {
 310:main.c        ****                         if ((*wendu) < 40)
 311:main.c        ****                             (*wendu)++;
 312:main.c        ****                     }
 313:main.c        ****                     if(*p_mutex_function == XIN_FENG_FENG_NUAN)
 314:main.c        ****                     {
 315:main.c        ****                         if ((*wendu) < 40)
 316:main.c        ****                             (*wendu)++;
 317:main.c        ****                     }
 318:main.c        ****                     send_flag = TRUE;
 319:main.c        ****                     break;
 320:main.c        ****                 case KEY_WENDU_JIAN: 
 321:main.c        ****                     if(*p_mutex_function == FENG_NUAN)
ARM GAS  C:\Users\Administrator\AppData\Local\Temp\cc5eEmVR.s 			page 9


 322:main.c        ****                     {
 323:main.c        ****                         if ((*wendu) > 30)
 324:main.c        ****                             (*wendu)--;
 325:main.c        ****                     }
 326:main.c        ****                     if(*p_mutex_function == XIN_FENG_FENG_NUAN)
 327:main.c        ****                     {
 328:main.c        ****                         if ((*wendu) > 30)
 329:main.c        ****                             (*wendu)--;
 330:main.c        ****                     }
 331:main.c        ****                     send_flag = TRUE;
 332:main.c        ****                     break;
 333:main.c        ****                 case KEY_XIN_FENG: 
 334:main.c        ****                     if (*p_mutex_function == XIN_FENG)
 335:main.c        ****                         *p_mutex_function = DAI_JI;
 336:main.c        ****                     else
 337:main.c        ****                     {
 338:main.c        ****                         *p_mutex_function = XIN_FENG;
 339:main.c        ****                         p_combine_function->qiang = 1;
 340:main.c        ****                         p_combine_function->ruo = 0;
 341:main.c        ****                         p_combine_function->zidong = 0;
 342:main.c        ****                     }
 343:main.c        ****                     (*wendu) = 0;        //æ¸©åº¦
 344:main.c        ****                     (*dingshi) = 30;        //æ—¶é—´
 345:main.c        ****                     send_flag = TRUE;
 346:main.c        ****                     break;
 347:main.c        ****                 case KEY_QING_RUO:
 348:main.c        ****                     if ((*p_mutex_function != HUAN_QI)
 349:main.c        ****                     &&(*p_mutex_function != XIN_FENG)
 350:main.c        ****                     &&(*p_mutex_function != FENG_NUAN)
 351:main.c        ****                     &&(*p_mutex_function != XIN_FENG_FENG_NUAN))
 352:main.c        ****                     {break;}
 353:main.c        **** 
 354:main.c        ****                     p_combine_function->qiang = 0;
 355:main.c        ****                     p_combine_function->ruo = 0;
 356:main.c        ****                     p_combine_function->zidong = 0;
 357:main.c        ****                     switch(qiang_ruo_mode)
 358:main.c        ****                     {
 359:main.c        ****                         case QAING: 
 360:main.c        ****                             qiang_ruo_mode = RUO;
 361:main.c        ****                             p_combine_function->ruo = 1;
 362:main.c        ****                             break;
 363:main.c        ****                         case RUO:
 364:main.c        ****                             qiang_ruo_mode = ZI_DONG;
 365:main.c        ****                             p_combine_function->zidong = 1;
 366:main.c        ****                             break;
 367:main.c        ****                         case ZI_DONG: 
 368:main.c        ****                             p_combine_function->qiang = 1;
 369:main.c        ****                             qiang_ruo_mode = QAING;
 370:main.c        ****                             break;
 371:main.c        ****                     }
 372:main.c        ****                     send_flag = TRUE;
 373:main.c        ****                     break;
 374:main.c        ****                 case KEY_HUAN_QI: 
 375:main.c        ****                     if (*p_mutex_function == HUAN_QI)
 376:main.c        ****                         *p_mutex_function = DAI_JI;
 377:main.c        ****                     else
 378:main.c        ****                     {
ARM GAS  C:\Users\Administrator\AppData\Local\Temp\cc5eEmVR.s 			page 10


 379:main.c        ****                         *p_mutex_function = HUAN_QI;
 380:main.c        ****                         p_combine_function->qiang = 1;
 381:main.c        ****                         p_combine_function->ruo = 0;
 382:main.c        ****                         p_combine_function->zidong = 0;
 383:main.c        ****                     }
 384:main.c        ****                     p_combine_function->baidong = 0;
 385:main.c        ****                     (*wendu) = 0;        //æ¸©åº¦
 386:main.c        ****                     (*dingshi) = 30;        //æ—¶é—´
 387:main.c        ****                     send_flag = TRUE;
 388:main.c        ****                     break;
 389:main.c        ****                 case KEY_XIN_FENG_QU_NUAN: 
 390:main.c        ****                     if (*p_mutex_function == XIN_FENG_FENG_NUAN)
 391:main.c        ****                         *p_mutex_function = DAI_JI;
 392:main.c        ****                     else
 393:main.c        ****                     {
 394:main.c        ****                         *p_mutex_function = XIN_FENG_FENG_NUAN;
 395:main.c        ****                         p_combine_function->qiang = 1;
 396:main.c        ****                         p_combine_function->ruo = 0;
 397:main.c        ****                         p_combine_function->zidong = 0;
 398:main.c        ****                     }
 399:main.c        ****                     (*wendu) = 35;        //æ¸©åº¦
 400:main.c        ****                     (*dingshi) = 90;        //æ—¶é—´
 401:main.c        ****                     send_flag = TRUE;
 402:main.c        ****                     break;
 403:main.c        ****                 case KEY_DINGSHI_JIA: 
 404:main.c        ****                     if (*p_mutex_function == FENG_NUAN)
 405:main.c        ****                     {
 406:main.c        ****                         if ((*dingshi) < 120)
 407:main.c        ****                             (*dingshi) += 15;
 408:main.c        ****                     }
 409:main.c        ****                     if (*p_mutex_function == XIN_FENG)
 410:main.c        ****                     {
 411:main.c        ****                         if ((*dingshi) < 60)
 412:main.c        ****                             (*dingshi) += 15;
 413:main.c        ****                     }
 414:main.c        ****                     if (*p_mutex_function == HUAN_QI)
 415:main.c        ****                     {
 416:main.c        ****                         if ((*dingshi) < 60)
 417:main.c        ****                             (*dingshi) += 15;
 418:main.c        ****                     }
 419:main.c        ****                     if (*p_mutex_function == XIN_FENG_FENG_NUAN)
 420:main.c        ****                     {
 421:main.c        ****                         if ((*dingshi) < 120)
 422:main.c        ****                             (*dingshi) += 15;
 423:main.c        ****                     }
 424:main.c        ****                     if (*p_mutex_function == ZHI_NENG_JING_HUA)
 425:main.c        ****                     {
 426:main.c        ****                         if ((*dingshi) < 150)
 427:main.c        ****                             (*dingshi) += 15;
 428:main.c        ****                     }
 429:main.c        ****                     if (*p_mutex_function == ZHI_NENG_MU_YU_1)
 430:main.c        ****                     {
 431:main.c        ****                         if ((*dingshi) < 120)
 432:main.c        ****                             (*dingshi) += 15;
 433:main.c        ****                     }
 434:main.c        ****                     send_flag = TRUE;
 435:main.c        ****                     break;
ARM GAS  C:\Users\Administrator\AppData\Local\Temp\cc5eEmVR.s 			page 11


 436:main.c        ****                 case KEY_DINGSHI_JIAN: 
 437:main.c        ****                     if (*p_mutex_function == FENG_NUAN)
 438:main.c        ****                     {
 439:main.c        ****                         if ((*dingshi) > 60)
 440:main.c        ****                             (*dingshi) -= 15;
 441:main.c        ****                     }
 442:main.c        ****                     if (*p_mutex_function == XIN_FENG)
 443:main.c        ****                     {
 444:main.c        ****                         if ((*dingshi) > 15)
 445:main.c        ****                             (*dingshi) -= 15;
 446:main.c        ****                     }
 447:main.c        ****                     if (*p_mutex_function == HUAN_QI)
 448:main.c        ****                     {
 449:main.c        ****                         if ((*dingshi) > 30)
 450:main.c        ****                             (*dingshi) -= 15;
 451:main.c        ****                     }
 452:main.c        ****                     if (*p_mutex_function == XIN_FENG_FENG_NUAN)
 453:main.c        ****                     {
 454:main.c        ****                         if ((*dingshi) > 60)
 455:main.c        ****                             (*dingshi) -= 15;
 456:main.c        ****                     }
 457:main.c        ****                     if (*p_mutex_function == ZHI_NENG_JING_HUA)
 458:main.c        ****                     {
 459:main.c        ****                         if ((*dingshi) > 90)
 460:main.c        ****                             (*dingshi) -= 15;
 461:main.c        ****                     }
 462:main.c        ****                     if (*p_mutex_function == ZHI_NENG_MU_YU_1)
 463:main.c        ****                     {
 464:main.c        ****                         if ((*dingshi) > 60)
 465:main.c        ****                             (*dingshi) -= 15;
 466:main.c        ****                     }
 467:main.c        ****                     send_flag = TRUE;
 468:main.c        ****                     break;
 469:main.c        ****                 case KEY_BAI_DONG: 
 470:main.c        ****                     if ((*p_mutex_function != XIN_FENG)
 471:main.c        ****                     &&(*p_mutex_function != FENG_NUAN)
 472:main.c        ****                     &&(*p_mutex_function != XIN_FENG_FENG_NUAN))
 473:main.c        ****                     {break;}
 474:main.c        ****                     if (p_combine_function->baidong)
 475:main.c        ****                         p_combine_function->baidong = 0;
 476:main.c        ****                     else
 477:main.c        ****                         p_combine_function->baidong = 1;
 478:main.c        ****                     send_flag = TRUE;
 479:main.c        ****                     break;
 480:main.c        ****                 case KEY_ZHI_NENG: 
 481:main.c        ****                     if ((*p_mutex_function == DAI_JI) 
 482:main.c        ****                     ||(*p_mutex_function == ZHI_NENG_GAN_ZAO)
 483:main.c        ****                     ||(*p_mutex_function == ZHI_NENG_JING_HUA)
 484:main.c        ****                     ||(*p_mutex_function == ZHI_NENG_MU_YU_1))
 485:main.c        ****                     {
 486:main.c        ****                         switch(zhi_neng_mode)
 487:main.c        ****                         {
 488:main.c        ****                             case GUAN_JI: 
 489:main.c        ****                                 zhi_neng_mode = ZHI_GAN;
 490:main.c        ****                                 *p_mutex_function = ZHI_NENG_GAN_ZAO;
 491:main.c        ****                                 break;
 492:main.c        ****                             case ZHI_GAN: 
ARM GAS  C:\Users\Administrator\AppData\Local\Temp\cc5eEmVR.s 			page 12


 493:main.c        ****                                 zhi_neng_mode = ZHI_JING;
 494:main.c        ****                                 (*wendu) = 0;        //æ¸©åº¦
 495:main.c        ****                                 (*dingshi) = 120;        //æ—¶é—´
 496:main.c        ****                                 *p_mutex_function = ZHI_NENG_JING_HUA;
 497:main.c        ****                                 break;
 498:main.c        ****                             case ZHI_JING:
 499:main.c        ****                                 zhi_neng_mode = ZHI_MU;
 500:main.c        ****                                 (*wendu) = 0;        //æ¸©åº¦
 501:main.c        ****                                 (*dingshi) = 90;        //æ—¶é—´
 502:main.c        ****                                 *p_mutex_function = ZHI_NENG_MU_YU_1;
 503:main.c        ****                                 break;
 504:main.c        ****                             case ZHI_MU: 
 505:main.c        ****                                 zhi_neng_mode = GUAN_JI;
 506:main.c        ****                                 *p_mutex_function = DAI_JI;
 507:main.c        ****                                 break;
 508:main.c        ****                         }
 509:main.c        ****                     }
 510:main.c        ****                     else
 511:main.c        ****                     {
 512:main.c        ****                         *p_mutex_function = DAI_JI;
 513:main.c        ****                         zhi_neng_mode = GUAN_JI;
 514:main.c        ****                     }
 515:main.c        ****                     send_flag = TRUE;
 516:main.c        ****                     break;
 517:main.c        ****                 default : break;
 518:main.c        ****             }
 519:main.c        ****         }
 520:main.c        ****         
 521:main.c        ****         if (key_is_long_pressed(KEY_DIAN_YUAN))
 522:main.c        ****         {
 523:main.c        ****             match_code = TRUE;
 524:main.c        ****             *command_type = MATCH_CODE;
 525:main.c        ****             send_flag = TRUE;
 526:main.c        ****         }
 527:main.c        **** 
 528:main.c        ****         if (key_is_long_pressed(KEY_WENDU_JIA))
 529:main.c        ****         {
 530:main.c        ****             *command_type = CONNECT_NET;
 531:main.c        ****             send_flag = TRUE;
 532:main.c        ****         }
 533:main.c        ****         if (key_is_long_pressed(KEY_WENDU_JIAN))
 534:main.c        ****         {
 535:main.c        ****             *command_type = DISCONNECT_NET;
 536:main.c        ****             send_flag = TRUE;
 537:main.c        ****         }
 538:main.c        ****         
 539:main.c        ****         if (*p_mutex_function == DAI_JI)
 540:main.c        ****         {
 541:main.c        ****             p_combine_function->qiang = 0;
 542:main.c        ****             p_combine_function->ruo = 0;
 543:main.c        ****             p_combine_function->zidong = 0;
 544:main.c        ****             p_combine_function->baidong = 0;
 545:main.c        ****             qiang_ruo_mode = QAING;
 546:main.c        ****         }
 547:main.c        ****     }
 548:main.c        **** }
 549:main.c        **** static void beij_timer(void)
ARM GAS  C:\Users\Administrator\AppData\Local\Temp\cc5eEmVR.s 			page 13


 550:main.c        **** {//100msè°ƒç”¨
 551:main.c        ****     if(timer_10ms>=100){
 552:main.c        ****         timer_10ms=0;
 553:main.c        ****         beij_s++;
 554:main.c        ****         if(beij_s>=60){
 555:main.c        ****             beij_s=0;
 556:main.c        ****             beij_m++;
 557:main.c        ****             
 558:main.c        ****             (*fenzhong) = beij_m;
 559:main.c        ****             make_data(send_show_buffer);
 560:main.c        ****             send_data_by_A7105(16, send_buffer);
 561:main.c        ****             if(beij_m>=60){
 562:main.c        ****                 beij_h++;
 563:main.c        ****                 if(beij_h>=24){
 564:main.c        ****                     beij_h=0;
 565:main.c        ****                     (*xiaoshi) = beij_h;
 566:main.c        ****                     make_data(send_show_buffer);
 567:main.c        ****                     send_data_by_A7105(16, send_buffer);
 568:main.c        ****                 }
 569:main.c        ****             }
 570:main.c        ****         }
 571:main.c        ****     }
 572:main.c        **** }
 573:main.c        **** 
 574:main.c        **** static Bool ID_check_ok(uint8 * id1, uint8 * id2);
 575:main.c        **** 
 576:main.c        **** static void match_code_mode(void)
 577:main.c        **** {
 578:main.c        ****  
 579:main.c        ****  
 580:main.c        ****     switch(match_code_state)
 581:main.c        ****     {
 582:main.c        ****         case WAIT_LONG_PRESS: 
 583:main.c        ****             if (match_code)
 584:main.c        ****             {
 585:main.c        ****                 match_code = FALSE;
 586:main.c        ****                 match_code_state = WAIT_SHORT_PRESS;
 587:main.c        ****                 timing_set_counts(&match_code_wait, 3000);
 588:main.c        ****             }
 589:main.c        ****             break;
 590:main.c        ****         case WAIT_SHORT_PRESS: 
 591:main.c        ****             if (timing_count_end(&match_code_wait))
 592:main.c        ****                 match_code_state = WAIT_SHORT_PRESS;
 593:main.c        ****             match_code_state = WAIT_MESSAGE;
 594:main.c        ****             //if(key_is_short_pressed(KEY_QING_RUO)) {}
 595:main.c        ****             break;
 596:main.c        ****         case WAIT_MESSAGE:
 597:main.c        ****             if (timing_count_end(&match_code_wait))
 598:main.c        ****                 match_code_state = WAIT_SHORT_PRESS;
 599:main.c        ****             if (receive_data_by_A7105(16, receive_buffer))
 600:main.c        ****             {
 601:main.c        ****                 if (ID_check_ok(&receive_buffer[6], src_ID))
 602:main.c        ****                 {
 603:main.c        ****                     dest_ID[0] = receive_buffer[2];
 604:main.c        ****                     dest_ID[1] = receive_buffer[3];
 605:main.c        ****                     dest_ID[2] = receive_buffer[4];
 606:main.c        ****                     dest_ID[3] = receive_buffer[5];
ARM GAS  C:\Users\Administrator\AppData\Local\Temp\cc5eEmVR.s 			page 14


 607:main.c        ****                 }
 608:main.c        ****                 match_code_state = WAIT_SHORT_PRESS;
 609:main.c        ****             }
 610:main.c        ****             break;
 611:main.c        ****     }
 612:main.c        **** }
 613:main.c        **** 
 614:main.c        **** static Bool ID_check_ok(uint8 * id1, uint8 * id2)
 615:main.c        **** {
 132              		.loc 1 615 0
 133              		.cfi_startproc
 134              	.LVL14:
 135 0000 10B5     		push	{r4, lr}
 136              		.cfi_def_cfa_offset 8
 137              		.cfi_offset 4, -8
 138              		.cfi_offset 14, -4
 139              	.LVL15:
 616:main.c        ****     uint8 i;
 617:main.c        ****     
 618:main.c        ****     for (i = 0; i < 4; i++)
 140              		.loc 1 618 0
 141 0002 0023     		mov	r3, #0
 142 0004 05E0     		b	.L9
 143              	.LVL16:
 144              	.L11:
 619:main.c        ****     {
 620:main.c        ****         if (id1[i] != id2[i])
 145              		.loc 1 620 0
 146 0006 C45C     		ldrb	r4, [r0, r3]
 147 0008 CA5C     		ldrb	r2, [r1, r3]
 148 000a 9442     		cmp	r4, r2
 149 000c 05D1     		bne	.L12
 618:main.c        ****     {
 150              		.loc 1 618 0 discriminator 2
 151 000e 0133     		add	r3, r3, #1
 152              	.LVL17:
 153 0010 DBB2     		uxtb	r3, r3
 154              	.LVL18:
 155              	.L9:
 618:main.c        ****     {
 156              		.loc 1 618 0 is_stmt 0 discriminator 1
 157 0012 032B     		cmp	r3, #3
 158 0014 F7D9     		bls	.L11
 621:main.c        ****             return FALSE;
 622:main.c        ****     }
 623:main.c        ****     return TRUE;
 159              		.loc 1 623 0 is_stmt 1
 160 0016 0120     		mov	r0, #1
 161              	.LVL19:
 162 0018 00E0     		b	.L10
 163              	.LVL20:
 164              	.L12:
 621:main.c        ****             return FALSE;
 165              		.loc 1 621 0
 166 001a 0020     		mov	r0, #0
 167              	.LVL21:
 168              	.L10:
ARM GAS  C:\Users\Administrator\AppData\Local\Temp\cc5eEmVR.s 			page 15


 624:main.c        **** }
 169              		.loc 1 624 0
 170              		@ sp needed
 171 001c 10BD     		pop	{r4, pc}
 172              		.cfi_endproc
 173              	.LFE42:
 174              		.size	ID_check_ok, .-ID_check_ok
 175 001e C046     		.section	.text.beij_timer,"ax",%progbits
 176              		.align	2
 177              		.code	16
 178              		.thumb_func
 179              		.type	beij_timer, %function
 180              	beij_timer:
 181              	.LFB40:
 550:main.c        ****     if(timer_10ms>=100){
 182              		.loc 1 550 0
 183              		.cfi_startproc
 184 0000 10B5     		push	{r4, lr}
 185              		.cfi_def_cfa_offset 8
 186              		.cfi_offset 4, -8
 187              		.cfi_offset 14, -4
 551:main.c        ****         timer_10ms=0;
 188              		.loc 1 551 0
 189 0002 1B4B     		ldr	r3, .L15
 190 0004 1B7F     		ldrb	r3, [r3, #28]
 191 0006 632B     		cmp	r3, #99
 192 0008 31D9     		bls	.L13
 552:main.c        ****         beij_s++;
 193              		.loc 1 552 0
 194 000a 194A     		ldr	r2, .L15
 195 000c 0023     		mov	r3, #0
 196 000e 1377     		strb	r3, [r2, #28]
 553:main.c        ****         if(beij_s>=60){
 197              		.loc 1 553 0
 198 0010 537F     		ldrb	r3, [r2, #29]
 199 0012 0133     		add	r3, r3, #1
 200 0014 DBB2     		uxtb	r3, r3
 201 0016 5377     		strb	r3, [r2, #29]
 554:main.c        ****             beij_s=0;
 202              		.loc 1 554 0
 203 0018 3B2B     		cmp	r3, #59
 204 001a 28D9     		bls	.L13
 555:main.c        ****             beij_m++;
 205              		.loc 1 555 0
 206 001c 141C     		mov	r4, r2
 207 001e 0023     		mov	r3, #0
 208 0020 5377     		strb	r3, [r2, #29]
 556:main.c        ****             
 209              		.loc 1 556 0
 210 0022 937F     		ldrb	r3, [r2, #30]
 211 0024 0133     		add	r3, r3, #1
 212 0026 DBB2     		uxtb	r3, r3
 213 0028 9377     		strb	r3, [r2, #30]
 558:main.c        ****             make_data(send_show_buffer);
 214              		.loc 1 558 0
 215 002a 124A     		ldr	r2, .L15+4
 216 002c 5268     		ldr	r2, [r2, #4]
ARM GAS  C:\Users\Administrator\AppData\Local\Temp\cc5eEmVR.s 			page 16


 217 002e 1370     		strb	r3, [r2]
 559:main.c        ****             send_data_by_A7105(16, send_buffer);
 218              		.loc 1 559 0
 219 0030 201C     		mov	r0, r4
 220 0032 2030     		add	r0, r0, #32
 221 0034 FFF7FEFF 		bl	make_data
 222              	.LVL22:
 560:main.c        ****             if(beij_m>=60){
 223              		.loc 1 560 0
 224 0038 1020     		mov	r0, #16
 225 003a 211C     		mov	r1, r4
 226 003c FFF7FEFF 		bl	send_data_by_A7105
 227              	.LVL23:
 561:main.c        ****                 beij_h++;
 228              		.loc 1 561 0
 229 0040 A37F     		ldrb	r3, [r4, #30]
 230 0042 3B2B     		cmp	r3, #59
 231 0044 13D9     		bls	.L13
 562:main.c        ****                 if(beij_h>=24){
 232              		.loc 1 562 0
 233 0046 0B4A     		ldr	r2, .L15+4
 234 0048 137A     		ldrb	r3, [r2, #8]
 235 004a 0133     		add	r3, r3, #1
 236 004c DBB2     		uxtb	r3, r3
 237 004e 1372     		strb	r3, [r2, #8]
 563:main.c        ****                     beij_h=0;
 238              		.loc 1 563 0
 239 0050 172B     		cmp	r3, #23
 240 0052 0CD9     		bls	.L13
 564:main.c        ****                     (*xiaoshi) = beij_h;
 241              		.loc 1 564 0
 242 0054 0023     		mov	r3, #0
 243 0056 1372     		strb	r3, [r2, #8]
 565:main.c        ****                     make_data(send_show_buffer);
 244              		.loc 1 565 0
 245 0058 D268     		ldr	r2, [r2, #12]
 246 005a 1370     		strb	r3, [r2]
 566:main.c        ****                     send_data_by_A7105(16, send_buffer);
 247              		.loc 1 566 0
 248 005c 044C     		ldr	r4, .L15
 249 005e 201C     		mov	r0, r4
 250 0060 2030     		add	r0, r0, #32
 251 0062 FFF7FEFF 		bl	make_data
 252              	.LVL24:
 567:main.c        ****                 }
 253              		.loc 1 567 0
 254 0066 1020     		mov	r0, #16
 255 0068 211C     		mov	r1, r4
 256 006a FFF7FEFF 		bl	send_data_by_A7105
 257              	.LVL25:
 258              	.L13:
 572:main.c        **** 
 259              		.loc 1 572 0
 260              		@ sp needed
 261 006e 10BD     		pop	{r4, pc}
 262              	.L16:
 263              		.align	2
ARM GAS  C:\Users\Administrator\AppData\Local\Temp\cc5eEmVR.s 			page 17


 264              	.L15:
 265 0070 00000000 		.word	.LANCHOR0
 266 0074 00000000 		.word	.LANCHOR1
 267              		.cfi_endproc
 268              	.LFE40:
 269              		.size	beij_timer, .-beij_timer
 270              		.section	.text.key_deal,"ax",%progbits
 271              		.align	2
 272              		.code	16
 273              		.thumb_func
 274              		.type	key_deal, %function
 275              	key_deal:
 276              	.LFB39:
 264:main.c        ****     Key_index i;
 277              		.loc 1 264 0
 278              		.cfi_startproc
 279 0000 10B5     		push	{r4, lr}
 280              		.cfi_def_cfa_offset 8
 281              		.cfi_offset 4, -8
 282              		.cfi_offset 14, -4
 283              	.LVL26:
 266:main.c        ****     {
 284              		.loc 1 266 0
 285 0002 0024     		mov	r4, #0
 286 0004 90E2     		b	.L18
 287              	.LVL27:
 288              	.L78:
 268:main.c        ****         {
 289              		.loc 1 268 0
 290 0006 201C     		mov	r0, r4
 291 0008 FFF7FEFF 		bl	key_is_short_pressed
 292              	.LVL28:
 293 000c 0028     		cmp	r0, #0
 294 000e 00D1     		bne	.LCB252
 295 0010 41E2     		b	.L19	@long jump
 296              	.LCB252:
 281:main.c        ****             switch(i)
 297              		.loc 1 281 0
 298 0012 C44B     		ldr	r3, .L79
 299 0014 1B69     		ldr	r3, [r3, #16]
 300 0016 0122     		mov	r2, #1
 301 0018 1A70     		strb	r2, [r3]
 282:main.c        ****             {
 302              		.loc 1 282 0
 303 001a 0B2C     		cmp	r4, #11
 304 001c 00D9     		bls	.LCB258
 305 001e 3AE2     		b	.L19	@long jump
 306              	.LCB258:
 307 0020 A300     		lsl	r3, r4, #2
 308 0022 C14A     		ldr	r2, .L79+4
 309 0024 D358     		ldr	r3, [r2, r3]
 310 0026 9F46     		mov	pc, r3
 311              		.section	.rodata
 312              		.align	2
 313              	.L21:
 314 0000 28000000 		.word	.L20
 315 0004 44000000 		.word	.L22
ARM GAS  C:\Users\Administrator\AppData\Local\Temp\cc5eEmVR.s 			page 18


 316 0008 90000000 		.word	.L23
 317 000c CA000000 		.word	.L24
 318 0010 04010000 		.word	.L25
 319 0014 50010000 		.word	.L26
 320 0018 E6010000 		.word	.L27
 321 001c 3C020000 		.word	.L28
 322 0020 88020000 		.word	.L29
 323 0024 30030000 		.word	.L30
 324 0028 CA030000 		.word	.L31
 325 002c 00040000 		.word	.L32
 326              		.section	.text.key_deal
 327              	.L20:
 285:main.c        ****                         *p_mutex_function = DAI_JI;
 328              		.loc 1 285 0
 329 0028 BE4B     		ldr	r3, .L79
 330 002a 5B69     		ldr	r3, [r3, #20]
 331 002c 1A78     		ldrb	r2, [r3]
 332 002e 002A     		cmp	r2, #0
 333 0030 01D1     		bne	.L33
 286:main.c        ****                     else
 334              		.loc 1 286 0
 335 0032 1A70     		strb	r2, [r3]
 336 0034 01E0     		b	.L34
 337              	.L33:
 288:main.c        **** 
 338              		.loc 1 288 0
 339 0036 0022     		mov	r2, #0
 340 0038 1A70     		strb	r2, [r3]
 341              	.L34:
 290:main.c        ****                     break;
 342              		.loc 1 290 0
 343 003a 0121     		mov	r1, #1
 344 003c 3023     		mov	r3, #48
 345 003e BB4A     		ldr	r2, .L79+8
 346 0040 D154     		strb	r1, [r2, r3]
 291:main.c        ****                 case KEY_FENG_NUAN: 
 347              		.loc 1 291 0
 348 0042 28E2     		b	.L19
 349              	.L22:
 293:main.c        ****                         *p_mutex_function = DAI_JI;
 350              		.loc 1 293 0
 351 0044 B74B     		ldr	r3, .L79
 352 0046 5B69     		ldr	r3, [r3, #20]
 353 0048 1A78     		ldrb	r2, [r3]
 354 004a 042A     		cmp	r2, #4
 355 004c 02D1     		bne	.L35
 294:main.c        ****                     else
 356              		.loc 1 294 0
 357 004e 0022     		mov	r2, #0
 358 0050 1A70     		strb	r2, [r3]
 359 0052 11E0     		b	.L36
 360              	.L35:
 297:main.c        ****                         p_combine_function->ruo = 0;
 361              		.loc 1 297 0
 362 0054 0422     		mov	r2, #4
 363 0056 1A70     		strb	r2, [r3]
 298:main.c        ****                         p_combine_function->zidong = 0;
ARM GAS  C:\Users\Administrator\AppData\Local\Temp\cc5eEmVR.s 			page 19


 364              		.loc 1 298 0
 365 0058 B24B     		ldr	r3, .L79
 366 005a 9969     		ldr	r1, [r3, #24]
 367 005c 0A78     		ldrb	r2, [r1]
 368 005e 0820     		mov	r0, #8
 369 0060 8243     		bic	r2, r0
 370 0062 0A70     		strb	r2, [r1]
 299:main.c        ****                         p_combine_function->qiang = 1;
 371              		.loc 1 299 0
 372 0064 9969     		ldr	r1, [r3, #24]
 373 0066 0A78     		ldrb	r2, [r1]
 374 0068 0830     		add	r0, r0, #8
 375 006a 8243     		bic	r2, r0
 376 006c 0A70     		strb	r2, [r1]
 300:main.c        ****                     }
 377              		.loc 1 300 0
 378 006e 9A69     		ldr	r2, [r3, #24]
 379 0070 1178     		ldrb	r1, [r2]
 380 0072 0423     		mov	r3, #4
 381 0074 0B43     		orr	r3, r1
 382 0076 1370     		strb	r3, [r2]
 383              	.L36:
 303:main.c        ****                     (*dingshi) = 90;        //æ—¶é—´
 384              		.loc 1 303 0
 385 0078 AA4B     		ldr	r3, .L79
 386 007a 2322     		mov	r2, #35
 387 007c D969     		ldr	r1, [r3, #28]
 388 007e 0A70     		strb	r2, [r1]
 304:main.c        ****                     send_flag = TRUE;
 389              		.loc 1 304 0
 390 0080 1B6A     		ldr	r3, [r3, #32]
 391 0082 3732     		add	r2, r2, #55
 392 0084 1A70     		strb	r2, [r3]
 305:main.c        ****                     break;
 393              		.loc 1 305 0
 394 0086 0121     		mov	r1, #1
 395 0088 3023     		mov	r3, #48
 396 008a A84A     		ldr	r2, .L79+8
 397 008c D154     		strb	r1, [r2, r3]
 306:main.c        ****                 case KEY_WENDU_JIA: 
 398              		.loc 1 306 0
 399 008e 02E2     		b	.L19
 400              	.L23:
 308:main.c        ****                     {
 401              		.loc 1 308 0
 402 0090 A44B     		ldr	r3, .L79
 403 0092 5B69     		ldr	r3, [r3, #20]
 404 0094 1B78     		ldrb	r3, [r3]
 405 0096 042B     		cmp	r3, #4
 406 0098 06D1     		bne	.L37
 310:main.c        ****                             (*wendu)++;
 407              		.loc 1 310 0
 408 009a A24B     		ldr	r3, .L79
 409 009c DA69     		ldr	r2, [r3, #28]
 410 009e 1378     		ldrb	r3, [r2]
 411 00a0 272B     		cmp	r3, #39
 412 00a2 01D8     		bhi	.L37
ARM GAS  C:\Users\Administrator\AppData\Local\Temp\cc5eEmVR.s 			page 20


 311:main.c        ****                     }
 413              		.loc 1 311 0
 414 00a4 0133     		add	r3, r3, #1
 415 00a6 1370     		strb	r3, [r2]
 416              	.L37:
 313:main.c        ****                     {
 417              		.loc 1 313 0
 418 00a8 9E4B     		ldr	r3, .L79
 419 00aa 5B69     		ldr	r3, [r3, #20]
 420 00ac 1B78     		ldrb	r3, [r3]
 421 00ae 0B2B     		cmp	r3, #11
 422 00b0 06D1     		bne	.L38
 315:main.c        ****                             (*wendu)++;
 423              		.loc 1 315 0
 424 00b2 9C4B     		ldr	r3, .L79
 425 00b4 DA69     		ldr	r2, [r3, #28]
 426 00b6 1378     		ldrb	r3, [r2]
 427 00b8 272B     		cmp	r3, #39
 428 00ba 01D8     		bhi	.L38
 316:main.c        ****                     }
 429              		.loc 1 316 0
 430 00bc 0133     		add	r3, r3, #1
 431 00be 1370     		strb	r3, [r2]
 432              	.L38:
 318:main.c        ****                     break;
 433              		.loc 1 318 0
 434 00c0 0121     		mov	r1, #1
 435 00c2 3023     		mov	r3, #48
 436 00c4 994A     		ldr	r2, .L79+8
 437 00c6 D154     		strb	r1, [r2, r3]
 319:main.c        ****                 case KEY_WENDU_JIAN: 
 438              		.loc 1 319 0
 439 00c8 E5E1     		b	.L19
 440              	.L24:
 321:main.c        ****                     {
 441              		.loc 1 321 0
 442 00ca 964B     		ldr	r3, .L79
 443 00cc 5B69     		ldr	r3, [r3, #20]
 444 00ce 1B78     		ldrb	r3, [r3]
 445 00d0 042B     		cmp	r3, #4
 446 00d2 06D1     		bne	.L39
 323:main.c        ****                             (*wendu)--;
 447              		.loc 1 323 0
 448 00d4 934B     		ldr	r3, .L79
 449 00d6 DA69     		ldr	r2, [r3, #28]
 450 00d8 1378     		ldrb	r3, [r2]
 451 00da 1E2B     		cmp	r3, #30
 452 00dc 01D9     		bls	.L39
 324:main.c        ****                     }
 453              		.loc 1 324 0
 454 00de 013B     		sub	r3, r3, #1
 455 00e0 1370     		strb	r3, [r2]
 456              	.L39:
 326:main.c        ****                     {
 457              		.loc 1 326 0
 458 00e2 904B     		ldr	r3, .L79
 459 00e4 5B69     		ldr	r3, [r3, #20]
ARM GAS  C:\Users\Administrator\AppData\Local\Temp\cc5eEmVR.s 			page 21


 460 00e6 1B78     		ldrb	r3, [r3]
 461 00e8 0B2B     		cmp	r3, #11
 462 00ea 06D1     		bne	.L40
 328:main.c        ****                             (*wendu)--;
 463              		.loc 1 328 0
 464 00ec 8D4B     		ldr	r3, .L79
 465 00ee DA69     		ldr	r2, [r3, #28]
 466 00f0 1378     		ldrb	r3, [r2]
 467 00f2 1E2B     		cmp	r3, #30
 468 00f4 01D9     		bls	.L40
 329:main.c        ****                     }
 469              		.loc 1 329 0
 470 00f6 013B     		sub	r3, r3, #1
 471 00f8 1370     		strb	r3, [r2]
 472              	.L40:
 331:main.c        ****                     break;
 473              		.loc 1 331 0
 474 00fa 0121     		mov	r1, #1
 475 00fc 3023     		mov	r3, #48
 476 00fe 8B4A     		ldr	r2, .L79+8
 477 0100 D154     		strb	r1, [r2, r3]
 332:main.c        ****                 case KEY_XIN_FENG: 
 478              		.loc 1 332 0
 479 0102 C8E1     		b	.L19
 480              	.L25:
 334:main.c        ****                         *p_mutex_function = DAI_JI;
 481              		.loc 1 334 0
 482 0104 874B     		ldr	r3, .L79
 483 0106 5B69     		ldr	r3, [r3, #20]
 484 0108 1A78     		ldrb	r2, [r3]
 485 010a 032A     		cmp	r2, #3
 486 010c 02D1     		bne	.L41
 335:main.c        ****                     else
 487              		.loc 1 335 0
 488 010e 0022     		mov	r2, #0
 489 0110 1A70     		strb	r2, [r3]
 490 0112 11E0     		b	.L42
 491              	.L41:
 338:main.c        ****                         p_combine_function->qiang = 1;
 492              		.loc 1 338 0
 493 0114 0322     		mov	r2, #3
 494 0116 1A70     		strb	r2, [r3]
 339:main.c        ****                         p_combine_function->ruo = 0;
 495              		.loc 1 339 0
 496 0118 824B     		ldr	r3, .L79
 497 011a 9969     		ldr	r1, [r3, #24]
 498 011c 0878     		ldrb	r0, [r1]
 499 011e 0422     		mov	r2, #4
 500 0120 0243     		orr	r2, r0
 501 0122 0A70     		strb	r2, [r1]
 340:main.c        ****                         p_combine_function->zidong = 0;
 502              		.loc 1 340 0
 503 0124 9969     		ldr	r1, [r3, #24]
 504 0126 0A78     		ldrb	r2, [r1]
 505 0128 0820     		mov	r0, #8
 506 012a 8243     		bic	r2, r0
 507 012c 0A70     		strb	r2, [r1]
ARM GAS  C:\Users\Administrator\AppData\Local\Temp\cc5eEmVR.s 			page 22


 341:main.c        ****                     }
 508              		.loc 1 341 0
 509 012e 9A69     		ldr	r2, [r3, #24]
 510 0130 1378     		ldrb	r3, [r2]
 511 0132 1021     		mov	r1, #16
 512 0134 8B43     		bic	r3, r1
 513 0136 1370     		strb	r3, [r2]
 514              	.L42:
 343:main.c        ****                     (*dingshi) = 30;        //æ—¶é—´
 515              		.loc 1 343 0
 516 0138 7A4B     		ldr	r3, .L79
 517 013a 0022     		mov	r2, #0
 518 013c D969     		ldr	r1, [r3, #28]
 519 013e 0A70     		strb	r2, [r1]
 344:main.c        ****                     send_flag = TRUE;
 520              		.loc 1 344 0
 521 0140 1B6A     		ldr	r3, [r3, #32]
 522 0142 1E32     		add	r2, r2, #30
 523 0144 1A70     		strb	r2, [r3]
 345:main.c        ****                     break;
 524              		.loc 1 345 0
 525 0146 0121     		mov	r1, #1
 526 0148 3023     		mov	r3, #48
 527 014a 784A     		ldr	r2, .L79+8
 528 014c D154     		strb	r1, [r2, r3]
 346:main.c        ****                 case KEY_QING_RUO:
 529              		.loc 1 346 0
 530 014e A2E1     		b	.L19
 531              	.L26:
 348:main.c        ****                     &&(*p_mutex_function != XIN_FENG)
 532              		.loc 1 348 0
 533 0150 744B     		ldr	r3, .L79
 534 0152 5B69     		ldr	r3, [r3, #20]
 535 0154 1B78     		ldrb	r3, [r3]
 536 0156 012B     		cmp	r3, #1
 537 0158 06D0     		beq	.L43
 349:main.c        ****                     &&(*p_mutex_function != FENG_NUAN)
 538              		.loc 1 349 0
 539 015a 032B     		cmp	r3, #3
 540 015c 04D0     		beq	.L43
 350:main.c        ****                     &&(*p_mutex_function != XIN_FENG_FENG_NUAN))
 541              		.loc 1 350 0
 542 015e 042B     		cmp	r3, #4
 543 0160 02D0     		beq	.L43
 351:main.c        ****                     {break;}
 544              		.loc 1 351 0
 545 0162 0B2B     		cmp	r3, #11
 546 0164 00D0     		beq	.LCB468
 547 0166 96E1     		b	.L19	@long jump
 548              	.LCB468:
 549              	.L43:
 354:main.c        ****                     p_combine_function->ruo = 0;
 550              		.loc 1 354 0
 551 0168 6E4B     		ldr	r3, .L79
 552 016a 9969     		ldr	r1, [r3, #24]
 553 016c 0A78     		ldrb	r2, [r1]
 554 016e 0420     		mov	r0, #4
ARM GAS  C:\Users\Administrator\AppData\Local\Temp\cc5eEmVR.s 			page 23


 555 0170 8243     		bic	r2, r0
 556 0172 0A70     		strb	r2, [r1]
 355:main.c        ****                     p_combine_function->zidong = 0;
 557              		.loc 1 355 0
 558 0174 9969     		ldr	r1, [r3, #24]
 559 0176 0A78     		ldrb	r2, [r1]
 560 0178 0430     		add	r0, r0, #4
 561 017a 8243     		bic	r2, r0
 562 017c 0A70     		strb	r2, [r1]
 356:main.c        ****                     switch(qiang_ruo_mode)
 563              		.loc 1 356 0
 564 017e 9A69     		ldr	r2, [r3, #24]
 565 0180 1378     		ldrb	r3, [r2]
 566 0182 1021     		mov	r1, #16
 567 0184 8B43     		bic	r3, r1
 568 0186 1370     		strb	r3, [r2]
 357:main.c        ****                     {
 569              		.loc 1 357 0
 570 0188 3123     		mov	r3, #49
 571 018a 684A     		ldr	r2, .L79+8
 572 018c D35C     		ldrb	r3, [r2, r3]
 573 018e 012B     		cmp	r3, #1
 574 0190 0FD0     		beq	.L45
 575 0192 002B     		cmp	r3, #0
 576 0194 02D0     		beq	.L46
 577 0196 022B     		cmp	r3, #2
 578 0198 16D0     		beq	.L47
 579 019a 1FE0     		b	.L44
 580              	.L46:
 360:main.c        ****                             p_combine_function->ruo = 1;
 581              		.loc 1 360 0
 582 019c 0121     		mov	r1, #1
 583 019e 3123     		mov	r3, #49
 584 01a0 624A     		ldr	r2, .L79+8
 585 01a2 D154     		strb	r1, [r2, r3]
 361:main.c        ****                             break;
 586              		.loc 1 361 0
 587 01a4 5F4B     		ldr	r3, .L79
 588 01a6 9A69     		ldr	r2, [r3, #24]
 589 01a8 1178     		ldrb	r1, [r2]
 590 01aa 0823     		mov	r3, #8
 591 01ac 0B43     		orr	r3, r1
 592 01ae 1370     		strb	r3, [r2]
 362:main.c        ****                         case RUO:
 593              		.loc 1 362 0
 594 01b0 14E0     		b	.L44
 595              	.L45:
 364:main.c        ****                             p_combine_function->zidong = 1;
 596              		.loc 1 364 0
 597 01b2 0221     		mov	r1, #2
 598 01b4 3123     		mov	r3, #49
 599 01b6 5D4A     		ldr	r2, .L79+8
 600 01b8 D154     		strb	r1, [r2, r3]
 365:main.c        ****                             break;
 601              		.loc 1 365 0
 602 01ba 5A4B     		ldr	r3, .L79
 603 01bc 9A69     		ldr	r2, [r3, #24]
ARM GAS  C:\Users\Administrator\AppData\Local\Temp\cc5eEmVR.s 			page 24


 604 01be 1178     		ldrb	r1, [r2]
 605 01c0 1023     		mov	r3, #16
 606 01c2 0B43     		orr	r3, r1
 607 01c4 1370     		strb	r3, [r2]
 366:main.c        ****                         case ZI_DONG: 
 608              		.loc 1 366 0
 609 01c6 09E0     		b	.L44
 610              	.L47:
 368:main.c        ****                             qiang_ruo_mode = QAING;
 611              		.loc 1 368 0
 612 01c8 564B     		ldr	r3, .L79
 613 01ca 9A69     		ldr	r2, [r3, #24]
 614 01cc 1178     		ldrb	r1, [r2]
 615 01ce 0423     		mov	r3, #4
 616 01d0 0B43     		orr	r3, r1
 617 01d2 1370     		strb	r3, [r2]
 369:main.c        ****                             break;
 618              		.loc 1 369 0
 619 01d4 0021     		mov	r1, #0
 620 01d6 3123     		mov	r3, #49
 621 01d8 544A     		ldr	r2, .L79+8
 622 01da D154     		strb	r1, [r2, r3]
 623              	.L44:
 372:main.c        ****                     break;
 624              		.loc 1 372 0
 625 01dc 0121     		mov	r1, #1
 626 01de 3023     		mov	r3, #48
 627 01e0 524A     		ldr	r2, .L79+8
 628 01e2 D154     		strb	r1, [r2, r3]
 373:main.c        ****                 case KEY_HUAN_QI: 
 629              		.loc 1 373 0
 630 01e4 57E1     		b	.L19
 631              	.L27:
 375:main.c        ****                         *p_mutex_function = DAI_JI;
 632              		.loc 1 375 0
 633 01e6 4F4B     		ldr	r3, .L79
 634 01e8 5B69     		ldr	r3, [r3, #20]
 635 01ea 1A78     		ldrb	r2, [r3]
 636 01ec 012A     		cmp	r2, #1
 637 01ee 02D1     		bne	.L48
 376:main.c        ****                     else
 638              		.loc 1 376 0
 639 01f0 0022     		mov	r2, #0
 640 01f2 1A70     		strb	r2, [r3]
 641 01f4 11E0     		b	.L49
 642              	.L48:
 379:main.c        ****                         p_combine_function->qiang = 1;
 643              		.loc 1 379 0
 644 01f6 0122     		mov	r2, #1
 645 01f8 1A70     		strb	r2, [r3]
 380:main.c        ****                         p_combine_function->ruo = 0;
 646              		.loc 1 380 0
 647 01fa 4A4B     		ldr	r3, .L79
 648 01fc 9969     		ldr	r1, [r3, #24]
 649 01fe 0878     		ldrb	r0, [r1]
 650 0200 0422     		mov	r2, #4
 651 0202 0243     		orr	r2, r0
ARM GAS  C:\Users\Administrator\AppData\Local\Temp\cc5eEmVR.s 			page 25


 652 0204 0A70     		strb	r2, [r1]
 381:main.c        ****                         p_combine_function->zidong = 0;
 653              		.loc 1 381 0
 654 0206 9969     		ldr	r1, [r3, #24]
 655 0208 0A78     		ldrb	r2, [r1]
 656 020a 0820     		mov	r0, #8
 657 020c 8243     		bic	r2, r0
 658 020e 0A70     		strb	r2, [r1]
 382:main.c        ****                     }
 659              		.loc 1 382 0
 660 0210 9A69     		ldr	r2, [r3, #24]
 661 0212 1378     		ldrb	r3, [r2]
 662 0214 1021     		mov	r1, #16
 663 0216 8B43     		bic	r3, r1
 664 0218 1370     		strb	r3, [r2]
 665              	.L49:
 384:main.c        ****                     (*wendu) = 0;        //æ¸©åº¦
 666              		.loc 1 384 0
 667 021a 424B     		ldr	r3, .L79
 668 021c 9969     		ldr	r1, [r3, #24]
 669 021e 0A78     		ldrb	r2, [r1]
 670 0220 0220     		mov	r0, #2
 671 0222 8243     		bic	r2, r0
 672 0224 0A70     		strb	r2, [r1]
 385:main.c        ****                     (*dingshi) = 30;        //æ—¶é—´
 673              		.loc 1 385 0
 674 0226 0022     		mov	r2, #0
 675 0228 D969     		ldr	r1, [r3, #28]
 676 022a 0A70     		strb	r2, [r1]
 386:main.c        ****                     send_flag = TRUE;
 677              		.loc 1 386 0
 678 022c 1B6A     		ldr	r3, [r3, #32]
 679 022e 1E32     		add	r2, r2, #30
 680 0230 1A70     		strb	r2, [r3]
 387:main.c        ****                     break;
 681              		.loc 1 387 0
 682 0232 0121     		mov	r1, #1
 683 0234 3023     		mov	r3, #48
 684 0236 3D4A     		ldr	r2, .L79+8
 685 0238 D154     		strb	r1, [r2, r3]
 388:main.c        ****                 case KEY_XIN_FENG_QU_NUAN: 
 686              		.loc 1 388 0
 687 023a 2CE1     		b	.L19
 688              	.L28:
 390:main.c        ****                         *p_mutex_function = DAI_JI;
 689              		.loc 1 390 0
 690 023c 394B     		ldr	r3, .L79
 691 023e 5B69     		ldr	r3, [r3, #20]
 692 0240 1A78     		ldrb	r2, [r3]
 693 0242 0B2A     		cmp	r2, #11
 694 0244 02D1     		bne	.L50
 391:main.c        ****                     else
 695              		.loc 1 391 0
 696 0246 0022     		mov	r2, #0
 697 0248 1A70     		strb	r2, [r3]
 698 024a 11E0     		b	.L51
 699              	.L50:
ARM GAS  C:\Users\Administrator\AppData\Local\Temp\cc5eEmVR.s 			page 26


 394:main.c        ****                         p_combine_function->qiang = 1;
 700              		.loc 1 394 0
 701 024c 0B22     		mov	r2, #11
 702 024e 1A70     		strb	r2, [r3]
 395:main.c        ****                         p_combine_function->ruo = 0;
 703              		.loc 1 395 0
 704 0250 344B     		ldr	r3, .L79
 705 0252 9969     		ldr	r1, [r3, #24]
 706 0254 0878     		ldrb	r0, [r1]
 707 0256 0422     		mov	r2, #4
 708 0258 0243     		orr	r2, r0
 709 025a 0A70     		strb	r2, [r1]
 396:main.c        ****                         p_combine_function->zidong = 0;
 710              		.loc 1 396 0
 711 025c 9969     		ldr	r1, [r3, #24]
 712 025e 0A78     		ldrb	r2, [r1]
 713 0260 0820     		mov	r0, #8
 714 0262 8243     		bic	r2, r0
 715 0264 0A70     		strb	r2, [r1]
 397:main.c        ****                     }
 716              		.loc 1 397 0
 717 0266 9A69     		ldr	r2, [r3, #24]
 718 0268 1378     		ldrb	r3, [r2]
 719 026a 1021     		mov	r1, #16
 720 026c 8B43     		bic	r3, r1
 721 026e 1370     		strb	r3, [r2]
 722              	.L51:
 399:main.c        ****                     (*dingshi) = 90;        //æ—¶é—´
 723              		.loc 1 399 0
 724 0270 2C4B     		ldr	r3, .L79
 725 0272 2322     		mov	r2, #35
 726 0274 D969     		ldr	r1, [r3, #28]
 727 0276 0A70     		strb	r2, [r1]
 400:main.c        ****                     send_flag = TRUE;
 728              		.loc 1 400 0
 729 0278 1B6A     		ldr	r3, [r3, #32]
 730 027a 3732     		add	r2, r2, #55
 731 027c 1A70     		strb	r2, [r3]
 401:main.c        ****                     break;
 732              		.loc 1 401 0
 733 027e 0121     		mov	r1, #1
 734 0280 3023     		mov	r3, #48
 735 0282 2A4A     		ldr	r2, .L79+8
 736 0284 D154     		strb	r1, [r2, r3]
 402:main.c        ****                 case KEY_DINGSHI_JIA: 
 737              		.loc 1 402 0
 738 0286 06E1     		b	.L19
 739              	.L29:
 404:main.c        ****                     {
 740              		.loc 1 404 0
 741 0288 264B     		ldr	r3, .L79
 742 028a 5B69     		ldr	r3, [r3, #20]
 743 028c 1B78     		ldrb	r3, [r3]
 744 028e 042B     		cmp	r3, #4
 745 0290 06D1     		bne	.L52
 406:main.c        ****                             (*dingshi) += 15;
 746              		.loc 1 406 0
ARM GAS  C:\Users\Administrator\AppData\Local\Temp\cc5eEmVR.s 			page 27


 747 0292 244B     		ldr	r3, .L79
 748 0294 1A6A     		ldr	r2, [r3, #32]
 749 0296 1378     		ldrb	r3, [r2]
 750 0298 772B     		cmp	r3, #119
 751 029a 01D8     		bhi	.L52
 407:main.c        ****                     }
 752              		.loc 1 407 0
 753 029c 0F33     		add	r3, r3, #15
 754 029e 1370     		strb	r3, [r2]
 755              	.L52:
 409:main.c        ****                     {
 756              		.loc 1 409 0
 757 02a0 204B     		ldr	r3, .L79
 758 02a2 5B69     		ldr	r3, [r3, #20]
 759 02a4 1B78     		ldrb	r3, [r3]
 760 02a6 032B     		cmp	r3, #3
 761 02a8 06D1     		bne	.L53
 411:main.c        ****                             (*dingshi) += 15;
 762              		.loc 1 411 0
 763 02aa 1E4B     		ldr	r3, .L79
 764 02ac 1A6A     		ldr	r2, [r3, #32]
 765 02ae 1378     		ldrb	r3, [r2]
 766 02b0 3B2B     		cmp	r3, #59
 767 02b2 01D8     		bhi	.L53
 412:main.c        ****                     }
 768              		.loc 1 412 0
 769 02b4 0F33     		add	r3, r3, #15
 770 02b6 1370     		strb	r3, [r2]
 771              	.L53:
 414:main.c        ****                     {
 772              		.loc 1 414 0
 773 02b8 1A4B     		ldr	r3, .L79
 774 02ba 5B69     		ldr	r3, [r3, #20]
 775 02bc 1B78     		ldrb	r3, [r3]
 776 02be 012B     		cmp	r3, #1
 777 02c0 06D1     		bne	.L54
 416:main.c        ****                             (*dingshi) += 15;
 778              		.loc 1 416 0
 779 02c2 184B     		ldr	r3, .L79
 780 02c4 1A6A     		ldr	r2, [r3, #32]
 781 02c6 1378     		ldrb	r3, [r2]
 782 02c8 3B2B     		cmp	r3, #59
 783 02ca 01D8     		bhi	.L54
 417:main.c        ****                     }
 784              		.loc 1 417 0
 785 02cc 0F33     		add	r3, r3, #15
 786 02ce 1370     		strb	r3, [r2]
 787              	.L54:
 419:main.c        ****                     {
 788              		.loc 1 419 0
 789 02d0 144B     		ldr	r3, .L79
 790 02d2 5B69     		ldr	r3, [r3, #20]
 791 02d4 1B78     		ldrb	r3, [r3]
 792 02d6 0B2B     		cmp	r3, #11
 793 02d8 06D1     		bne	.L55
 421:main.c        ****                             (*dingshi) += 15;
 794              		.loc 1 421 0
ARM GAS  C:\Users\Administrator\AppData\Local\Temp\cc5eEmVR.s 			page 28


 795 02da 124B     		ldr	r3, .L79
 796 02dc 1A6A     		ldr	r2, [r3, #32]
 797 02de 1378     		ldrb	r3, [r2]
 798 02e0 772B     		cmp	r3, #119
 799 02e2 01D8     		bhi	.L55
 422:main.c        ****                     }
 800              		.loc 1 422 0
 801 02e4 0F33     		add	r3, r3, #15
 802 02e6 1370     		strb	r3, [r2]
 803              	.L55:
 424:main.c        ****                     {
 804              		.loc 1 424 0
 805 02e8 0E4B     		ldr	r3, .L79
 806 02ea 5B69     		ldr	r3, [r3, #20]
 807 02ec 1B78     		ldrb	r3, [r3]
 808 02ee 0F2B     		cmp	r3, #15
 809 02f0 06D1     		bne	.L56
 426:main.c        ****                             (*dingshi) += 15;
 810              		.loc 1 426 0
 811 02f2 0C4B     		ldr	r3, .L79
 812 02f4 1A6A     		ldr	r2, [r3, #32]
 813 02f6 1378     		ldrb	r3, [r2]
 814 02f8 952B     		cmp	r3, #149
 815 02fa 01D8     		bhi	.L56
 427:main.c        ****                     }
 816              		.loc 1 427 0
 817 02fc 0F33     		add	r3, r3, #15
 818 02fe 1370     		strb	r3, [r2]
 819              	.L56:
 429:main.c        ****                     {
 820              		.loc 1 429 0
 821 0300 084B     		ldr	r3, .L79
 822 0302 5B69     		ldr	r3, [r3, #20]
 823 0304 1B78     		ldrb	r3, [r3]
 824 0306 0D2B     		cmp	r3, #13
 825 0308 06D1     		bne	.L57
 431:main.c        ****                             (*dingshi) += 15;
 826              		.loc 1 431 0
 827 030a 064B     		ldr	r3, .L79
 828 030c 1A6A     		ldr	r2, [r3, #32]
 829 030e 1378     		ldrb	r3, [r2]
 830 0310 772B     		cmp	r3, #119
 831 0312 01D8     		bhi	.L57
 432:main.c        ****                     }
 832              		.loc 1 432 0
 833 0314 0F33     		add	r3, r3, #15
 834 0316 1370     		strb	r3, [r2]
 835              	.L57:
 434:main.c        ****                     break;
 836              		.loc 1 434 0
 837 0318 0121     		mov	r1, #1
 838 031a 3023     		mov	r3, #48
 839 031c 034A     		ldr	r2, .L79+8
 840 031e D154     		strb	r1, [r2, r3]
 435:main.c        ****                 case KEY_DINGSHI_JIAN: 
 841              		.loc 1 435 0
 842 0320 B9E0     		b	.L19
ARM GAS  C:\Users\Administrator\AppData\Local\Temp\cc5eEmVR.s 			page 29


 843              	.L80:
 844 0322 C046     		.align	2
 845              	.L79:
 846 0324 00000000 		.word	.LANCHOR1
 847 0328 00000000 		.word	.L21
 848 032c 00000000 		.word	.LANCHOR0
 849              	.L30:
 437:main.c        ****                     {
 850              		.loc 1 437 0
 851 0330 7F4B     		ldr	r3, .L81
 852 0332 5B69     		ldr	r3, [r3, #20]
 853 0334 1B78     		ldrb	r3, [r3]
 854 0336 042B     		cmp	r3, #4
 855 0338 06D1     		bne	.L58
 439:main.c        ****                             (*dingshi) -= 15;
 856              		.loc 1 439 0
 857 033a 7D4B     		ldr	r3, .L81
 858 033c 1A6A     		ldr	r2, [r3, #32]
 859 033e 1378     		ldrb	r3, [r2]
 860 0340 3C2B     		cmp	r3, #60
 861 0342 01D9     		bls	.L58
 440:main.c        ****                     }
 862              		.loc 1 440 0
 863 0344 0F3B     		sub	r3, r3, #15
 864 0346 1370     		strb	r3, [r2]
 865              	.L58:
 442:main.c        ****                     {
 866              		.loc 1 442 0
 867 0348 794B     		ldr	r3, .L81
 868 034a 5B69     		ldr	r3, [r3, #20]
 869 034c 1B78     		ldrb	r3, [r3]
 870 034e 032B     		cmp	r3, #3
 871 0350 06D1     		bne	.L59
 444:main.c        ****                             (*dingshi) -= 15;
 872              		.loc 1 444 0
 873 0352 774B     		ldr	r3, .L81
 874 0354 1A6A     		ldr	r2, [r3, #32]
 875 0356 1378     		ldrb	r3, [r2]
 876 0358 0F2B     		cmp	r3, #15
 877 035a 01D9     		bls	.L59
 445:main.c        ****                     }
 878              		.loc 1 445 0
 879 035c 0F3B     		sub	r3, r3, #15
 880 035e 1370     		strb	r3, [r2]
 881              	.L59:
 447:main.c        ****                     {
 882              		.loc 1 447 0
 883 0360 734B     		ldr	r3, .L81
 884 0362 5B69     		ldr	r3, [r3, #20]
 885 0364 1B78     		ldrb	r3, [r3]
 886 0366 012B     		cmp	r3, #1
 887 0368 06D1     		bne	.L60
 449:main.c        ****                             (*dingshi) -= 15;
 888              		.loc 1 449 0
 889 036a 714B     		ldr	r3, .L81
 890 036c 1A6A     		ldr	r2, [r3, #32]
 891 036e 1378     		ldrb	r3, [r2]
ARM GAS  C:\Users\Administrator\AppData\Local\Temp\cc5eEmVR.s 			page 30


 892 0370 1E2B     		cmp	r3, #30
 893 0372 01D9     		bls	.L60
 450:main.c        ****                     }
 894              		.loc 1 450 0
 895 0374 0F3B     		sub	r3, r3, #15
 896 0376 1370     		strb	r3, [r2]
 897              	.L60:
 452:main.c        ****                     {
 898              		.loc 1 452 0
 899 0378 6D4B     		ldr	r3, .L81
 900 037a 5B69     		ldr	r3, [r3, #20]
 901 037c 1B78     		ldrb	r3, [r3]
 902 037e 0B2B     		cmp	r3, #11
 903 0380 06D1     		bne	.L61
 454:main.c        ****                             (*dingshi) -= 15;
 904              		.loc 1 454 0
 905 0382 6B4B     		ldr	r3, .L81
 906 0384 1A6A     		ldr	r2, [r3, #32]
 907 0386 1378     		ldrb	r3, [r2]
 908 0388 3C2B     		cmp	r3, #60
 909 038a 01D9     		bls	.L61
 455:main.c        ****                     }
 910              		.loc 1 455 0
 911 038c 0F3B     		sub	r3, r3, #15
 912 038e 1370     		strb	r3, [r2]
 913              	.L61:
 457:main.c        ****                     {
 914              		.loc 1 457 0
 915 0390 674B     		ldr	r3, .L81
 916 0392 5B69     		ldr	r3, [r3, #20]
 917 0394 1B78     		ldrb	r3, [r3]
 918 0396 0F2B     		cmp	r3, #15
 919 0398 06D1     		bne	.L62
 459:main.c        ****                             (*dingshi) -= 15;
 920              		.loc 1 459 0
 921 039a 654B     		ldr	r3, .L81
 922 039c 1A6A     		ldr	r2, [r3, #32]
 923 039e 1378     		ldrb	r3, [r2]
 924 03a0 5A2B     		cmp	r3, #90
 925 03a2 01D9     		bls	.L62
 460:main.c        ****                     }
 926              		.loc 1 460 0
 927 03a4 0F3B     		sub	r3, r3, #15
 928 03a6 1370     		strb	r3, [r2]
 929              	.L62:
 462:main.c        ****                     {
 930              		.loc 1 462 0
 931 03a8 614B     		ldr	r3, .L81
 932 03aa 5B69     		ldr	r3, [r3, #20]
 933 03ac 1B78     		ldrb	r3, [r3]
 934 03ae 0D2B     		cmp	r3, #13
 935 03b0 06D1     		bne	.L63
 464:main.c        ****                             (*dingshi) -= 15;
 936              		.loc 1 464 0
 937 03b2 5F4B     		ldr	r3, .L81
 938 03b4 1A6A     		ldr	r2, [r3, #32]
 939 03b6 1378     		ldrb	r3, [r2]
ARM GAS  C:\Users\Administrator\AppData\Local\Temp\cc5eEmVR.s 			page 31


 940 03b8 3C2B     		cmp	r3, #60
 941 03ba 01D9     		bls	.L63
 465:main.c        ****                     }
 942              		.loc 1 465 0
 943 03bc 0F3B     		sub	r3, r3, #15
 944 03be 1370     		strb	r3, [r2]
 945              	.L63:
 467:main.c        ****                     break;
 946              		.loc 1 467 0
 947 03c0 0121     		mov	r1, #1
 948 03c2 3023     		mov	r3, #48
 949 03c4 5B4A     		ldr	r2, .L81+4
 950 03c6 D154     		strb	r1, [r2, r3]
 468:main.c        ****                 case KEY_BAI_DONG: 
 951              		.loc 1 468 0
 952 03c8 65E0     		b	.L19
 953              	.L31:
 471:main.c        ****                     &&(*p_mutex_function != XIN_FENG_FENG_NUAN))
 954              		.loc 1 471 0
 955 03ca 594B     		ldr	r3, .L81
 956 03cc 5B69     		ldr	r3, [r3, #20]
 957 03ce 1B78     		ldrb	r3, [r3]
 958 03d0 DA1E     		sub	r2, r3, #3
 470:main.c        ****                     &&(*p_mutex_function != FENG_NUAN)
 959              		.loc 1 470 0
 960 03d2 012A     		cmp	r2, #1
 961 03d4 01D9     		bls	.L64
 472:main.c        ****                     {break;}
 962              		.loc 1 472 0
 963 03d6 0B2B     		cmp	r3, #11
 964 03d8 5DD1     		bne	.L19
 965              	.L64:
 474:main.c        ****                         p_combine_function->baidong = 0;
 966              		.loc 1 474 0
 967 03da 554B     		ldr	r3, .L81
 968 03dc 9B69     		ldr	r3, [r3, #24]
 969 03de 1A78     		ldrb	r2, [r3]
 970 03e0 9207     		lsl	r2, r2, #30
 971 03e2 04D5     		bpl	.L65
 475:main.c        ****                     else
 972              		.loc 1 475 0
 973 03e4 1A78     		ldrb	r2, [r3]
 974 03e6 0221     		mov	r1, #2
 975 03e8 8A43     		bic	r2, r1
 976 03ea 1A70     		strb	r2, [r3]
 977 03ec 03E0     		b	.L66
 978              	.L65:
 477:main.c        ****                     send_flag = TRUE;
 979              		.loc 1 477 0
 980 03ee 1978     		ldrb	r1, [r3]
 981 03f0 0222     		mov	r2, #2
 982 03f2 0A43     		orr	r2, r1
 983 03f4 1A70     		strb	r2, [r3]
 984              	.L66:
 478:main.c        ****                     break;
 985              		.loc 1 478 0
 986 03f6 0121     		mov	r1, #1
ARM GAS  C:\Users\Administrator\AppData\Local\Temp\cc5eEmVR.s 			page 32


 987 03f8 3023     		mov	r3, #48
 988 03fa 4E4A     		ldr	r2, .L81+4
 989 03fc D154     		strb	r1, [r2, r3]
 479:main.c        ****                 case KEY_ZHI_NENG: 
 990              		.loc 1 479 0
 991 03fe 4AE0     		b	.L19
 992              	.L32:
 481:main.c        ****                     ||(*p_mutex_function == ZHI_NENG_GAN_ZAO)
 993              		.loc 1 481 0
 994 0400 4B4B     		ldr	r3, .L81
 995 0402 5A69     		ldr	r2, [r3, #20]
 996 0404 1378     		ldrb	r3, [r2]
 997 0406 002B     		cmp	r3, #0
 998 0408 05D0     		beq	.L67
 482:main.c        ****                     ||(*p_mutex_function == ZHI_NENG_JING_HUA)
 999              		.loc 1 482 0
 1000 040a 0C2B     		cmp	r3, #12
 1001 040c 03D0     		beq	.L67
 483:main.c        ****                     ||(*p_mutex_function == ZHI_NENG_MU_YU_1))
 1002              		.loc 1 483 0
 1003 040e 0F2B     		cmp	r3, #15
 1004 0410 01D0     		beq	.L67
 484:main.c        ****                     {
 1005              		.loc 1 484 0
 1006 0412 0D2B     		cmp	r3, #13
 1007 0414 36D1     		bne	.L68
 1008              	.L67:
 486:main.c        ****                         {
 1009              		.loc 1 486 0
 1010 0416 3223     		mov	r3, #50
 1011 0418 4649     		ldr	r1, .L81+4
 1012 041a CB5C     		ldrb	r3, [r1, r3]
 1013 041c 012B     		cmp	r3, #1
 1014 041e 0DD0     		beq	.L70
 1015 0420 002B     		cmp	r3, #0
 1016 0422 04D0     		beq	.L71
 1017 0424 022B     		cmp	r3, #2
 1018 0426 18D0     		beq	.L72
 1019 0428 032B     		cmp	r3, #3
 1020 042a 25D0     		beq	.L73
 1021 042c 2FE0     		b	.L69
 1022              	.L71:
 489:main.c        ****                                 *p_mutex_function = ZHI_NENG_GAN_ZAO;
 1023              		.loc 1 489 0
 1024 042e 0120     		mov	r0, #1
 1025 0430 3223     		mov	r3, #50
 1026 0432 4049     		ldr	r1, .L81+4
 1027 0434 C854     		strb	r0, [r1, r3]
 490:main.c        ****                                 break;
 1028              		.loc 1 490 0
 1029 0436 263B     		sub	r3, r3, #38
 1030 0438 1370     		strb	r3, [r2]
 491:main.c        ****                             case ZHI_GAN: 
 1031              		.loc 1 491 0
 1032 043a 28E0     		b	.L69
 1033              	.L70:
 493:main.c        ****                                 (*wendu) = 0;        //æ¸©åº¦
ARM GAS  C:\Users\Administrator\AppData\Local\Temp\cc5eEmVR.s 			page 33


 1034              		.loc 1 493 0
 1035 043c 0221     		mov	r1, #2
 1036 043e 3223     		mov	r3, #50
 1037 0440 3C4A     		ldr	r2, .L81+4
 1038 0442 D154     		strb	r1, [r2, r3]
 494:main.c        ****                                 (*dingshi) = 120;        //æ—¶é—´
 1039              		.loc 1 494 0
 1040 0444 3A4B     		ldr	r3, .L81
 1041 0446 0022     		mov	r2, #0
 1042 0448 D969     		ldr	r1, [r3, #28]
 1043 044a 0A70     		strb	r2, [r1]
 495:main.c        ****                                 *p_mutex_function = ZHI_NENG_JING_HUA;
 1044              		.loc 1 495 0
 1045 044c 7832     		add	r2, r2, #120
 1046 044e 196A     		ldr	r1, [r3, #32]
 1047 0450 0A70     		strb	r2, [r1]
 496:main.c        ****                                 break;
 1048              		.loc 1 496 0
 1049 0452 5B69     		ldr	r3, [r3, #20]
 1050 0454 693A     		sub	r2, r2, #105
 1051 0456 1A70     		strb	r2, [r3]
 497:main.c        ****                             case ZHI_JING:
 1052              		.loc 1 497 0
 1053 0458 19E0     		b	.L69
 1054              	.L72:
 499:main.c        ****                                 (*wendu) = 0;        //æ¸©åº¦
 1055              		.loc 1 499 0
 1056 045a 0321     		mov	r1, #3
 1057 045c 3223     		mov	r3, #50
 1058 045e 354A     		ldr	r2, .L81+4
 1059 0460 D154     		strb	r1, [r2, r3]
 500:main.c        ****                                 (*dingshi) = 90;        //æ—¶é—´
 1060              		.loc 1 500 0
 1061 0462 334B     		ldr	r3, .L81
 1062 0464 0022     		mov	r2, #0
 1063 0466 D969     		ldr	r1, [r3, #28]
 1064 0468 0A70     		strb	r2, [r1]
 501:main.c        ****                                 *p_mutex_function = ZHI_NENG_MU_YU_1;
 1065              		.loc 1 501 0
 1066 046a 5A32     		add	r2, r2, #90
 1067 046c 196A     		ldr	r1, [r3, #32]
 1068 046e 0A70     		strb	r2, [r1]
 502:main.c        ****                                 break;
 1069              		.loc 1 502 0
 1070 0470 5B69     		ldr	r3, [r3, #20]
 1071 0472 4D3A     		sub	r2, r2, #77
 1072 0474 1A70     		strb	r2, [r3]
 503:main.c        ****                             case ZHI_MU: 
 1073              		.loc 1 503 0
 1074 0476 0AE0     		b	.L69
 1075              	.L73:
 505:main.c        ****                                 *p_mutex_function = DAI_JI;
 1076              		.loc 1 505 0
 1077 0478 0023     		mov	r3, #0
 1078 047a 3221     		mov	r1, #50
 1079 047c 2D48     		ldr	r0, .L81+4
 1080 047e 4354     		strb	r3, [r0, r1]
ARM GAS  C:\Users\Administrator\AppData\Local\Temp\cc5eEmVR.s 			page 34


 506:main.c        ****                                 break;
 1081              		.loc 1 506 0
 1082 0480 1370     		strb	r3, [r2]
 507:main.c        ****                         }
 1083              		.loc 1 507 0
 1084 0482 04E0     		b	.L69
 1085              	.L68:
 512:main.c        ****                         zhi_neng_mode = GUAN_JI;
 1086              		.loc 1 512 0
 1087 0484 0023     		mov	r3, #0
 1088 0486 1370     		strb	r3, [r2]
 513:main.c        ****                     }
 1089              		.loc 1 513 0
 1090 0488 3222     		mov	r2, #50
 1091 048a 2A49     		ldr	r1, .L81+4
 1092 048c 8B54     		strb	r3, [r1, r2]
 1093              	.L69:
 515:main.c        ****                     break;
 1094              		.loc 1 515 0
 1095 048e 0121     		mov	r1, #1
 1096 0490 3023     		mov	r3, #48
 1097 0492 284A     		ldr	r2, .L81+4
 1098 0494 D154     		strb	r1, [r2, r3]
 1099              	.L19:
 521:main.c        ****         {
 1100              		.loc 1 521 0
 1101 0496 0020     		mov	r0, #0
 1102 0498 FFF7FEFF 		bl	key_is_long_pressed
 1103              	.LVL29:
 1104 049c 0028     		cmp	r0, #0
 1105 049e 09D0     		beq	.L74
 523:main.c        ****             *command_type = MATCH_CODE;
 1106              		.loc 1 523 0
 1107 04a0 244B     		ldr	r3, .L81+4
 1108 04a2 0122     		mov	r2, #1
 1109 04a4 3321     		mov	r1, #51
 1110 04a6 5A54     		strb	r2, [r3, r1]
 524:main.c        ****             send_flag = TRUE;
 1111              		.loc 1 524 0
 1112 04a8 2149     		ldr	r1, .L81
 1113 04aa 0969     		ldr	r1, [r1, #16]
 1114 04ac 0220     		mov	r0, #2
 1115 04ae 0870     		strb	r0, [r1]
 525:main.c        ****         }
 1116              		.loc 1 525 0
 1117 04b0 3021     		mov	r1, #48
 1118 04b2 5A54     		strb	r2, [r3, r1]
 1119              	.L74:
 528:main.c        ****         {
 1120              		.loc 1 528 0
 1121 04b4 0220     		mov	r0, #2
 1122 04b6 FFF7FEFF 		bl	key_is_long_pressed
 1123              	.LVL30:
 1124 04ba 0028     		cmp	r0, #0
 1125 04bc 07D0     		beq	.L75
 530:main.c        ****             send_flag = TRUE;
 1126              		.loc 1 530 0
ARM GAS  C:\Users\Administrator\AppData\Local\Temp\cc5eEmVR.s 			page 35


 1127 04be 1C4B     		ldr	r3, .L81
 1128 04c0 1B69     		ldr	r3, [r3, #16]
 1129 04c2 0322     		mov	r2, #3
 1130 04c4 1A70     		strb	r2, [r3]
 531:main.c        ****         }
 1131              		.loc 1 531 0
 1132 04c6 0121     		mov	r1, #1
 1133 04c8 3023     		mov	r3, #48
 1134 04ca 1A4A     		ldr	r2, .L81+4
 1135 04cc D154     		strb	r1, [r2, r3]
 1136              	.L75:
 533:main.c        ****         {
 1137              		.loc 1 533 0
 1138 04ce 0320     		mov	r0, #3
 1139 04d0 FFF7FEFF 		bl	key_is_long_pressed
 1140              	.LVL31:
 1141 04d4 0028     		cmp	r0, #0
 1142 04d6 07D0     		beq	.L76
 535:main.c        ****             send_flag = TRUE;
 1143              		.loc 1 535 0
 1144 04d8 154B     		ldr	r3, .L81
 1145 04da 1B69     		ldr	r3, [r3, #16]
 1146 04dc 0422     		mov	r2, #4
 1147 04de 1A70     		strb	r2, [r3]
 536:main.c        ****         }
 1148              		.loc 1 536 0
 1149 04e0 0121     		mov	r1, #1
 1150 04e2 3023     		mov	r3, #48
 1151 04e4 134A     		ldr	r2, .L81+4
 1152 04e6 D154     		strb	r1, [r2, r3]
 1153              	.L76:
 539:main.c        ****         {
 1154              		.loc 1 539 0
 1155 04e8 114B     		ldr	r3, .L81
 1156 04ea 5B69     		ldr	r3, [r3, #20]
 1157 04ec 1B78     		ldrb	r3, [r3]
 1158 04ee 002B     		cmp	r3, #0
 1159 04f0 18D1     		bne	.L77
 541:main.c        ****             p_combine_function->ruo = 0;
 1160              		.loc 1 541 0
 1161 04f2 0F4B     		ldr	r3, .L81
 1162 04f4 9969     		ldr	r1, [r3, #24]
 1163 04f6 0A78     		ldrb	r2, [r1]
 1164 04f8 0420     		mov	r0, #4
 1165 04fa 8243     		bic	r2, r0
 1166 04fc 0A70     		strb	r2, [r1]
 542:main.c        ****             p_combine_function->zidong = 0;
 1167              		.loc 1 542 0
 1168 04fe 9969     		ldr	r1, [r3, #24]
 1169 0500 0A78     		ldrb	r2, [r1]
 1170 0502 0430     		add	r0, r0, #4
 1171 0504 8243     		bic	r2, r0
 1172 0506 0A70     		strb	r2, [r1]
 543:main.c        ****             p_combine_function->baidong = 0;
 1173              		.loc 1 543 0
 1174 0508 9969     		ldr	r1, [r3, #24]
 1175 050a 0A78     		ldrb	r2, [r1]
ARM GAS  C:\Users\Administrator\AppData\Local\Temp\cc5eEmVR.s 			page 36


 1176 050c 0830     		add	r0, r0, #8
 1177 050e 8243     		bic	r2, r0
 1178 0510 0A70     		strb	r2, [r1]
 544:main.c        ****             qiang_ruo_mode = QAING;
 1179              		.loc 1 544 0
 1180 0512 9A69     		ldr	r2, [r3, #24]
 1181 0514 1378     		ldrb	r3, [r2]
 1182 0516 0221     		mov	r1, #2
 1183 0518 8B43     		bic	r3, r1
 1184 051a 1370     		strb	r3, [r2]
 545:main.c        ****         }
 1185              		.loc 1 545 0
 1186 051c 0021     		mov	r1, #0
 1187 051e 3123     		mov	r3, #49
 1188 0520 044A     		ldr	r2, .L81+4
 1189 0522 D154     		strb	r1, [r2, r3]
 1190              	.L77:
 266:main.c        ****     {
 1191              		.loc 1 266 0 discriminator 2
 1192 0524 0134     		add	r4, r4, #1
 1193              	.LVL32:
 1194 0526 E4B2     		uxtb	r4, r4
 1195              	.LVL33:
 1196              	.L18:
 266:main.c        ****     {
 1197              		.loc 1 266 0 is_stmt 0 discriminator 1
 1198 0528 0B2C     		cmp	r4, #11
 1199 052a 00D8     		bhi	.LCB1072
 1200 052c 6BE5     		b	.L78	@long jump
 1201              	.LCB1072:
 548:main.c        **** static void beij_timer(void)
 1202              		.loc 1 548 0 is_stmt 1
 1203              		@ sp needed
 1204              	.LVL34:
 1205 052e 10BD     		pop	{r4, pc}
 1206              	.L82:
 1207              		.align	2
 1208              	.L81:
 1209 0530 00000000 		.word	.LANCHOR1
 1210 0534 00000000 		.word	.LANCHOR0
 1211              		.cfi_endproc
 1212              	.LFE39:
 1213              		.size	key_deal, .-key_deal
 1214              		.section	.text.match_code_mode,"ax",%progbits
 1215              		.align	2
 1216              		.code	16
 1217              		.thumb_func
 1218              		.type	match_code_mode, %function
 1219              	match_code_mode:
 1220              	.LFB41:
 577:main.c        ****  
 1221              		.loc 1 577 0
 1222              		.cfi_startproc
 1223 0000 08B5     		push	{r3, lr}
 1224              		.cfi_def_cfa_offset 8
 1225              		.cfi_offset 3, -8
 1226              		.cfi_offset 14, -4
ARM GAS  C:\Users\Administrator\AppData\Local\Temp\cc5eEmVR.s 			page 37


 580:main.c        ****     {
 1227              		.loc 1 580 0
 1228 0002 3423     		mov	r3, #52
 1229 0004 244A     		ldr	r2, .L91
 1230 0006 D35C     		ldrb	r3, [r2, r3]
 1231 0008 012B     		cmp	r3, #1
 1232 000a 15D0     		beq	.L85
 1233 000c 002B     		cmp	r3, #0
 1234 000e 02D0     		beq	.L86
 1235 0010 022B     		cmp	r3, #2
 1236 0012 19D0     		beq	.L87
 1237 0014 3EE0     		b	.L83
 1238              	.L86:
 583:main.c        ****             {
 1239              		.loc 1 583 0
 1240 0016 3323     		mov	r3, #51
 1241 0018 1F4A     		ldr	r2, .L91
 1242 001a D35C     		ldrb	r3, [r2, r3]
 1243 001c 002B     		cmp	r3, #0
 1244 001e 39D0     		beq	.L83
 585:main.c        ****                 match_code_state = WAIT_SHORT_PRESS;
 1245              		.loc 1 585 0
 1246 0020 131C     		mov	r3, r2
 1247 0022 0021     		mov	r1, #0
 1248 0024 3322     		mov	r2, #51
 1249 0026 9954     		strb	r1, [r3, r2]
 586:main.c        ****                 timing_set_counts(&match_code_wait, 3000);
 1250              		.loc 1 586 0
 1251 0028 0131     		add	r1, r1, #1
 1252 002a 0132     		add	r2, r2, #1
 1253 002c 9954     		strb	r1, [r3, r2]
 587:main.c        ****             }
 1254              		.loc 1 587 0
 1255 002e 1B48     		ldr	r0, .L91+4
 1256 0030 1B49     		ldr	r1, .L91+8
 1257 0032 FFF7FEFF 		bl	timing_set_counts
 1258              	.LVL35:
 1259 0036 2DE0     		b	.L83
 1260              	.L85:
 591:main.c        ****                 match_code_state = WAIT_SHORT_PRESS;
 1261              		.loc 1 591 0
 1262 0038 1848     		ldr	r0, .L91+4
 1263 003a FFF7FEFF 		bl	timing_count_end
 1264              	.LVL36:
 593:main.c        ****             //if(key_is_short_pressed(KEY_QING_RUO)) {}
 1265              		.loc 1 593 0
 1266 003e 0221     		mov	r1, #2
 1267 0040 3423     		mov	r3, #52
 1268 0042 154A     		ldr	r2, .L91
 1269 0044 D154     		strb	r1, [r2, r3]
 595:main.c        ****         case WAIT_MESSAGE:
 1270              		.loc 1 595 0
 1271 0046 25E0     		b	.L83
 1272              	.L87:
 597:main.c        ****                 match_code_state = WAIT_SHORT_PRESS;
 1273              		.loc 1 597 0
 1274 0048 1448     		ldr	r0, .L91+4
ARM GAS  C:\Users\Administrator\AppData\Local\Temp\cc5eEmVR.s 			page 38


 1275 004a FFF7FEFF 		bl	timing_count_end
 1276              	.LVL37:
 1277 004e 0028     		cmp	r0, #0
 1278 0050 03D0     		beq	.L89
 598:main.c        ****             if (receive_data_by_A7105(16, receive_buffer))
 1279              		.loc 1 598 0
 1280 0052 0121     		mov	r1, #1
 1281 0054 3423     		mov	r3, #52
 1282 0056 104A     		ldr	r2, .L91
 1283 0058 D154     		strb	r1, [r2, r3]
 1284              	.L89:
 599:main.c        ****             {
 1285              		.loc 1 599 0
 1286 005a 1020     		mov	r0, #16
 1287 005c 0E49     		ldr	r1, .L91
 1288 005e 3831     		add	r1, r1, #56
 1289 0060 FFF7FEFF 		bl	receive_data_by_A7105
 1290              	.LVL38:
 1291 0064 0028     		cmp	r0, #0
 1292 0066 15D0     		beq	.L83
 601:main.c        ****                 {
 1293              		.loc 1 601 0
 1294 0068 0B48     		ldr	r0, .L91
 1295 006a 3E30     		add	r0, r0, #62
 1296 006c 0D49     		ldr	r1, .L91+12
 1297 006e FFF7FEFF 		bl	ID_check_ok
 1298              	.LVL39:
 1299 0072 0028     		cmp	r0, #0
 1300 0074 0AD0     		beq	.L90
 603:main.c        ****                     dest_ID[1] = receive_buffer[3];
 1301              		.loc 1 603 0
 1302 0076 084B     		ldr	r3, .L91
 1303 0078 1A1C     		mov	r2, r3
 1304 007a 3832     		add	r2, r2, #56
 1305 007c 9178     		ldrb	r1, [r2, #2]
 1306 007e 1976     		strb	r1, [r3, #24]
 604:main.c        ****                     dest_ID[2] = receive_buffer[4];
 1307              		.loc 1 604 0
 1308 0080 D178     		ldrb	r1, [r2, #3]
 1309 0082 5976     		strb	r1, [r3, #25]
 605:main.c        ****                     dest_ID[3] = receive_buffer[5];
 1310              		.loc 1 605 0
 1311 0084 1179     		ldrb	r1, [r2, #4]
 1312 0086 9976     		strb	r1, [r3, #26]
 606:main.c        ****                 }
 1313              		.loc 1 606 0
 1314 0088 5279     		ldrb	r2, [r2, #5]
 1315 008a DA76     		strb	r2, [r3, #27]
 1316              	.L90:
 608:main.c        ****             }
 1317              		.loc 1 608 0
 1318 008c 0121     		mov	r1, #1
 1319 008e 3423     		mov	r3, #52
 1320 0090 014A     		ldr	r2, .L91
 1321 0092 D154     		strb	r1, [r2, r3]
 1322              	.L83:
 612:main.c        **** 
ARM GAS  C:\Users\Administrator\AppData\Local\Temp\cc5eEmVR.s 			page 39


 1323              		.loc 1 612 0
 1324              		@ sp needed
 1325 0094 08BD     		pop	{r3, pc}
 1326              	.L92:
 1327 0096 C046     		.align	2
 1328              	.L91:
 1329 0098 00000000 		.word	.LANCHOR0
 1330 009c 00000000 		.word	match_code_wait
 1331 00a0 B80B0000 		.word	3000
 1332 00a4 00000000 		.word	.LANCHOR1
 1333              		.cfi_endproc
 1334              	.LFE41:
 1335              		.size	match_code_mode, .-match_code_mode
 1336              		.section	.text.time_1ms_Interrupt,"ax",%progbits
 1337              		.align	2
 1338              		.global	time_1ms_Interrupt
 1339              		.code	16
 1340              		.thumb_func
 1341              		.type	time_1ms_Interrupt, %function
 1342              	time_1ms_Interrupt:
 1343              	.LFB36:
 225:main.c        ****     timer_count++;
 1344              		.loc 1 225 0
 1345              		.cfi_startproc
 1346 0000 08B5     		push	{r3, lr}
 1347              		.cfi_def_cfa_offset 8
 1348              		.cfi_offset 3, -8
 1349              		.cfi_offset 14, -4
 226:main.c        ****     timing_count();
 1350              		.loc 1 226 0
 1351 0002 0549     		ldr	r1, .L94
 1352 0004 5022     		mov	r2, #80
 1353 0006 8B5A     		ldrh	r3, [r1, r2]
 1354 0008 0133     		add	r3, r3, #1
 1355 000a 8B52     		strh	r3, [r1, r2]
 227:main.c        ****     Timer_1_ClearInterrupt(Timer_1_INTR_MASK_TC);
 1356              		.loc 1 227 0
 1357 000c FFF7FEFF 		bl	timing_count
 1358              	.LVL40:
 228:main.c        **** }
 1359              		.loc 1 228 0
 1360 0010 0120     		mov	r0, #1
 1361 0012 FFF7FEFF 		bl	Timer_1_ClearInterrupt
 1362              	.LVL41:
 229:main.c        **** 
 1363              		.loc 1 229 0
 1364              		@ sp needed
 1365 0016 08BD     		pop	{r3, pc}
 1366              	.L95:
 1367              		.align	2
 1368              	.L94:
 1369 0018 00000000 		.word	.LANCHOR0
 1370              		.cfi_endproc
 1371              	.LFE36:
 1372              		.size	time_1ms_Interrupt, .-time_1ms_Interrupt
 1373              		.section	.text.gio1_interrupt,"ax",%progbits
 1374              		.align	2
ARM GAS  C:\Users\Administrator\AppData\Local\Temp\cc5eEmVR.s 			page 40


 1375              		.global	gio1_interrupt
 1376              		.code	16
 1377              		.thumb_func
 1378              		.type	gio1_interrupt, %function
 1379              	gio1_interrupt:
 1380              	.LFB37:
 232:main.c        ****     A7105_update_wtr(TRUE);
 1381              		.loc 1 232 0
 1382              		.cfi_startproc
 1383 0000 08B5     		push	{r3, lr}
 1384              		.cfi_def_cfa_offset 8
 1385              		.cfi_offset 3, -8
 1386              		.cfi_offset 14, -4
 233:main.c        ****     GIO1_ClearInterrupt();
 1387              		.loc 1 233 0
 1388 0002 0120     		mov	r0, #1
 1389 0004 FFF7FEFF 		bl	A7105_update_wtr
 1390              	.LVL42:
 234:main.c        **** }
 1391              		.loc 1 234 0
 1392 0008 FFF7FEFF 		bl	GIO1_ClearInterrupt
 1393              	.LVL43:
 235:main.c        **** 
 1394              		.loc 1 235 0
 1395              		@ sp needed
 1396 000c 08BD     		pop	{r3, pc}
 1397              		.cfi_endproc
 1398              	.LFE37:
 1399              		.size	gio1_interrupt, .-gio1_interrupt
 1400 000e C046     		.section	.text.main,"ax",%progbits
 1401              		.align	2
 1402              		.global	main
 1403              		.code	16
 1404              		.thumb_func
 1405              		.type	main, %function
 1406              	main:
 1407              	.LFB35:
 138:main.c        ****     /* Place your initialization/startup code here (e.g. MyInst_Start()) */
 1408              		.loc 1 138 0
 1409              		.cfi_startproc
 1410 0000 10B5     		push	{r4, lr}
 1411              		.cfi_def_cfa_offset 8
 1412              		.cfi_offset 4, -8
 1413              		.cfi_offset 14, -4
 141:main.c        ****     //A7105_init();
 1414              		.loc 1 141 0
 1415              	@ 141 "main.c" 1
 1416 0002 62B6     		CPSIE   i
 1417              	@ 0 "" 2
 143:main.c        ****     GIO1_ISR_Disable();         //ç«¯å£é»˜è®¤ç”µå¹³æ˜¯é«˜ç”µå¹³ï¼Œéœ€è¦å¿½ç•¥è¿™ä¸ªä¸‹é™æ²¿
 1418              		.loc 1 143 0
 1419              		.code	16
 1420 0004 FFF7FEFF 		bl	key_init
 1421              	.LVL44:
 144:main.c        ****     GIO1_Write(0);
 1422              		.loc 1 144 0
 1423 0008 FFF7FEFF 		bl	GIO1_ISR_Disable
ARM GAS  C:\Users\Administrator\AppData\Local\Temp\cc5eEmVR.s 			page 41


 1424              	.LVL45:
 145:main.c        ****     GIO1_ISR_ClearPending();
 1425              		.loc 1 145 0
 1426 000c 0020     		mov	r0, #0
 1427 000e FFF7FEFF 		bl	GIO1_Write
 1428              	.LVL46:
 146:main.c        ****     GIO1_ISR_Enable();
 1429              		.loc 1 146 0
 1430 0012 FFF7FEFF 		bl	GIO1_ISR_ClearPending
 1431              	.LVL47:
 147:main.c        ****     
 1432              		.loc 1 147 0
 1433 0016 FFF7FEFF 		bl	GIO1_ISR_Enable
 1434              	.LVL48:
 152:main.c        ****     /*
 1435              		.loc 1 152 0
 1436 001a FFF7FEFF 		bl	EZI2C_Start
 1437              	.LVL49:
 157:main.c        **** 
 1438              		.loc 1 157 0
 1439 001e BE21     		mov	r1, #190
 1440 0020 4900     		lsl	r1, r1, #1
 1441 0022 081C     		mov	r0, r1
 1442 0024 314A     		ldr	r2, .L103
 1443 0026 FFF7FEFF 		bl	EZI2C_EzI2CSetBuffer1
 1444              	.LVL50:
 160:main.c        ****     
 1445              		.loc 1 160 0
 1446 002a FFF7FEFF 		bl	Timer_1_Start
 1447              	.LVL51:
 162:main.c        ****     GIO1_ISR_StartEx(gio1_interrupt);            //æŒ‡å®šå¤–éƒ¨ä¸­æ–­GIO1ä¸­æ–­å‡½æ•°
 1448              		.loc 1 162 0
 1449 002e 3048     		ldr	r0, .L103+4
 1450 0030 FFF7FEFF 		bl	time_1ms_ISR_StartEx
 1451              	.LVL52:
 163:main.c        ****     key_touch_Start(); /* Initialize Component */
 1452              		.loc 1 163 0
 1453 0034 2F48     		ldr	r0, .L103+8
 1454 0036 FFF7FEFF 		bl	GIO1_ISR_StartEx
 1455              	.LVL53:
 164:main.c        ****     key_touch_ScanAllWidgets(); /* Scan all widgets */
 1456              		.loc 1 164 0
 1457 003a FFF7FEFF 		bl	key_touch_Start
 1458              	.LVL54:
 165:main.c        **** #ifdef SEND_TUNE_SWITCH
 1459              		.loc 1 165 0
 1460 003e FFF7FEFF 		bl	key_touch_ScanAllWidgets
 1461              	.LVL55:
 167:main.c        **** #endif
 1462              		.loc 1 167 0
 1463 0042 FFF7FEFF 		bl	simple_protocol_init
 1464              	.LVL56:
 169:main.c        ****     (*xiaoshi) = beij_h;
 1465              		.loc 1 169 0
 1466 0046 2C4B     		ldr	r3, .L103+12
 1467 0048 2C4A     		ldr	r2, .L103+16
 1468 004a 927F     		ldrb	r2, [r2, #30]
ARM GAS  C:\Users\Administrator\AppData\Local\Temp\cc5eEmVR.s 			page 42


 1469 004c 5968     		ldr	r1, [r3, #4]
 1470 004e 0A70     		strb	r2, [r1]
 170:main.c        ****     for(;;)
 1471              		.loc 1 170 0
 1472 0050 DA68     		ldr	r2, [r3, #12]
 1473 0052 1B7A     		ldrb	r3, [r3, #8]
 1474 0054 1370     		strb	r3, [r2]
 1475              	.L102:
 174:main.c        ****         {   
 1476              		.loc 1 174 0
 1477 0056 5023     		mov	r3, #80
 1478 0058 284A     		ldr	r2, .L103+16
 1479 005a D35A     		ldrh	r3, [r2, r3]
 1480 005c 092B     		cmp	r3, #9
 1481 005e 1DD9     		bls	.L98
 176:main.c        ****             timer_10ms++;
 1482              		.loc 1 176 0
 1483 0060 0021     		mov	r1, #0
 1484 0062 5023     		mov	r3, #80
 1485 0064 D152     		strh	r1, [r2, r3]
 177:main.c        ****             LCD_on_count++;
 1486              		.loc 1 177 0
 1487 0066 137F     		ldrb	r3, [r2, #28]
 1488 0068 0133     		add	r3, r3, #1
 1489 006a 1377     		strb	r3, [r2, #28]
 178:main.c        ****             
 1490              		.loc 1 178 0
 1491 006c 5231     		add	r1, r1, #82
 1492 006e 535A     		ldrh	r3, [r2, r1]
 1493 0070 0133     		add	r3, r3, #1
 1494 0072 9BB2     		uxth	r3, r3
 1495 0074 5352     		strh	r3, [r2, r1]
 180:main.c        ****                 LCD_on_count = 10000;
 1496              		.loc 1 180 0
 1497 0076 224A     		ldr	r2, .L103+20
 1498 0078 9342     		cmp	r3, r2
 1499 007a 03D9     		bls	.L99
 181:main.c        ****             
 1500              		.loc 1 181 0
 1501 007c 2149     		ldr	r1, .L103+24
 1502 007e 5223     		mov	r3, #82
 1503 0080 1E4A     		ldr	r2, .L103+16
 1504 0082 D152     		strh	r1, [r2, r3]
 1505              	.L99:
 183:main.c        ****             {
 1506              		.loc 1 183 0
 1507 0084 FFF7FEFF 		bl	key_touch_IsBusy
 1508              	.LVL57:
 1509 0088 0028     		cmp	r0, #0
 1510 008a 07D1     		bne	.L98
 185:main.c        ****                 
 1511              		.loc 1 185 0
 1512 008c FFF7FEFF 		bl	key_touch_ProcessAllWidgets
 1513              	.LVL58:
 188:main.c        ****     #endif
 1514              		.loc 1 188 0
 1515 0090 FFF7FEFF 		bl	key_touch_RunTuner
ARM GAS  C:\Users\Administrator\AppData\Local\Temp\cc5eEmVR.s 			page 43


 1516              	.LVL59:
 190:main.c        ****                 
 1517              		.loc 1 190 0
 1518 0094 FFF7FEFF 		bl	key_scan
 1519              	.LVL60:
 192:main.c        ****             }
 1520              		.loc 1 192 0
 1521 0098 FFF7FEFF 		bl	key_touch_ScanAllWidgets
 1522              	.LVL61:
 1523              	.L98:
 195:main.c        ****         
 1524              		.loc 1 195 0
 1525 009c FFF7FEFF 		bl	beij_timer
 1526              	.LVL62:
 197:main.c        ****         {
 1527              		.loc 1 197 0
 1528 00a0 5223     		mov	r3, #82
 1529 00a2 164A     		ldr	r2, .L103+16
 1530 00a4 D25A     		ldrh	r2, [r2, r3]
 1531 00a6 C823     		mov	r3, #200
 1532 00a8 9B00     		lsl	r3, r3, #2
 1533 00aa 9A42     		cmp	r2, r3
 1534 00ac 07D9     		bls	.L100
 199:main.c        ****             {
 1535              		.loc 1 199 0
 1536 00ae 5423     		mov	r3, #84
 1537 00b0 124A     		ldr	r2, .L103+16
 1538 00b2 D35C     		ldrb	r3, [r2, r3]
 1539 00b4 002B     		cmp	r3, #0
 1540 00b6 02D0     		beq	.L100
 201:main.c        ****             }
 1541              		.loc 1 201 0
 1542 00b8 0021     		mov	r1, #0
 1543 00ba 5423     		mov	r3, #84
 1544 00bc D154     		strb	r1, [r2, r3]
 1545              	.L100:
 204:main.c        ****         match_code_mode();
 1546              		.loc 1 204 0
 1547 00be FFF7FEFF 		bl	key_deal
 1548              	.LVL63:
 205:main.c        ****         
 1549              		.loc 1 205 0
 1550 00c2 FFF7FEFF 		bl	match_code_mode
 1551              	.LVL64:
 208:main.c        ****         {
 1552              		.loc 1 208 0
 1553 00c6 3023     		mov	r3, #48
 1554 00c8 0C4A     		ldr	r2, .L103+16
 1555 00ca D35C     		ldrb	r3, [r2, r3]
 1556 00cc 002B     		cmp	r3, #0
 1557 00ce 0AD0     		beq	.L101
 210:main.c        ****             make_data(send_show_buffer);
 1558              		.loc 1 210 0
 1559 00d0 141C     		mov	r4, r2
 1560 00d2 0022     		mov	r2, #0
 1561 00d4 3023     		mov	r3, #48
 1562 00d6 E254     		strb	r2, [r4, r3]
ARM GAS  C:\Users\Administrator\AppData\Local\Temp\cc5eEmVR.s 			page 44


 211:main.c        ****             //simple_protocol_send(send_buffer, DATA_BUFFER_LENGTH); 
 1563              		.loc 1 211 0
 1564 00d8 2034     		add	r4, r4, #32
 1565 00da 201C     		mov	r0, r4
 1566 00dc FFF7FEFF 		bl	make_data
 1567              	.LVL65:
 213:main.c        ****             //send_data_by_A7105(DATA_BUFFER_LENGTH, send_buffer);
 1568              		.loc 1 213 0
 1569 00e0 201C     		mov	r0, r4
 1570 00e2 FFF7FEFF 		bl	make_data
 1571              	.LVL66:
 1572              	.L101:
 217:main.c        ****         #endif
 1573              		.loc 1 217 0
 1574 00e6 FFF7FEFF 		bl	simple_protocol_process
 1575              	.LVL67:
 221:main.c        **** }
 1576              		.loc 1 221 0
 1577 00ea B4E7     		b	.L102
 1578              	.L104:
 1579              		.align	2
 1580              	.L103:
 1581 00ec 00000000 		.word	key_touch_dsRam
 1582 00f0 00000000 		.word	time_1ms_Interrupt
 1583 00f4 00000000 		.word	gio1_interrupt
 1584 00f8 00000000 		.word	.LANCHOR1
 1585 00fc 00000000 		.word	.LANCHOR0
 1586 0100 50C30000 		.word	50000
 1587 0104 10270000 		.word	10000
 1588              		.cfi_endproc
 1589              	.LFE35:
 1590              		.size	main, .-main
 1591              		.comm	match_code_wait,6,4
 1592              		.global	match_code
 1593              		.global	match_code_state
 1594              		.global	LCD_on_count
 1595              		.global	lcd_on
 1596              		.global	beij_h
 1597              		.global	beij_m
 1598              		.global	beij_s
 1599              		.global	send_flag
 1600              		.global	qiang_ruo_mode
 1601              		.global	zhi_neng_mode
 1602              		.global	temp_fengnuan
 1603              		.global	temp_xin_feng_qn
 1604              		.global	time_zhi_mu
 1605              		.global	time_zhi_jing
 1606              		.global	time_xin_feng_qu_nuan
 1607              		.global	time_xin_feng
 1608              		.global	time_huan_qi
 1609              		.global	time_feng_nuan
 1610              		.global	fenzhong
 1611              		.global	xiaoshi
 1612              		.global	dingshi
 1613              		.global	wendu
 1614              		.global	p_mutex_function
 1615              		.global	p_combine_function
ARM GAS  C:\Users\Administrator\AppData\Local\Temp\cc5eEmVR.s 			page 45


 1616              		.global	command_type
 1617              		.global	dest_ID
 1618              		.global	src_ID
 1619              		.global	timer_count
 1620              		.global	receive_buffer
 1621              		.global	send_show_buffer
 1622              		.global	send_buffer
 1623              		.global	t
 1624              		.global	mutex_function_mode
 1625              		.data
 1626              		.align	2
 1627              		.set	.LANCHOR1,. + 0
 1628              		.type	src_ID, %object
 1629              		.size	src_ID, 4
 1630              	src_ID:
 1631 0000 01       		.byte	1
 1632 0001 02       		.byte	2
 1633 0002 03       		.byte	3
 1634 0003 04       		.byte	4
 1635              		.type	fenzhong, %object
 1636              		.size	fenzhong, 4
 1637              	fenzhong:
 1638 0004 06000000 		.word	send_show_buffer+6
 1639              		.type	beij_h, %object
 1640              		.size	beij_h, 1
 1641              	beij_h:
 1642 0008 0C       		.byte	12
 1643 0009 000000   		.space	3
 1644              		.type	xiaoshi, %object
 1645              		.size	xiaoshi, 4
 1646              	xiaoshi:
 1647 000c 05000000 		.word	send_show_buffer+5
 1648              		.type	command_type, %object
 1649              		.size	command_type, 4
 1650              	command_type:
 1651 0010 00000000 		.word	send_show_buffer
 1652              		.type	p_mutex_function, %object
 1653              		.size	p_mutex_function, 4
 1654              	p_mutex_function:
 1655 0014 02000000 		.word	send_show_buffer+2
 1656              		.type	p_combine_function, %object
 1657              		.size	p_combine_function, 4
 1658              	p_combine_function:
 1659 0018 01000000 		.word	send_show_buffer+1
 1660              		.type	wendu, %object
 1661              		.size	wendu, 4
 1662              	wendu:
 1663 001c 03000000 		.word	send_show_buffer+3
 1664              		.type	dingshi, %object
 1665              		.size	dingshi, 4
 1666              	dingshi:
 1667 0020 04000000 		.word	send_show_buffer+4
 1668              		.type	temp_fengnuan, %object
 1669              		.size	temp_fengnuan, 1
 1670              	temp_fengnuan:
 1671 0024 23       		.byte	35
 1672              		.type	temp_xin_feng_qn, %object
ARM GAS  C:\Users\Administrator\AppData\Local\Temp\cc5eEmVR.s 			page 46


 1673              		.size	temp_xin_feng_qn, 1
 1674              	temp_xin_feng_qn:
 1675 0025 23       		.byte	35
 1676              		.type	time_zhi_mu, %object
 1677              		.size	time_zhi_mu, 1
 1678              	time_zhi_mu:
 1679 0026 5A       		.byte	90
 1680              		.type	time_zhi_jing, %object
 1681              		.size	time_zhi_jing, 1
 1682              	time_zhi_jing:
 1683 0027 78       		.byte	120
 1684              		.type	time_xin_feng_qu_nuan, %object
 1685              		.size	time_xin_feng_qu_nuan, 1
 1686              	time_xin_feng_qu_nuan:
 1687 0028 5A       		.byte	90
 1688              		.type	time_xin_feng, %object
 1689              		.size	time_xin_feng, 1
 1690              	time_xin_feng:
 1691 0029 1E       		.byte	30
 1692              		.type	time_huan_qi, %object
 1693              		.size	time_huan_qi, 1
 1694              	time_huan_qi:
 1695 002a 1E       		.byte	30
 1696              		.type	time_feng_nuan, %object
 1697              		.size	time_feng_nuan, 1
 1698              	time_feng_nuan:
 1699 002b 5A       		.byte	90
 1700              		.bss
 1701              		.align	2
 1702              		.set	.LANCHOR0,. + 0
 1703              		.type	send_buffer, %object
 1704              		.size	send_buffer, 24
 1705              	send_buffer:
 1706 0000 00000000 		.space	24
 1706      00000000 
 1706      00000000 
 1706      00000000 
 1706      00000000 
 1707              		.type	dest_ID, %object
 1708              		.size	dest_ID, 4
 1709              	dest_ID:
 1710 0018 00000000 		.space	4
 1711              		.type	timer_10ms, %object
 1712              		.size	timer_10ms, 1
 1713              	timer_10ms:
 1714 001c 00       		.space	1
 1715              		.type	beij_s, %object
 1716              		.size	beij_s, 1
 1717              	beij_s:
 1718 001d 00       		.space	1
 1719              		.type	beij_m, %object
 1720              		.size	beij_m, 1
 1721              	beij_m:
 1722 001e 00       		.space	1
 1723 001f 00       		.space	1
 1724              		.type	send_show_buffer, %object
 1725              		.size	send_show_buffer, 16
ARM GAS  C:\Users\Administrator\AppData\Local\Temp\cc5eEmVR.s 			page 47


 1726              	send_show_buffer:
 1727 0020 00000000 		.space	16
 1727      00000000 
 1727      00000000 
 1727      00000000 
 1728              		.type	send_flag, %object
 1729              		.size	send_flag, 1
 1730              	send_flag:
 1731 0030 00       		.space	1
 1732              		.type	qiang_ruo_mode, %object
 1733              		.size	qiang_ruo_mode, 1
 1734              	qiang_ruo_mode:
 1735 0031 00       		.space	1
 1736              		.type	zhi_neng_mode, %object
 1737              		.size	zhi_neng_mode, 1
 1738              	zhi_neng_mode:
 1739 0032 00       		.space	1
 1740              		.type	match_code, %object
 1741              		.size	match_code, 1
 1742              	match_code:
 1743 0033 00       		.space	1
 1744              		.type	match_code_state, %object
 1745              		.size	match_code_state, 1
 1746              	match_code_state:
 1747 0034 00       		.space	1
 1748 0035 000000   		.space	3
 1749              		.type	receive_buffer, %object
 1750              		.size	receive_buffer, 24
 1751              	receive_buffer:
 1752 0038 00000000 		.space	24
 1752      00000000 
 1752      00000000 
 1752      00000000 
 1752      00000000 
 1753              		.type	timer_count, %object
 1754              		.size	timer_count, 2
 1755              	timer_count:
 1756 0050 0000     		.space	2
 1757              		.type	LCD_on_count, %object
 1758              		.size	LCD_on_count, 2
 1759              	LCD_on_count:
 1760 0052 0000     		.space	2
 1761              		.type	lcd_on, %object
 1762              		.size	lcd_on, 1
 1763              	lcd_on:
 1764 0054 00       		.space	1
 1765              		.type	t, %object
 1766              		.size	t, 1
 1767              	t:
 1768 0055 00       		.space	1
 1769              		.type	mutex_function_mode, %object
 1770              		.size	mutex_function_mode, 1
 1771              	mutex_function_mode:
 1772 0056 00       		.space	1
 1773 0057 00       		.text
 1774              	.Letext0:
 1775              		.file 2 "Generated_Source\\PSoC4/cytypes.h"
ARM GAS  C:\Users\Administrator\AppData\Local\Temp\cc5eEmVR.s 			page 48


 1776              		.file 3 "Generated_Source\\PSoC4/key_touch_Configuration.h"
 1777              		.file 4 "Generated_Source\\PSoC4/key_touch_Structure.h"
 1778              		.file 5 "types.h"
 1779              		.file 6 "timing.h"
 1780              		.file 7 "key.h"
 1781              		.file 8 "A7105_driver.h"
 1782              		.file 9 "Generated_Source\\PSoC4/Timer_1.h"
 1783              		.file 10 "A7105_firmware_lib.h"
 1784              		.file 11 "Generated_Source\\PSoC4/GIO1_ISR.h"
 1785              		.file 12 "Generated_Source\\PSoC4/GIO1.h"
 1786              		.file 13 "Generated_Source\\PSoC4/EZI2C.h"
 1787              		.file 14 "Generated_Source\\PSoC4/EZI2C_EZI2C.h"
 1788              		.file 15 "Generated_Source\\PSoC4/time_1ms_ISR.h"
 1789              		.file 16 "Generated_Source\\PSoC4/key_touch_Control.h"
 1790              		.file 17 "Generated_Source\\PSoC4/key_touch_Sensing.h"
 1791              		.file 18 "simple_protocol.h"
 1792              		.file 19 "Generated_Source\\PSoC4/key_touch_Tuner.h"
 1793              		.section	.debug_info,"",%progbits
 1794              	.Ldebug_info0:
 1795 0000 CB0E0000 		.4byte	0xecb
 1796 0004 0400     		.2byte	0x4
 1797 0006 00000000 		.4byte	.Ldebug_abbrev0
 1798 000a 04       		.byte	0x4
 1799 000b 01       		.uleb128 0x1
 1800 000c 00000000 		.4byte	.LASF206
 1801 0010 01       		.byte	0x1
 1802 0011 92000000 		.4byte	.LASF207
 1803 0015 9A080000 		.4byte	.LASF208
 1804 0019 00000000 		.4byte	.Ldebug_ranges0+0
 1805 001d 00000000 		.4byte	0
 1806 0021 00000000 		.4byte	.Ldebug_line0
 1807 0025 02       		.uleb128 0x2
 1808 0026 01       		.byte	0x1
 1809 0027 06       		.byte	0x6
 1810 0028 1C0A0000 		.4byte	.LASF0
 1811 002c 02       		.uleb128 0x2
 1812 002d 01       		.byte	0x1
 1813 002e 08       		.byte	0x8
 1814 002f 78090000 		.4byte	.LASF1
 1815 0033 02       		.uleb128 0x2
 1816 0034 02       		.byte	0x2
 1817 0035 05       		.byte	0x5
 1818 0036 58070000 		.4byte	.LASF2
 1819 003a 02       		.uleb128 0x2
 1820 003b 02       		.byte	0x2
 1821 003c 07       		.byte	0x7
 1822 003d 360A0000 		.4byte	.LASF3
 1823 0041 02       		.uleb128 0x2
 1824 0042 04       		.byte	0x4
 1825 0043 05       		.byte	0x5
 1826 0044 89070000 		.4byte	.LASF4
 1827 0048 02       		.uleb128 0x2
 1828 0049 04       		.byte	0x4
 1829 004a 07       		.byte	0x7
 1830 004b FE080000 		.4byte	.LASF5
 1831 004f 02       		.uleb128 0x2
 1832 0050 08       		.byte	0x8
ARM GAS  C:\Users\Administrator\AppData\Local\Temp\cc5eEmVR.s 			page 49


 1833 0051 05       		.byte	0x5
 1834 0052 3F050000 		.4byte	.LASF6
 1835 0056 02       		.uleb128 0x2
 1836 0057 08       		.byte	0x8
 1837 0058 07       		.byte	0x7
 1838 0059 BA020000 		.4byte	.LASF7
 1839 005d 03       		.uleb128 0x3
 1840 005e 04       		.byte	0x4
 1841 005f 05       		.byte	0x5
 1842 0060 696E7400 		.ascii	"int\000"
 1843 0064 02       		.uleb128 0x2
 1844 0065 04       		.byte	0x4
 1845 0066 07       		.byte	0x7
 1846 0067 35010000 		.4byte	.LASF8
 1847 006b 04       		.uleb128 0x4
 1848 006c 830A0000 		.4byte	.LASF9
 1849 0070 02       		.byte	0x2
 1850 0071 B901     		.2byte	0x1b9
 1851 0073 2C000000 		.4byte	0x2c
 1852 0077 04       		.uleb128 0x4
 1853 0078 B6040000 		.4byte	.LASF10
 1854 007c 02       		.byte	0x2
 1855 007d BA01     		.2byte	0x1ba
 1856 007f 3A000000 		.4byte	0x3a
 1857 0083 04       		.uleb128 0x4
 1858 0084 5D060000 		.4byte	.LASF11
 1859 0088 02       		.byte	0x2
 1860 0089 BB01     		.2byte	0x1bb
 1861 008b 48000000 		.4byte	0x48
 1862 008f 02       		.uleb128 0x2
 1863 0090 04       		.byte	0x4
 1864 0091 04       		.byte	0x4
 1865 0092 AC020000 		.4byte	.LASF12
 1866 0096 02       		.uleb128 0x2
 1867 0097 08       		.byte	0x8
 1868 0098 04       		.byte	0x4
 1869 0099 890A0000 		.4byte	.LASF13
 1870 009d 02       		.uleb128 0x2
 1871 009e 01       		.byte	0x1
 1872 009f 08       		.byte	0x8
 1873 00a0 7E040000 		.4byte	.LASF14
 1874 00a4 04       		.uleb128 0x4
 1875 00a5 5B090000 		.4byte	.LASF15
 1876 00a9 02       		.byte	0x2
 1877 00aa 5B02     		.2byte	0x25b
 1878 00ac 48000000 		.4byte	0x48
 1879 00b0 05       		.uleb128 0x5
 1880 00b1 6B000000 		.4byte	0x6b
 1881 00b5 04       		.uleb128 0x4
 1882 00b6 00060000 		.4byte	.LASF16
 1883 00ba 02       		.byte	0x2
 1884 00bb 7502     		.2byte	0x275
 1885 00bd C1000000 		.4byte	0xc1
 1886 00c1 06       		.uleb128 0x6
 1887 00c2 04       		.byte	0x4
 1888 00c3 C7000000 		.4byte	0xc7
 1889 00c7 07       		.uleb128 0x7
ARM GAS  C:\Users\Administrator\AppData\Local\Temp\cc5eEmVR.s 			page 50


 1890 00c8 04       		.uleb128 0x4
 1891 00c9 70070000 		.4byte	.LASF17
 1892 00cd 03       		.byte	0x3
 1893 00ce 0301     		.2byte	0x103
 1894 00d0 77000000 		.4byte	0x77
 1895 00d4 04       		.uleb128 0x4
 1896 00d5 83010000 		.4byte	.LASF18
 1897 00d9 03       		.byte	0x3
 1898 00da 0701     		.2byte	0x107
 1899 00dc 6B000000 		.4byte	0x6b
 1900 00e0 08       		.uleb128 0x8
 1901 00e1 2C000000 		.4byte	0x2c
 1902 00e5 F0000000 		.4byte	0xf0
 1903 00e9 09       		.uleb128 0x9
 1904 00ea F0000000 		.4byte	0xf0
 1905 00ee 03       		.byte	0x3
 1906 00ef 00       		.byte	0
 1907 00f0 02       		.uleb128 0x2
 1908 00f1 04       		.byte	0x4
 1909 00f2 07       		.byte	0x7
 1910 00f3 E7080000 		.4byte	.LASF19
 1911 00f7 06       		.uleb128 0x6
 1912 00f8 04       		.byte	0x4
 1913 00f9 2C000000 		.4byte	0x2c
 1914 00fd 08       		.uleb128 0x8
 1915 00fe 6B000000 		.4byte	0x6b
 1916 0102 0D010000 		.4byte	0x10d
 1917 0106 09       		.uleb128 0x9
 1918 0107 F0000000 		.4byte	0xf0
 1919 010b 00       		.byte	0
 1920 010c 00       		.byte	0
 1921 010d 0A       		.uleb128 0xa
 1922 010e 12       		.byte	0x12
 1923 010f 04       		.byte	0x4
 1924 0110 CA       		.byte	0xca
 1925 0111 B6010000 		.4byte	0x1b6
 1926 0115 0B       		.uleb128 0xb
 1927 0116 E5040000 		.4byte	.LASF20
 1928 011a 04       		.byte	0x4
 1929 011b D0       		.byte	0xd0
 1930 011c 77000000 		.4byte	0x77
 1931 0120 00       		.byte	0
 1932 0121 0B       		.uleb128 0xb
 1933 0122 35090000 		.4byte	.LASF21
 1934 0126 04       		.byte	0x4
 1935 0127 D5       		.byte	0xd5
 1936 0128 C8000000 		.4byte	0xc8
 1937 012c 02       		.byte	0x2
 1938 012d 0B       		.uleb128 0xb
 1939 012e 76040000 		.4byte	.LASF22
 1940 0132 04       		.byte	0x4
 1941 0133 DA       		.byte	0xda
 1942 0134 6B000000 		.4byte	0x6b
 1943 0138 04       		.byte	0x4
 1944 0139 0B       		.uleb128 0xb
 1945 013a EC050000 		.4byte	.LASF23
 1946 013e 04       		.byte	0x4
ARM GAS  C:\Users\Administrator\AppData\Local\Temp\cc5eEmVR.s 			page 51


 1947 013f DF       		.byte	0xdf
 1948 0140 6B000000 		.4byte	0x6b
 1949 0144 05       		.byte	0x5
 1950 0145 0B       		.uleb128 0xb
 1951 0146 F4030000 		.4byte	.LASF24
 1952 014a 04       		.byte	0x4
 1953 014b E4       		.byte	0xe4
 1954 014c 6B000000 		.4byte	0x6b
 1955 0150 06       		.byte	0x6
 1956 0151 0B       		.uleb128 0xb
 1957 0152 82050000 		.4byte	.LASF25
 1958 0156 04       		.byte	0x4
 1959 0157 E9       		.byte	0xe9
 1960 0158 6B000000 		.4byte	0x6b
 1961 015c 07       		.byte	0x7
 1962 015d 0B       		.uleb128 0xb
 1963 015e 17040000 		.4byte	.LASF26
 1964 0162 04       		.byte	0x4
 1965 0163 EF       		.byte	0xef
 1966 0164 D4000000 		.4byte	0xd4
 1967 0168 08       		.byte	0x8
 1968 0169 0B       		.uleb128 0xb
 1969 016a A2030000 		.4byte	.LASF27
 1970 016e 04       		.byte	0x4
 1971 016f F4       		.byte	0xf4
 1972 0170 6B000000 		.4byte	0x6b
 1973 0174 09       		.byte	0x9
 1974 0175 0B       		.uleb128 0xb
 1975 0176 10090000 		.4byte	.LASF28
 1976 017a 04       		.byte	0x4
 1977 017b FB       		.byte	0xfb
 1978 017c FD000000 		.4byte	0xfd
 1979 0180 0A       		.byte	0xa
 1980 0181 0C       		.uleb128 0xc
 1981 0182 020A0000 		.4byte	.LASF29
 1982 0186 04       		.byte	0x4
 1983 0187 0201     		.2byte	0x102
 1984 0189 6B000000 		.4byte	0x6b
 1985 018d 0B       		.byte	0xb
 1986 018e 0C       		.uleb128 0xc
 1987 018f 4B070000 		.4byte	.LASF30
 1988 0193 04       		.byte	0x4
 1989 0194 0701     		.2byte	0x107
 1990 0196 6B000000 		.4byte	0x6b
 1991 019a 0C       		.byte	0xc
 1992 019b 0C       		.uleb128 0xc
 1993 019c 85080000 		.4byte	.LASF31
 1994 01a0 04       		.byte	0x4
 1995 01a1 0D01     		.2byte	0x10d
 1996 01a3 77000000 		.4byte	0x77
 1997 01a7 0E       		.byte	0xe
 1998 01a8 0C       		.uleb128 0xc
 1999 01a9 ED030000 		.4byte	.LASF32
 2000 01ad 04       		.byte	0x4
 2001 01ae 1201     		.2byte	0x112
 2002 01b0 77000000 		.4byte	0x77
 2003 01b4 10       		.byte	0x10
ARM GAS  C:\Users\Administrator\AppData\Local\Temp\cc5eEmVR.s 			page 52


 2004 01b5 00       		.byte	0
 2005 01b6 04       		.uleb128 0x4
 2006 01b7 BF030000 		.4byte	.LASF33
 2007 01bb 04       		.byte	0x4
 2008 01bc 1301     		.2byte	0x113
 2009 01be 0D010000 		.4byte	0x10d
 2010 01c2 0D       		.uleb128 0xd
 2011 01c3 D8       		.byte	0xd8
 2012 01c4 04       		.byte	0x4
 2013 01c5 1901     		.2byte	0x119
 2014 01c7 68020000 		.4byte	0x268
 2015 01cb 0C       		.uleb128 0xc
 2016 01cc 27080000 		.4byte	.LASF34
 2017 01d0 04       		.byte	0x4
 2018 01d1 1E01     		.2byte	0x11e
 2019 01d3 B6010000 		.4byte	0x1b6
 2020 01d7 00       		.byte	0
 2021 01d8 0C       		.uleb128 0xc
 2022 01d9 2F080000 		.4byte	.LASF35
 2023 01dd 04       		.byte	0x4
 2024 01de 2301     		.2byte	0x123
 2025 01e0 B6010000 		.4byte	0x1b6
 2026 01e4 12       		.byte	0x12
 2027 01e5 0C       		.uleb128 0xc
 2028 01e6 37080000 		.4byte	.LASF36
 2029 01ea 04       		.byte	0x4
 2030 01eb 2801     		.2byte	0x128
 2031 01ed B6010000 		.4byte	0x1b6
 2032 01f1 24       		.byte	0x24
 2033 01f2 0C       		.uleb128 0xc
 2034 01f3 3F080000 		.4byte	.LASF37
 2035 01f7 04       		.byte	0x4
 2036 01f8 2D01     		.2byte	0x12d
 2037 01fa B6010000 		.4byte	0x1b6
 2038 01fe 36       		.byte	0x36
 2039 01ff 0C       		.uleb128 0xc
 2040 0200 47080000 		.4byte	.LASF38
 2041 0204 04       		.byte	0x4
 2042 0205 3201     		.2byte	0x132
 2043 0207 B6010000 		.4byte	0x1b6
 2044 020b 48       		.byte	0x48
 2045 020c 0C       		.uleb128 0xc
 2046 020d 4F080000 		.4byte	.LASF39
 2047 0211 04       		.byte	0x4
 2048 0212 3701     		.2byte	0x137
 2049 0214 B6010000 		.4byte	0x1b6
 2050 0218 5A       		.byte	0x5a
 2051 0219 0C       		.uleb128 0xc
 2052 021a 57080000 		.4byte	.LASF40
 2053 021e 04       		.byte	0x4
 2054 021f 3C01     		.2byte	0x13c
 2055 0221 B6010000 		.4byte	0x1b6
 2056 0225 6C       		.byte	0x6c
 2057 0226 0C       		.uleb128 0xc
 2058 0227 5F080000 		.4byte	.LASF41
 2059 022b 04       		.byte	0x4
 2060 022c 4101     		.2byte	0x141
ARM GAS  C:\Users\Administrator\AppData\Local\Temp\cc5eEmVR.s 			page 53


 2061 022e B6010000 		.4byte	0x1b6
 2062 0232 7E       		.byte	0x7e
 2063 0233 0C       		.uleb128 0xc
 2064 0234 67080000 		.4byte	.LASF42
 2065 0238 04       		.byte	0x4
 2066 0239 4601     		.2byte	0x146
 2067 023b B6010000 		.4byte	0x1b6
 2068 023f 90       		.byte	0x90
 2069 0240 0C       		.uleb128 0xc
 2070 0241 6F080000 		.4byte	.LASF43
 2071 0245 04       		.byte	0x4
 2072 0246 4B01     		.2byte	0x14b
 2073 0248 B6010000 		.4byte	0x1b6
 2074 024c A2       		.byte	0xa2
 2075 024d 0C       		.uleb128 0xc
 2076 024e 3D0B0000 		.4byte	.LASF44
 2077 0252 04       		.byte	0x4
 2078 0253 5001     		.2byte	0x150
 2079 0255 B6010000 		.4byte	0x1b6
 2080 0259 B4       		.byte	0xb4
 2081 025a 0C       		.uleb128 0xc
 2082 025b 460B0000 		.4byte	.LASF45
 2083 025f 04       		.byte	0x4
 2084 0260 5501     		.2byte	0x155
 2085 0262 B6010000 		.4byte	0x1b6
 2086 0266 C6       		.byte	0xc6
 2087 0267 00       		.byte	0
 2088 0268 04       		.uleb128 0x4
 2089 0269 4D050000 		.4byte	.LASF46
 2090 026d 04       		.byte	0x4
 2091 026e 5601     		.2byte	0x156
 2092 0270 C2010000 		.4byte	0x1c2
 2093 0274 0D       		.uleb128 0xd
 2094 0275 0A       		.byte	0xa
 2095 0276 04       		.byte	0x4
 2096 0277 5C01     		.2byte	0x15c
 2097 0279 CC020000 		.4byte	0x2cc
 2098 027d 0E       		.uleb128 0xe
 2099 027e 72617700 		.ascii	"raw\000"
 2100 0282 04       		.byte	0x4
 2101 0283 6101     		.2byte	0x161
 2102 0285 CC020000 		.4byte	0x2cc
 2103 0289 00       		.byte	0
 2104 028a 0C       		.uleb128 0xc
 2105 028b 310A0000 		.4byte	.LASF47
 2106 028f 04       		.byte	0x4
 2107 0290 6601     		.2byte	0x166
 2108 0292 CC020000 		.4byte	0x2cc
 2109 0296 02       		.byte	0x2
 2110 0297 0C       		.uleb128 0xc
 2111 0298 3E090000 		.4byte	.LASF48
 2112 029c 04       		.byte	0x4
 2113 029d 6C01     		.2byte	0x16c
 2114 029f FD000000 		.4byte	0xfd
 2115 02a3 04       		.byte	0x4
 2116 02a4 0C       		.uleb128 0xc
 2117 02a5 D8070000 		.4byte	.LASF49
ARM GAS  C:\Users\Administrator\AppData\Local\Temp\cc5eEmVR.s 			page 54


 2118 02a9 04       		.byte	0x4
 2119 02aa 7101     		.2byte	0x171
 2120 02ac C8000000 		.4byte	0xc8
 2121 02b0 06       		.byte	0x6
 2122 02b1 0C       		.uleb128 0xc
 2123 02b2 9B0A0000 		.4byte	.LASF50
 2124 02b6 04       		.byte	0x4
 2125 02b7 7601     		.2byte	0x176
 2126 02b9 DC020000 		.4byte	0x2dc
 2127 02bd 08       		.byte	0x8
 2128 02be 0C       		.uleb128 0xc
 2129 02bf 19050000 		.4byte	.LASF51
 2130 02c3 04       		.byte	0x4
 2131 02c4 7C01     		.2byte	0x17c
 2132 02c6 FD000000 		.4byte	0xfd
 2133 02ca 09       		.byte	0x9
 2134 02cb 00       		.byte	0
 2135 02cc 08       		.uleb128 0x8
 2136 02cd 77000000 		.4byte	0x77
 2137 02d1 DC020000 		.4byte	0x2dc
 2138 02d5 09       		.uleb128 0x9
 2139 02d6 F0000000 		.4byte	0xf0
 2140 02da 00       		.byte	0
 2141 02db 00       		.byte	0
 2142 02dc 08       		.uleb128 0x8
 2143 02dd D4000000 		.4byte	0xd4
 2144 02e1 EC020000 		.4byte	0x2ec
 2145 02e5 09       		.uleb128 0x9
 2146 02e6 F0000000 		.4byte	0xf0
 2147 02ea 00       		.byte	0
 2148 02eb 00       		.byte	0
 2149 02ec 04       		.uleb128 0x4
 2150 02ed BA000000 		.4byte	.LASF52
 2151 02f1 04       		.byte	0x4
 2152 02f2 7D01     		.2byte	0x17d
 2153 02f4 74020000 		.4byte	0x274
 2154 02f8 0D       		.uleb128 0xd
 2155 02f9 78       		.byte	0x78
 2156 02fa 04       		.byte	0x4
 2157 02fb 8301     		.2byte	0x183
 2158 02fd 9E030000 		.4byte	0x39e
 2159 0301 0C       		.uleb128 0xc
 2160 0302 27080000 		.4byte	.LASF34
 2161 0306 04       		.byte	0x4
 2162 0307 8801     		.2byte	0x188
 2163 0309 9E030000 		.4byte	0x39e
 2164 030d 00       		.byte	0
 2165 030e 0C       		.uleb128 0xc
 2166 030f 2F080000 		.4byte	.LASF35
 2167 0313 04       		.byte	0x4
 2168 0314 8D01     		.2byte	0x18d
 2169 0316 9E030000 		.4byte	0x39e
 2170 031a 0A       		.byte	0xa
 2171 031b 0C       		.uleb128 0xc
 2172 031c 37080000 		.4byte	.LASF36
 2173 0320 04       		.byte	0x4
 2174 0321 9201     		.2byte	0x192
ARM GAS  C:\Users\Administrator\AppData\Local\Temp\cc5eEmVR.s 			page 55


 2175 0323 9E030000 		.4byte	0x39e
 2176 0327 14       		.byte	0x14
 2177 0328 0C       		.uleb128 0xc
 2178 0329 3F080000 		.4byte	.LASF37
 2179 032d 04       		.byte	0x4
 2180 032e 9701     		.2byte	0x197
 2181 0330 9E030000 		.4byte	0x39e
 2182 0334 1E       		.byte	0x1e
 2183 0335 0C       		.uleb128 0xc
 2184 0336 47080000 		.4byte	.LASF38
 2185 033a 04       		.byte	0x4
 2186 033b 9C01     		.2byte	0x19c
 2187 033d 9E030000 		.4byte	0x39e
 2188 0341 28       		.byte	0x28
 2189 0342 0C       		.uleb128 0xc
 2190 0343 4F080000 		.4byte	.LASF39
 2191 0347 04       		.byte	0x4
 2192 0348 A101     		.2byte	0x1a1
 2193 034a 9E030000 		.4byte	0x39e
 2194 034e 32       		.byte	0x32
 2195 034f 0C       		.uleb128 0xc
 2196 0350 57080000 		.4byte	.LASF40
 2197 0354 04       		.byte	0x4
 2198 0355 A601     		.2byte	0x1a6
 2199 0357 9E030000 		.4byte	0x39e
 2200 035b 3C       		.byte	0x3c
 2201 035c 0C       		.uleb128 0xc
 2202 035d 5F080000 		.4byte	.LASF41
 2203 0361 04       		.byte	0x4
 2204 0362 AB01     		.2byte	0x1ab
 2205 0364 9E030000 		.4byte	0x39e
 2206 0368 46       		.byte	0x46
 2207 0369 0C       		.uleb128 0xc
 2208 036a 67080000 		.4byte	.LASF42
 2209 036e 04       		.byte	0x4
 2210 036f B001     		.2byte	0x1b0
 2211 0371 9E030000 		.4byte	0x39e
 2212 0375 50       		.byte	0x50
 2213 0376 0C       		.uleb128 0xc
 2214 0377 6F080000 		.4byte	.LASF43
 2215 037b 04       		.byte	0x4
 2216 037c B501     		.2byte	0x1b5
 2217 037e 9E030000 		.4byte	0x39e
 2218 0382 5A       		.byte	0x5a
 2219 0383 0C       		.uleb128 0xc
 2220 0384 3D0B0000 		.4byte	.LASF44
 2221 0388 04       		.byte	0x4
 2222 0389 BA01     		.2byte	0x1ba
 2223 038b 9E030000 		.4byte	0x39e
 2224 038f 64       		.byte	0x64
 2225 0390 0C       		.uleb128 0xc
 2226 0391 460B0000 		.4byte	.LASF45
 2227 0395 04       		.byte	0x4
 2228 0396 BF01     		.2byte	0x1bf
 2229 0398 9E030000 		.4byte	0x39e
 2230 039c 6E       		.byte	0x6e
 2231 039d 00       		.byte	0
ARM GAS  C:\Users\Administrator\AppData\Local\Temp\cc5eEmVR.s 			page 56


 2232 039e 08       		.uleb128 0x8
 2233 039f EC020000 		.4byte	0x2ec
 2234 03a3 AE030000 		.4byte	0x3ae
 2235 03a7 09       		.uleb128 0x9
 2236 03a8 F0000000 		.4byte	0xf0
 2237 03ac 00       		.byte	0
 2238 03ad 00       		.byte	0
 2239 03ae 04       		.uleb128 0x4
 2240 03af D4090000 		.4byte	.LASF53
 2241 03b3 04       		.byte	0x4
 2242 03b4 C001     		.2byte	0x1c0
 2243 03b6 F8020000 		.4byte	0x2f8
 2244 03ba 0F       		.uleb128 0xf
 2245 03bb 7C01     		.2byte	0x17c
 2246 03bd 04       		.byte	0x4
 2247 03be C701     		.2byte	0x1c7
 2248 03c0 99040000 		.4byte	0x499
 2249 03c4 0C       		.uleb128 0xc
 2250 03c5 1B070000 		.4byte	.LASF54
 2251 03c9 04       		.byte	0x4
 2252 03ca CD01     		.2byte	0x1cd
 2253 03cc 77000000 		.4byte	0x77
 2254 03d0 00       		.byte	0
 2255 03d1 0C       		.uleb128 0xc
 2256 03d2 EA0A0000 		.4byte	.LASF55
 2257 03d6 04       		.byte	0x4
 2258 03d7 D201     		.2byte	0x1d2
 2259 03d9 77000000 		.4byte	0x77
 2260 03dd 02       		.byte	0x2
 2261 03de 0C       		.uleb128 0xc
 2262 03df DD070000 		.4byte	.LASF56
 2263 03e3 04       		.byte	0x4
 2264 03e4 D801     		.2byte	0x1d8
 2265 03e6 77000000 		.4byte	0x77
 2266 03ea 04       		.byte	0x4
 2267 03eb 0C       		.uleb128 0xc
 2268 03ec 42010000 		.4byte	.LASF57
 2269 03f0 04       		.byte	0x4
 2270 03f1 DD01     		.2byte	0x1dd
 2271 03f3 77000000 		.4byte	0x77
 2272 03f7 06       		.byte	0x6
 2273 03f8 0C       		.uleb128 0xc
 2274 03f9 F0040000 		.4byte	.LASF58
 2275 03fd 04       		.byte	0x4
 2276 03fe E201     		.2byte	0x1e2
 2277 0400 83000000 		.4byte	0x83
 2278 0404 08       		.byte	0x8
 2279 0405 0C       		.uleb128 0xc
 2280 0406 BD070000 		.4byte	.LASF59
 2281 040a 04       		.byte	0x4
 2282 040b E701     		.2byte	0x1e7
 2283 040d 99040000 		.4byte	0x499
 2284 0411 0C       		.byte	0xc
 2285 0412 0C       		.uleb128 0xc
 2286 0413 8F080000 		.4byte	.LASF60
 2287 0417 04       		.byte	0x4
 2288 0418 EC01     		.2byte	0x1ec
ARM GAS  C:\Users\Administrator\AppData\Local\Temp\cc5eEmVR.s 			page 57


 2289 041a 99040000 		.4byte	0x499
 2290 041e 10       		.byte	0x10
 2291 041f 0C       		.uleb128 0xc
 2292 0420 41070000 		.4byte	.LASF61
 2293 0424 04       		.byte	0x4
 2294 0425 FA01     		.2byte	0x1fa
 2295 0427 A9040000 		.4byte	0x4a9
 2296 042b 14       		.byte	0x14
 2297 042c 0C       		.uleb128 0xc
 2298 042d F5050000 		.4byte	.LASF62
 2299 0431 04       		.byte	0x4
 2300 0432 FF01     		.2byte	0x1ff
 2301 0434 77000000 		.4byte	0x77
 2302 0438 20       		.byte	0x20
 2303 0439 0C       		.uleb128 0xc
 2304 043a 89030000 		.4byte	.LASF63
 2305 043e 04       		.byte	0x4
 2306 043f 0402     		.2byte	0x204
 2307 0441 6B000000 		.4byte	0x6b
 2308 0445 22       		.byte	0x22
 2309 0446 0C       		.uleb128 0xc
 2310 0447 B7050000 		.4byte	.LASF64
 2311 044b 04       		.byte	0x4
 2312 044c 0902     		.2byte	0x209
 2313 044e 68020000 		.4byte	0x268
 2314 0452 24       		.byte	0x24
 2315 0453 0C       		.uleb128 0xc
 2316 0454 B2020000 		.4byte	.LASF65
 2317 0458 04       		.byte	0x4
 2318 0459 0E02     		.2byte	0x20e
 2319 045b AE030000 		.4byte	0x3ae
 2320 045f FC       		.byte	0xfc
 2321 0460 10       		.uleb128 0x10
 2322 0461 04010000 		.4byte	.LASF66
 2323 0465 04       		.byte	0x4
 2324 0466 1302     		.2byte	0x213
 2325 0468 6B000000 		.4byte	0x6b
 2326 046c 7401     		.2byte	0x174
 2327 046e 10       		.uleb128 0x10
 2328 046f E9020000 		.4byte	.LASF67
 2329 0473 04       		.byte	0x4
 2330 0474 1802     		.2byte	0x218
 2331 0476 6B000000 		.4byte	0x6b
 2332 047a 7501     		.2byte	0x175
 2333 047c 10       		.uleb128 0x10
 2334 047d 08070000 		.4byte	.LASF68
 2335 0481 04       		.byte	0x4
 2336 0482 1D02     		.2byte	0x21d
 2337 0484 77000000 		.4byte	0x77
 2338 0488 7601     		.2byte	0x176
 2339 048a 10       		.uleb128 0x10
 2340 048b DC050000 		.4byte	.LASF69
 2341 048f 04       		.byte	0x4
 2342 0490 2202     		.2byte	0x222
 2343 0492 CC020000 		.4byte	0x2cc
 2344 0496 7801     		.2byte	0x178
 2345 0498 00       		.byte	0
ARM GAS  C:\Users\Administrator\AppData\Local\Temp\cc5eEmVR.s 			page 58


 2346 0499 08       		.uleb128 0x8
 2347 049a 83000000 		.4byte	0x83
 2348 049e A9040000 		.4byte	0x4a9
 2349 04a2 09       		.uleb128 0x9
 2350 04a3 F0000000 		.4byte	0xf0
 2351 04a7 00       		.byte	0
 2352 04a8 00       		.byte	0
 2353 04a9 08       		.uleb128 0x8
 2354 04aa 6B000000 		.4byte	0x6b
 2355 04ae B9040000 		.4byte	0x4b9
 2356 04b2 09       		.uleb128 0x9
 2357 04b3 F0000000 		.4byte	0xf0
 2358 04b7 0B       		.byte	0xb
 2359 04b8 00       		.byte	0
 2360 04b9 04       		.uleb128 0x4
 2361 04ba 27020000 		.4byte	.LASF70
 2362 04be 04       		.byte	0x4
 2363 04bf 2302     		.2byte	0x223
 2364 04c1 BA030000 		.4byte	0x3ba
 2365 04c5 11       		.uleb128 0x11
 2366 04c6 01       		.byte	0x1
 2367 04c7 05       		.byte	0x5
 2368 04c8 12       		.byte	0x12
 2369 04c9 DA040000 		.4byte	0x4da
 2370 04cd 12       		.uleb128 0x12
 2371 04ce 15080000 		.4byte	.LASF71
 2372 04d2 00       		.sleb128 0
 2373 04d3 12       		.uleb128 0x12
 2374 04d4 87020000 		.4byte	.LASF72
 2375 04d8 01       		.sleb128 1
 2376 04d9 00       		.byte	0
 2377 04da 13       		.uleb128 0x13
 2378 04db 1B010000 		.4byte	.LASF73
 2379 04df 05       		.byte	0x5
 2380 04e0 15       		.byte	0x15
 2381 04e1 C5040000 		.4byte	0x4c5
 2382 04e5 0A       		.uleb128 0xa
 2383 04e6 06       		.byte	0x6
 2384 04e7 06       		.byte	0x6
 2385 04e8 07       		.byte	0x7
 2386 04e9 12050000 		.4byte	0x512
 2387 04ed 0B       		.uleb128 0xb
 2388 04ee 25030000 		.4byte	.LASF74
 2389 04f2 06       		.byte	0x6
 2390 04f3 09       		.byte	0x9
 2391 04f4 DA040000 		.4byte	0x4da
 2392 04f8 00       		.byte	0
 2393 04f9 0B       		.uleb128 0xb
 2394 04fa 9F070000 		.4byte	.LASF75
 2395 04fe 06       		.byte	0x6
 2396 04ff 0A       		.byte	0xa
 2397 0500 3A000000 		.4byte	0x3a
 2398 0504 02       		.byte	0x2
 2399 0505 0B       		.uleb128 0xb
 2400 0506 A6010000 		.4byte	.LASF76
 2401 050a 06       		.byte	0x6
 2402 050b 0B       		.byte	0xb
ARM GAS  C:\Users\Administrator\AppData\Local\Temp\cc5eEmVR.s 			page 59


 2403 050c 3A000000 		.4byte	0x3a
 2404 0510 04       		.byte	0x4
 2405 0511 00       		.byte	0
 2406 0512 13       		.uleb128 0x13
 2407 0513 AB050000 		.4byte	.LASF77
 2408 0517 06       		.byte	0x6
 2409 0518 0C       		.byte	0xc
 2410 0519 E5040000 		.4byte	0x4e5
 2411 051d 11       		.uleb128 0x11
 2412 051e 01       		.byte	0x1
 2413 051f 07       		.byte	0x7
 2414 0520 18       		.byte	0x18
 2415 0521 74050000 		.4byte	0x574
 2416 0525 12       		.uleb128 0x12
 2417 0526 33070000 		.4byte	.LASF78
 2418 052a 00       		.sleb128 0
 2419 052b 12       		.uleb128 0x12
 2420 052c C8040000 		.4byte	.LASF79
 2421 0530 01       		.sleb128 1
 2422 0531 12       		.uleb128 0x12
 2423 0532 DC0A0000 		.4byte	.LASF80
 2424 0536 02       		.sleb128 2
 2425 0537 12       		.uleb128 0x12
 2426 0538 F30A0000 		.4byte	.LASF81
 2427 053c 03       		.sleb128 3
 2428 053d 12       		.uleb128 0x12
 2429 053e 92070000 		.4byte	.LASF82
 2430 0542 04       		.sleb128 4
 2431 0543 12       		.uleb128 0x12
 2432 0544 7D060000 		.4byte	.LASF83
 2433 0548 05       		.sleb128 5
 2434 0549 12       		.uleb128 0x12
 2435 054a 7D030000 		.4byte	.LASF84
 2436 054e 06       		.sleb128 6
 2437 054f 12       		.uleb128 0x12
 2438 0550 46090000 		.4byte	.LASF85
 2439 0554 07       		.sleb128 7
 2440 0555 12       		.uleb128 0x12
 2441 0556 C8070000 		.4byte	.LASF86
 2442 055a 08       		.sleb128 8
 2443 055b 12       		.uleb128 0x12
 2444 055c 83040000 		.4byte	.LASF87
 2445 0560 09       		.sleb128 9
 2446 0561 12       		.uleb128 0x12
 2447 0562 20010000 		.4byte	.LASF88
 2448 0566 0A       		.sleb128 10
 2449 0567 12       		.uleb128 0x12
 2450 0568 69040000 		.4byte	.LASF89
 2451 056c 0B       		.sleb128 11
 2452 056d 12       		.uleb128 0x12
 2453 056e 22050000 		.4byte	.LASF90
 2454 0572 0C       		.sleb128 12
 2455 0573 00       		.byte	0
 2456 0574 13       		.uleb128 0x13
 2457 0575 0F050000 		.4byte	.LASF91
 2458 0579 07       		.byte	0x7
 2459 057a 26       		.byte	0x26
ARM GAS  C:\Users\Administrator\AppData\Local\Temp\cc5eEmVR.s 			page 60


 2460 057b 1D050000 		.4byte	0x51d
 2461 057f 0A       		.uleb128 0xa
 2462 0580 01       		.byte	0x1
 2463 0581 01       		.byte	0x1
 2464 0582 13       		.byte	0x13
 2465 0583 E2050000 		.4byte	0x5e2
 2466 0587 14       		.uleb128 0x14
 2467 0588 FF060000 		.4byte	.LASF92
 2468 058c 01       		.byte	0x1
 2469 058d 15       		.byte	0x15
 2470 058e 2C000000 		.4byte	0x2c
 2471 0592 01       		.byte	0x1
 2472 0593 01       		.byte	0x1
 2473 0594 07       		.byte	0x7
 2474 0595 00       		.byte	0
 2475 0596 14       		.uleb128 0x14
 2476 0597 D1020000 		.4byte	.LASF93
 2477 059b 01       		.byte	0x1
 2478 059c 16       		.byte	0x16
 2479 059d 2C000000 		.4byte	0x2c
 2480 05a1 01       		.byte	0x1
 2481 05a2 01       		.byte	0x1
 2482 05a3 06       		.byte	0x6
 2483 05a4 00       		.byte	0
 2484 05a5 14       		.uleb128 0x14
 2485 05a6 7D0A0000 		.4byte	.LASF94
 2486 05aa 01       		.byte	0x1
 2487 05ab 17       		.byte	0x17
 2488 05ac 2C000000 		.4byte	0x2c
 2489 05b0 01       		.byte	0x1
 2490 05b1 01       		.byte	0x1
 2491 05b2 05       		.byte	0x5
 2492 05b3 00       		.byte	0
 2493 05b4 15       		.uleb128 0x15
 2494 05b5 72756F00 		.ascii	"ruo\000"
 2495 05b9 01       		.byte	0x1
 2496 05ba 18       		.byte	0x18
 2497 05bb 2C000000 		.4byte	0x2c
 2498 05bf 01       		.byte	0x1
 2499 05c0 01       		.byte	0x1
 2500 05c1 04       		.byte	0x4
 2501 05c2 00       		.byte	0
 2502 05c3 14       		.uleb128 0x14
 2503 05c4 64090000 		.4byte	.LASF95
 2504 05c8 01       		.byte	0x1
 2505 05c9 19       		.byte	0x19
 2506 05ca 2C000000 		.4byte	0x2c
 2507 05ce 01       		.byte	0x1
 2508 05cf 01       		.byte	0x1
 2509 05d0 03       		.byte	0x3
 2510 05d1 00       		.byte	0
 2511 05d2 14       		.uleb128 0x14
 2512 05d3 090A0000 		.4byte	.LASF96
 2513 05d7 01       		.byte	0x1
 2514 05d8 1A       		.byte	0x1a
 2515 05d9 2C000000 		.4byte	0x2c
 2516 05dd 01       		.byte	0x1
ARM GAS  C:\Users\Administrator\AppData\Local\Temp\cc5eEmVR.s 			page 61


 2517 05de 01       		.byte	0x1
 2518 05df 02       		.byte	0x2
 2519 05e0 00       		.byte	0
 2520 05e1 00       		.byte	0
 2521 05e2 13       		.uleb128 0x13
 2522 05e3 72010000 		.4byte	.LASF97
 2523 05e7 01       		.byte	0x1
 2524 05e8 1B       		.byte	0x1b
 2525 05e9 7F050000 		.4byte	0x57f
 2526 05ed 11       		.uleb128 0x11
 2527 05ee 01       		.byte	0x1
 2528 05ef 01       		.byte	0x1
 2529 05f0 1E       		.byte	0x1e
 2530 05f1 62060000 		.4byte	0x662
 2531 05f5 12       		.uleb128 0x12
 2532 05f6 D8080000 		.4byte	.LASF98
 2533 05fa 00       		.sleb128 0
 2534 05fb 12       		.uleb128 0x12
 2535 05fc C0050000 		.4byte	.LASF99
 2536 0600 01       		.sleb128 1
 2537 0601 12       		.uleb128 0x12
 2538 0602 74060000 		.4byte	.LASF100
 2539 0606 02       		.sleb128 2
 2540 0607 12       		.uleb128 0x12
 2541 0608 7E020000 		.4byte	.LASF101
 2542 060c 03       		.sleb128 3
 2543 060d 12       		.uleb128 0x12
 2544 060e E4060000 		.4byte	.LASF102
 2545 0612 04       		.sleb128 4
 2546 0613 12       		.uleb128 0x12
 2547 0614 F2090000 		.4byte	.LASF103
 2548 0618 05       		.sleb128 5
 2549 0619 12       		.uleb128 0x12
 2550 061a 77080000 		.4byte	.LASF104
 2551 061e 06       		.sleb128 6
 2552 061f 12       		.uleb128 0x12
 2553 0620 BC090000 		.4byte	.LASF105
 2554 0624 07       		.sleb128 7
 2555 0625 12       		.uleb128 0x12
 2556 0626 2D010000 		.4byte	.LASF106
 2557 062a 08       		.sleb128 8
 2558 062b 12       		.uleb128 0x12
 2559 062c F0080000 		.4byte	.LASF107
 2560 0630 09       		.sleb128 9
 2561 0631 12       		.uleb128 0x12
 2562 0632 AA000000 		.4byte	.LASF108
 2563 0636 0A       		.sleb128 10
 2564 0637 12       		.uleb128 0x12
 2565 0638 86090000 		.4byte	.LASF109
 2566 063c 0B       		.sleb128 11
 2567 063d 12       		.uleb128 0x12
 2568 063e 4A020000 		.4byte	.LASF110
 2569 0642 0C       		.sleb128 12
 2570 0643 12       		.uleb128 0x12
 2571 0644 DB010000 		.4byte	.LASF111
 2572 0648 0D       		.sleb128 13
 2573 0649 12       		.uleb128 0x12
ARM GAS  C:\Users\Administrator\AppData\Local\Temp\cc5eEmVR.s 			page 62


 2574 064a EC010000 		.4byte	.LASF112
 2575 064e 0E       		.sleb128 14
 2576 064f 12       		.uleb128 0x12
 2577 0650 FF030000 		.4byte	.LASF113
 2578 0654 0F       		.sleb128 15
 2579 0655 12       		.uleb128 0x12
 2580 0656 56040000 		.4byte	.LASF114
 2581 065a 10       		.sleb128 16
 2582 065b 12       		.uleb128 0x12
 2583 065c EE060000 		.4byte	.LASF115
 2584 0660 11       		.sleb128 17
 2585 0661 00       		.byte	0
 2586 0662 13       		.uleb128 0x13
 2587 0663 A9070000 		.4byte	.LASF116
 2588 0667 01       		.byte	0x1
 2589 0668 31       		.byte	0x31
 2590 0669 ED050000 		.4byte	0x5ed
 2591 066d 11       		.uleb128 0x11
 2592 066e 01       		.byte	0x1
 2593 066f 01       		.byte	0x1
 2594 0670 45       		.byte	0x45
 2595 0671 94060000 		.4byte	0x694
 2596 0675 12       		.uleb128 0x12
 2597 0676 94040000 		.4byte	.LASF117
 2598 067a 00       		.sleb128 0
 2599 067b 12       		.uleb128 0x12
 2600 067c F7040000 		.4byte	.LASF118
 2601 0680 01       		.sleb128 1
 2602 0681 12       		.uleb128 0x12
 2603 0682 56010000 		.4byte	.LASF119
 2604 0686 02       		.sleb128 2
 2605 0687 12       		.uleb128 0x12
 2606 0688 29090000 		.4byte	.LASF120
 2607 068c 03       		.sleb128 3
 2608 068d 12       		.uleb128 0x12
 2609 068e 93030000 		.4byte	.LASF121
 2610 0692 04       		.sleb128 4
 2611 0693 00       		.byte	0
 2612 0694 13       		.uleb128 0x13
 2613 0695 020B0000 		.4byte	.LASF122
 2614 0699 01       		.byte	0x1
 2615 069a 4B       		.byte	0x4b
 2616 069b 6D060000 		.4byte	0x66d
 2617 069f 11       		.uleb128 0x11
 2618 06a0 01       		.byte	0x1
 2619 06a1 01       		.byte	0x1
 2620 06a2 63       		.byte	0x63
 2621 06a3 C0060000 		.4byte	0x6c0
 2622 06a7 12       		.uleb128 0x12
 2623 06a8 7A050000 		.4byte	.LASF123
 2624 06ac 00       		.sleb128 0
 2625 06ad 12       		.uleb128 0x12
 2626 06ae BF010000 		.4byte	.LASF124
 2627 06b2 01       		.sleb128 1
 2628 06b3 12       		.uleb128 0x12
 2629 06b4 75020000 		.4byte	.LASF125
 2630 06b8 02       		.sleb128 2
ARM GAS  C:\Users\Administrator\AppData\Local\Temp\cc5eEmVR.s 			page 63


 2631 06b9 12       		.uleb128 0x12
 2632 06ba 99090000 		.4byte	.LASF126
 2633 06be 03       		.sleb128 3
 2634 06bf 00       		.byte	0
 2635 06c0 13       		.uleb128 0x13
 2636 06c1 3C020000 		.4byte	.LASF127
 2637 06c5 01       		.byte	0x1
 2638 06c6 68       		.byte	0x68
 2639 06c7 9F060000 		.4byte	0x69f
 2640 06cb 11       		.uleb128 0x11
 2641 06cc 01       		.byte	0x1
 2642 06cd 01       		.byte	0x1
 2643 06ce 6C       		.byte	0x6c
 2644 06cf E6060000 		.4byte	0x6e6
 2645 06d3 12       		.uleb128 0x12
 2646 06d4 22040000 		.4byte	.LASF128
 2647 06d8 00       		.sleb128 0
 2648 06d9 16       		.uleb128 0x16
 2649 06da 52554F00 		.ascii	"RUO\000"
 2650 06de 01       		.sleb128 1
 2651 06df 12       		.uleb128 0x12
 2652 06e0 2E060000 		.4byte	.LASF129
 2653 06e4 02       		.sleb128 2
 2654 06e5 00       		.byte	0
 2655 06e6 13       		.uleb128 0x13
 2656 06e7 24070000 		.4byte	.LASF130
 2657 06eb 01       		.byte	0x1
 2658 06ec 70       		.byte	0x70
 2659 06ed CB060000 		.4byte	0x6cb
 2660 06f1 11       		.uleb128 0x11
 2661 06f2 01       		.byte	0x1
 2662 06f3 01       		.byte	0x1
 2663 06f4 7C       		.byte	0x7c
 2664 06f5 0C070000 		.4byte	0x70c
 2665 06f9 12       		.uleb128 0x12
 2666 06fa D9020000 		.4byte	.LASF131
 2667 06fe 00       		.sleb128 0
 2668 06ff 12       		.uleb128 0x12
 2669 0700 5B020000 		.4byte	.LASF132
 2670 0704 01       		.sleb128 1
 2671 0705 12       		.uleb128 0x12
 2672 0706 D7060000 		.4byte	.LASF133
 2673 070a 02       		.sleb128 2
 2674 070b 00       		.byte	0
 2675 070c 13       		.uleb128 0x13
 2676 070d 0F0B0000 		.4byte	.LASF134
 2677 0711 01       		.byte	0x1
 2678 0712 80       		.byte	0x80
 2679 0713 F1060000 		.4byte	0x6f1
 2680 0717 17       		.uleb128 0x17
 2681 0718 FD010000 		.4byte	.LASF137
 2682 071c 01       		.byte	0x1
 2683 071d EE       		.byte	0xee
 2684 071e 00000000 		.4byte	.LFB38
 2685 0722 6C000000 		.4byte	.LFE38-.LFB38
 2686 0726 01       		.uleb128 0x1
 2687 0727 9C       		.byte	0x9c
ARM GAS  C:\Users\Administrator\AppData\Local\Temp\cc5eEmVR.s 			page 64


 2688 0728 56070000 		.4byte	0x756
 2689 072c 18       		.uleb128 0x18
 2690 072d 14010000 		.4byte	.LASF136
 2691 0731 01       		.byte	0x1
 2692 0732 EE       		.byte	0xee
 2693 0733 F7000000 		.4byte	0xf7
 2694 0737 01       		.uleb128 0x1
 2695 0738 50       		.byte	0x50
 2696 0739 19       		.uleb128 0x19
 2697 073a 6900     		.ascii	"i\000"
 2698 073c 01       		.byte	0x1
 2699 073d F0       		.byte	0xf0
 2700 073e 2C000000 		.4byte	0x2c
 2701 0742 00000000 		.4byte	.LLST0
 2702 0746 1A       		.uleb128 0x1a
 2703 0747 4C040000 		.4byte	.LASF135
 2704 074b 01       		.byte	0x1
 2705 074c F0       		.byte	0xf0
 2706 074d 2C000000 		.4byte	0x2c
 2707 0751 40000000 		.4byte	.LLST1
 2708 0755 00       		.byte	0
 2709 0756 1B       		.uleb128 0x1b
 2710 0757 200B0000 		.4byte	.LASF209
 2711 075b 01       		.byte	0x1
 2712 075c 6602     		.2byte	0x266
 2713 075e DA040000 		.4byte	0x4da
 2714 0762 00000000 		.4byte	.LFB42
 2715 0766 1E000000 		.4byte	.LFE42-.LFB42
 2716 076a 01       		.uleb128 0x1
 2717 076b 9C       		.byte	0x9c
 2718 076c 9D070000 		.4byte	0x79d
 2719 0770 1C       		.uleb128 0x1c
 2720 0771 69643100 		.ascii	"id1\000"
 2721 0775 01       		.byte	0x1
 2722 0776 6602     		.2byte	0x266
 2723 0778 F7000000 		.4byte	0xf7
 2724 077c 6A000000 		.4byte	.LLST2
 2725 0780 1D       		.uleb128 0x1d
 2726 0781 69643200 		.ascii	"id2\000"
 2727 0785 01       		.byte	0x1
 2728 0786 6602     		.2byte	0x266
 2729 0788 F7000000 		.4byte	0xf7
 2730 078c 01       		.uleb128 0x1
 2731 078d 51       		.byte	0x51
 2732 078e 1E       		.uleb128 0x1e
 2733 078f 6900     		.ascii	"i\000"
 2734 0791 01       		.byte	0x1
 2735 0792 6802     		.2byte	0x268
 2736 0794 2C000000 		.4byte	0x2c
 2737 0798 A4000000 		.4byte	.LLST3
 2738 079c 00       		.byte	0
 2739 079d 1F       		.uleb128 0x1f
 2740 079e 72030000 		.4byte	.LASF138
 2741 07a2 01       		.byte	0x1
 2742 07a3 2502     		.2byte	0x225
 2743 07a5 00000000 		.4byte	.LFB40
 2744 07a9 78000000 		.4byte	.LFE40-.LFB40
ARM GAS  C:\Users\Administrator\AppData\Local\Temp\cc5eEmVR.s 			page 65


 2745 07ad 01       		.uleb128 0x1
 2746 07ae 9C       		.byte	0x9c
 2747 07af 0A080000 		.4byte	0x80a
 2748 07b3 20       		.uleb128 0x20
 2749 07b4 38000000 		.4byte	.LVL22
 2750 07b8 17070000 		.4byte	0x717
 2751 07bc C7070000 		.4byte	0x7c7
 2752 07c0 21       		.uleb128 0x21
 2753 07c1 01       		.uleb128 0x1
 2754 07c2 50       		.byte	0x50
 2755 07c3 02       		.uleb128 0x2
 2756 07c4 74       		.byte	0x74
 2757 07c5 20       		.sleb128 32
 2758 07c6 00       		.byte	0
 2759 07c7 20       		.uleb128 0x20
 2760 07c8 40000000 		.4byte	.LVL23
 2761 07cc 430D0000 		.4byte	0xd43
 2762 07d0 E0070000 		.4byte	0x7e0
 2763 07d4 21       		.uleb128 0x21
 2764 07d5 01       		.uleb128 0x1
 2765 07d6 51       		.byte	0x51
 2766 07d7 02       		.uleb128 0x2
 2767 07d8 74       		.byte	0x74
 2768 07d9 00       		.sleb128 0
 2769 07da 21       		.uleb128 0x21
 2770 07db 01       		.uleb128 0x1
 2771 07dc 50       		.byte	0x50
 2772 07dd 01       		.uleb128 0x1
 2773 07de 40       		.byte	0x40
 2774 07df 00       		.byte	0
 2775 07e0 20       		.uleb128 0x20
 2776 07e1 66000000 		.4byte	.LVL24
 2777 07e5 17070000 		.4byte	0x717
 2778 07e9 F4070000 		.4byte	0x7f4
 2779 07ed 21       		.uleb128 0x21
 2780 07ee 01       		.uleb128 0x1
 2781 07ef 50       		.byte	0x50
 2782 07f0 02       		.uleb128 0x2
 2783 07f1 74       		.byte	0x74
 2784 07f2 20       		.sleb128 32
 2785 07f3 00       		.byte	0
 2786 07f4 22       		.uleb128 0x22
 2787 07f5 6E000000 		.4byte	.LVL25
 2788 07f9 430D0000 		.4byte	0xd43
 2789 07fd 21       		.uleb128 0x21
 2790 07fe 01       		.uleb128 0x1
 2791 07ff 51       		.byte	0x51
 2792 0800 02       		.uleb128 0x2
 2793 0801 74       		.byte	0x74
 2794 0802 00       		.sleb128 0
 2795 0803 21       		.uleb128 0x21
 2796 0804 01       		.uleb128 0x1
 2797 0805 50       		.byte	0x50
 2798 0806 01       		.uleb128 0x1
 2799 0807 40       		.byte	0x40
 2800 0808 00       		.byte	0
 2801 0809 00       		.byte	0
ARM GAS  C:\Users\Administrator\AppData\Local\Temp\cc5eEmVR.s 			page 66


 2802 080a 1F       		.uleb128 0x1f
 2803 080b FB000000 		.4byte	.LASF139
 2804 080f 01       		.byte	0x1
 2805 0810 0701     		.2byte	0x107
 2806 0812 00000000 		.4byte	.LFB39
 2807 0816 38050000 		.4byte	.LFE39-.LFB39
 2808 081a 01       		.uleb128 0x1
 2809 081b 9C       		.byte	0x9c
 2810 081c 78080000 		.4byte	0x878
 2811 0820 1E       		.uleb128 0x1e
 2812 0821 6900     		.ascii	"i\000"
 2813 0823 01       		.byte	0x1
 2814 0824 0901     		.2byte	0x109
 2815 0826 74050000 		.4byte	0x574
 2816 082a CE000000 		.4byte	.LLST4
 2817 082e 20       		.uleb128 0x20
 2818 082f 0C000000 		.4byte	.LVL28
 2819 0833 590D0000 		.4byte	0xd59
 2820 0837 42080000 		.4byte	0x842
 2821 083b 21       		.uleb128 0x21
 2822 083c 01       		.uleb128 0x1
 2823 083d 50       		.byte	0x50
 2824 083e 02       		.uleb128 0x2
 2825 083f 74       		.byte	0x74
 2826 0840 00       		.sleb128 0
 2827 0841 00       		.byte	0
 2828 0842 20       		.uleb128 0x20
 2829 0843 9C040000 		.4byte	.LVL29
 2830 0847 6E0D0000 		.4byte	0xd6e
 2831 084b 55080000 		.4byte	0x855
 2832 084f 21       		.uleb128 0x21
 2833 0850 01       		.uleb128 0x1
 2834 0851 50       		.byte	0x50
 2835 0852 01       		.uleb128 0x1
 2836 0853 30       		.byte	0x30
 2837 0854 00       		.byte	0
 2838 0855 20       		.uleb128 0x20
 2839 0856 BA040000 		.4byte	.LVL30
 2840 085a 6E0D0000 		.4byte	0xd6e
 2841 085e 68080000 		.4byte	0x868
 2842 0862 21       		.uleb128 0x21
 2843 0863 01       		.uleb128 0x1
 2844 0864 50       		.byte	0x50
 2845 0865 01       		.uleb128 0x1
 2846 0866 32       		.byte	0x32
 2847 0867 00       		.byte	0
 2848 0868 22       		.uleb128 0x22
 2849 0869 D4040000 		.4byte	.LVL31
 2850 086d 6E0D0000 		.4byte	0xd6e
 2851 0871 21       		.uleb128 0x21
 2852 0872 01       		.uleb128 0x1
 2853 0873 50       		.byte	0x50
 2854 0874 01       		.uleb128 0x1
 2855 0875 33       		.byte	0x33
 2856 0876 00       		.byte	0
 2857 0877 00       		.byte	0
 2858 0878 1F       		.uleb128 0x1f
ARM GAS  C:\Users\Administrator\AppData\Local\Temp\cc5eEmVR.s 			page 67


 2859 0879 FF040000 		.4byte	.LASF140
 2860 087d 01       		.byte	0x1
 2861 087e 4002     		.2byte	0x240
 2862 0880 00000000 		.4byte	.LFB41
 2863 0884 A8000000 		.4byte	.LFE41-.LFB41
 2864 0888 01       		.uleb128 0x1
 2865 0889 9C       		.byte	0x9c
 2866 088a 13090000 		.4byte	0x913
 2867 088e 20       		.uleb128 0x20
 2868 088f 36000000 		.4byte	.LVL35
 2869 0893 830D0000 		.4byte	0xd83
 2870 0897 AC080000 		.4byte	0x8ac
 2871 089b 21       		.uleb128 0x21
 2872 089c 01       		.uleb128 0x1
 2873 089d 51       		.byte	0x51
 2874 089e 03       		.uleb128 0x3
 2875 089f 0A       		.byte	0xa
 2876 08a0 B80B     		.2byte	0xbb8
 2877 08a2 21       		.uleb128 0x21
 2878 08a3 01       		.uleb128 0x1
 2879 08a4 50       		.byte	0x50
 2880 08a5 05       		.uleb128 0x5
 2881 08a6 03       		.byte	0x3
 2882 08a7 00000000 		.4byte	match_code_wait
 2883 08ab 00       		.byte	0
 2884 08ac 20       		.uleb128 0x20
 2885 08ad 3E000000 		.4byte	.LVL36
 2886 08b1 9F0D0000 		.4byte	0xd9f
 2887 08b5 C3080000 		.4byte	0x8c3
 2888 08b9 21       		.uleb128 0x21
 2889 08ba 01       		.uleb128 0x1
 2890 08bb 50       		.byte	0x50
 2891 08bc 05       		.uleb128 0x5
 2892 08bd 03       		.byte	0x3
 2893 08be 00000000 		.4byte	match_code_wait
 2894 08c2 00       		.byte	0
 2895 08c3 20       		.uleb128 0x20
 2896 08c4 4E000000 		.4byte	.LVL37
 2897 08c8 9F0D0000 		.4byte	0xd9f
 2898 08cc DA080000 		.4byte	0x8da
 2899 08d0 21       		.uleb128 0x21
 2900 08d1 01       		.uleb128 0x1
 2901 08d2 50       		.byte	0x50
 2902 08d3 05       		.uleb128 0x5
 2903 08d4 03       		.byte	0x3
 2904 08d5 00000000 		.4byte	match_code_wait
 2905 08d9 00       		.byte	0
 2906 08da 20       		.uleb128 0x20
 2907 08db 64000000 		.4byte	.LVL38
 2908 08df B40D0000 		.4byte	0xdb4
 2909 08e3 F6080000 		.4byte	0x8f6
 2910 08e7 21       		.uleb128 0x21
 2911 08e8 01       		.uleb128 0x1
 2912 08e9 51       		.byte	0x51
 2913 08ea 05       		.uleb128 0x5
 2914 08eb 03       		.byte	0x3
 2915 08ec 38000000 		.4byte	.LANCHOR0+56
ARM GAS  C:\Users\Administrator\AppData\Local\Temp\cc5eEmVR.s 			page 68


 2916 08f0 21       		.uleb128 0x21
 2917 08f1 01       		.uleb128 0x1
 2918 08f2 50       		.byte	0x50
 2919 08f3 01       		.uleb128 0x1
 2920 08f4 40       		.byte	0x40
 2921 08f5 00       		.byte	0
 2922 08f6 22       		.uleb128 0x22
 2923 08f7 72000000 		.4byte	.LVL39
 2924 08fb 56070000 		.4byte	0x756
 2925 08ff 21       		.uleb128 0x21
 2926 0900 01       		.uleb128 0x1
 2927 0901 51       		.byte	0x51
 2928 0902 05       		.uleb128 0x5
 2929 0903 03       		.byte	0x3
 2930 0904 00000000 		.4byte	.LANCHOR1
 2931 0908 21       		.uleb128 0x21
 2932 0909 01       		.uleb128 0x1
 2933 090a 50       		.byte	0x50
 2934 090b 05       		.uleb128 0x5
 2935 090c 03       		.byte	0x3
 2936 090d 3E000000 		.4byte	.LANCHOR0+62
 2937 0911 00       		.byte	0
 2938 0912 00       		.byte	0
 2939 0913 23       		.uleb128 0x23
 2940 0914 36060000 		.4byte	.LASF141
 2941 0918 01       		.byte	0x1
 2942 0919 E0       		.byte	0xe0
 2943 091a 00000000 		.4byte	.LFB36
 2944 091e 1C000000 		.4byte	.LFE36-.LFB36
 2945 0922 01       		.uleb128 0x1
 2946 0923 9C       		.byte	0x9c
 2947 0924 41090000 		.4byte	0x941
 2948 0928 24       		.uleb128 0x24
 2949 0929 10000000 		.4byte	.LVL40
 2950 092d CE0D0000 		.4byte	0xdce
 2951 0931 22       		.uleb128 0x22
 2952 0932 16000000 		.4byte	.LVL41
 2953 0936 D50D0000 		.4byte	0xdd5
 2954 093a 21       		.uleb128 0x21
 2955 093b 01       		.uleb128 0x1
 2956 093c 50       		.byte	0x50
 2957 093d 01       		.uleb128 0x1
 2958 093e 31       		.byte	0x31
 2959 093f 00       		.byte	0
 2960 0940 00       		.byte	0
 2961 0941 23       		.uleb128 0x23
 2962 0942 8C020000 		.4byte	.LASF142
 2963 0946 01       		.byte	0x1
 2964 0947 E7       		.byte	0xe7
 2965 0948 00000000 		.4byte	.LFB37
 2966 094c 0E000000 		.4byte	.LFE37-.LFB37
 2967 0950 01       		.uleb128 0x1
 2968 0951 9C       		.byte	0x9c
 2969 0952 73090000 		.4byte	0x973
 2970 0956 20       		.uleb128 0x20
 2971 0957 08000000 		.4byte	.LVL42
 2972 095b E70D0000 		.4byte	0xde7
ARM GAS  C:\Users\Administrator\AppData\Local\Temp\cc5eEmVR.s 			page 69


 2973 095f 69090000 		.4byte	0x969
 2974 0963 21       		.uleb128 0x21
 2975 0964 01       		.uleb128 0x1
 2976 0965 50       		.byte	0x50
 2977 0966 01       		.uleb128 0x1
 2978 0967 31       		.byte	0x31
 2979 0968 00       		.byte	0
 2980 0969 24       		.uleb128 0x24
 2981 096a 0C000000 		.4byte	.LVL43
 2982 096e F80D0000 		.4byte	0xdf8
 2983 0972 00       		.byte	0
 2984 0973 25       		.uleb128 0x25
 2985 0974 570A0000 		.4byte	.LASF210
 2986 0978 01       		.byte	0x1
 2987 0979 89       		.byte	0x89
 2988 097a 5D000000 		.4byte	0x5d
 2989 097e 00000000 		.4byte	.LFB35
 2990 0982 08010000 		.4byte	.LFE35-.LFB35
 2991 0986 01       		.uleb128 0x1
 2992 0987 9C       		.byte	0x9c
 2993 0988 B40A0000 		.4byte	0xab4
 2994 098c 24       		.uleb128 0x24
 2995 098d 08000000 		.4byte	.LVL44
 2996 0991 030E0000 		.4byte	0xe03
 2997 0995 24       		.uleb128 0x24
 2998 0996 0C000000 		.4byte	.LVL45
 2999 099a 0A0E0000 		.4byte	0xe0a
 3000 099e 20       		.uleb128 0x20
 3001 099f 12000000 		.4byte	.LVL46
 3002 09a3 110E0000 		.4byte	0xe11
 3003 09a7 B1090000 		.4byte	0x9b1
 3004 09ab 21       		.uleb128 0x21
 3005 09ac 01       		.uleb128 0x1
 3006 09ad 50       		.byte	0x50
 3007 09ae 01       		.uleb128 0x1
 3008 09af 30       		.byte	0x30
 3009 09b0 00       		.byte	0
 3010 09b1 24       		.uleb128 0x24
 3011 09b2 16000000 		.4byte	.LVL47
 3012 09b6 220E0000 		.4byte	0xe22
 3013 09ba 24       		.uleb128 0x24
 3014 09bb 1A000000 		.4byte	.LVL48
 3015 09bf 290E0000 		.4byte	0xe29
 3016 09c3 24       		.uleb128 0x24
 3017 09c4 1E000000 		.4byte	.LVL49
 3018 09c8 300E0000 		.4byte	0xe30
 3019 09cc 20       		.uleb128 0x20
 3020 09cd 2A000000 		.4byte	.LVL50
 3021 09d1 370E0000 		.4byte	0xe37
 3022 09d5 E8090000 		.4byte	0x9e8
 3023 09d9 21       		.uleb128 0x21
 3024 09da 01       		.uleb128 0x1
 3025 09db 51       		.byte	0x51
 3026 09dc 03       		.uleb128 0x3
 3027 09dd 0A       		.byte	0xa
 3028 09de 7C01     		.2byte	0x17c
 3029 09e0 21       		.uleb128 0x21
ARM GAS  C:\Users\Administrator\AppData\Local\Temp\cc5eEmVR.s 			page 70


 3030 09e1 01       		.uleb128 0x1
 3031 09e2 50       		.byte	0x50
 3032 09e3 03       		.uleb128 0x3
 3033 09e4 0A       		.byte	0xa
 3034 09e5 7C01     		.2byte	0x17c
 3035 09e7 00       		.byte	0
 3036 09e8 24       		.uleb128 0x24
 3037 09e9 2E000000 		.4byte	.LVL51
 3038 09ed 580E0000 		.4byte	0xe58
 3039 09f1 20       		.uleb128 0x20
 3040 09f2 34000000 		.4byte	.LVL52
 3041 09f6 600E0000 		.4byte	0xe60
 3042 09fa 080A0000 		.4byte	0xa08
 3043 09fe 21       		.uleb128 0x21
 3044 09ff 01       		.uleb128 0x1
 3045 0a00 50       		.byte	0x50
 3046 0a01 05       		.uleb128 0x5
 3047 0a02 03       		.byte	0x3
 3048 0a03 00000000 		.4byte	time_1ms_Interrupt
 3049 0a07 00       		.byte	0
 3050 0a08 20       		.uleb128 0x20
 3051 0a09 3A000000 		.4byte	.LVL53
 3052 0a0d 710E0000 		.4byte	0xe71
 3053 0a11 1F0A0000 		.4byte	0xa1f
 3054 0a15 21       		.uleb128 0x21
 3055 0a16 01       		.uleb128 0x1
 3056 0a17 50       		.byte	0x50
 3057 0a18 05       		.uleb128 0x5
 3058 0a19 03       		.byte	0x3
 3059 0a1a 00000000 		.4byte	gio1_interrupt
 3060 0a1e 00       		.byte	0
 3061 0a1f 24       		.uleb128 0x24
 3062 0a20 3E000000 		.4byte	.LVL54
 3063 0a24 820E0000 		.4byte	0xe82
 3064 0a28 24       		.uleb128 0x24
 3065 0a29 42000000 		.4byte	.LVL55
 3066 0a2d 8D0E0000 		.4byte	0xe8d
 3067 0a31 24       		.uleb128 0x24
 3068 0a32 46000000 		.4byte	.LVL56
 3069 0a36 980E0000 		.4byte	0xe98
 3070 0a3a 24       		.uleb128 0x24
 3071 0a3b 88000000 		.4byte	.LVL57
 3072 0a3f 9F0E0000 		.4byte	0xe9f
 3073 0a43 24       		.uleb128 0x24
 3074 0a44 90000000 		.4byte	.LVL58
 3075 0a48 AA0E0000 		.4byte	0xeaa
 3076 0a4c 24       		.uleb128 0x24
 3077 0a4d 94000000 		.4byte	.LVL59
 3078 0a51 B50E0000 		.4byte	0xeb5
 3079 0a55 24       		.uleb128 0x24
 3080 0a56 98000000 		.4byte	.LVL60
 3081 0a5a C00E0000 		.4byte	0xec0
 3082 0a5e 24       		.uleb128 0x24
 3083 0a5f 9C000000 		.4byte	.LVL61
 3084 0a63 8D0E0000 		.4byte	0xe8d
 3085 0a67 24       		.uleb128 0x24
 3086 0a68 A0000000 		.4byte	.LVL62
ARM GAS  C:\Users\Administrator\AppData\Local\Temp\cc5eEmVR.s 			page 71


 3087 0a6c 9D070000 		.4byte	0x79d
 3088 0a70 24       		.uleb128 0x24
 3089 0a71 C2000000 		.4byte	.LVL63
 3090 0a75 0A080000 		.4byte	0x80a
 3091 0a79 24       		.uleb128 0x24
 3092 0a7a C6000000 		.4byte	.LVL64
 3093 0a7e 78080000 		.4byte	0x878
 3094 0a82 20       		.uleb128 0x20
 3095 0a83 E0000000 		.4byte	.LVL65
 3096 0a87 17070000 		.4byte	0x717
 3097 0a8b 960A0000 		.4byte	0xa96
 3098 0a8f 21       		.uleb128 0x21
 3099 0a90 01       		.uleb128 0x1
 3100 0a91 50       		.byte	0x50
 3101 0a92 02       		.uleb128 0x2
 3102 0a93 74       		.byte	0x74
 3103 0a94 00       		.sleb128 0
 3104 0a95 00       		.byte	0
 3105 0a96 20       		.uleb128 0x20
 3106 0a97 E6000000 		.4byte	.LVL66
 3107 0a9b 17070000 		.4byte	0x717
 3108 0a9f AA0A0000 		.4byte	0xaaa
 3109 0aa3 21       		.uleb128 0x21
 3110 0aa4 01       		.uleb128 0x1
 3111 0aa5 50       		.byte	0x50
 3112 0aa6 02       		.uleb128 0x2
 3113 0aa7 74       		.byte	0x74
 3114 0aa8 00       		.sleb128 0
 3115 0aa9 00       		.byte	0
 3116 0aaa 24       		.uleb128 0x24
 3117 0aab EA000000 		.4byte	.LVL67
 3118 0aaf C70E0000 		.4byte	0xec7
 3119 0ab3 00       		.byte	0
 3120 0ab4 26       		.uleb128 0x26
 3121 0ab5 1A030000 		.4byte	.LASF143
 3122 0ab9 01       		.byte	0x1
 3123 0aba 76       		.byte	0x76
 3124 0abb 2C000000 		.4byte	0x2c
 3125 0abf 05       		.uleb128 0x5
 3126 0ac0 03       		.byte	0x3
 3127 0ac1 1C000000 		.4byte	timer_10ms
 3128 0ac5 27       		.uleb128 0x27
 3129 0ac6 BB0A0000 		.4byte	.LASF144
 3130 0aca 04       		.byte	0x4
 3131 0acb 2B04     		.2byte	0x42b
 3132 0acd B9040000 		.4byte	0x4b9
 3133 0ad1 28       		.uleb128 0x28
 3134 0ad2 C7010000 		.4byte	.LASF145
 3135 0ad6 01       		.byte	0x1
 3136 0ad7 33       		.byte	0x33
 3137 0ad8 62060000 		.4byte	0x662
 3138 0adc 05       		.uleb128 0x5
 3139 0add 03       		.byte	0x3
 3140 0ade 00000000 		.4byte	mutex_function_mode
 3141 0ae2 29       		.uleb128 0x29
 3142 0ae3 7400     		.ascii	"t\000"
 3143 0ae5 01       		.byte	0x1
ARM GAS  C:\Users\Administrator\AppData\Local\Temp\cc5eEmVR.s 			page 72


 3144 0ae6 35       		.byte	0x35
 3145 0ae7 2C000000 		.4byte	0x2c
 3146 0aeb 05       		.uleb128 0x5
 3147 0aec 03       		.byte	0x3
 3148 0aed 00000000 		.4byte	t
 3149 0af1 08       		.uleb128 0x8
 3150 0af2 2C000000 		.4byte	0x2c
 3151 0af6 010B0000 		.4byte	0xb01
 3152 0afa 09       		.uleb128 0x9
 3153 0afb F0000000 		.4byte	0xf0
 3154 0aff 17       		.byte	0x17
 3155 0b00 00       		.byte	0
 3156 0b01 28       		.uleb128 0x28
 3157 0b02 F9020000 		.4byte	.LASF146
 3158 0b06 01       		.byte	0x1
 3159 0b07 36       		.byte	0x36
 3160 0b08 F10A0000 		.4byte	0xaf1
 3161 0b0c 05       		.uleb128 0x5
 3162 0b0d 03       		.byte	0x3
 3163 0b0e 00000000 		.4byte	send_buffer
 3164 0b12 08       		.uleb128 0x8
 3165 0b13 2C000000 		.4byte	0x2c
 3166 0b17 220B0000 		.4byte	0xb22
 3167 0b1b 09       		.uleb128 0x9
 3168 0b1c F0000000 		.4byte	0xf0
 3169 0b20 0F       		.byte	0xf
 3170 0b21 00       		.byte	0
 3171 0b22 28       		.uleb128 0x28
 3172 0b23 F7070000 		.4byte	.LASF147
 3173 0b27 01       		.byte	0x1
 3174 0b28 37       		.byte	0x37
 3175 0b29 120B0000 		.4byte	0xb12
 3176 0b2d 05       		.uleb128 0x5
 3177 0b2e 03       		.byte	0x3
 3178 0b2f 00000000 		.4byte	send_show_buffer
 3179 0b33 28       		.uleb128 0x28
 3180 0b34 D6040000 		.4byte	.LASF148
 3181 0b38 01       		.byte	0x1
 3182 0b39 38       		.byte	0x38
 3183 0b3a F10A0000 		.4byte	0xaf1
 3184 0b3e 05       		.uleb128 0x5
 3185 0b3f 03       		.byte	0x3
 3186 0b40 00000000 		.4byte	receive_buffer
 3187 0b44 28       		.uleb128 0x28
 3188 0b45 710A0000 		.4byte	.LASF149
 3189 0b49 01       		.byte	0x1
 3190 0b4a 39       		.byte	0x39
 3191 0b4b 3A000000 		.4byte	0x3a
 3192 0b4f 05       		.uleb128 0x5
 3193 0b50 03       		.byte	0x3
 3194 0b51 00000000 		.4byte	timer_count
 3195 0b55 28       		.uleb128 0x28
 3196 0b56 DC000000 		.4byte	.LASF150
 3197 0b5a 01       		.byte	0x1
 3198 0b5b 3A       		.byte	0x3a
 3199 0b5c E0000000 		.4byte	0xe0
 3200 0b60 05       		.uleb128 0x5
ARM GAS  C:\Users\Administrator\AppData\Local\Temp\cc5eEmVR.s 			page 73


 3201 0b61 03       		.byte	0x3
 3202 0b62 00000000 		.4byte	src_ID
 3203 0b66 28       		.uleb128 0x28
 3204 0b67 8D050000 		.4byte	.LASF151
 3205 0b6b 01       		.byte	0x1
 3206 0b6c 3B       		.byte	0x3b
 3207 0b6d E0000000 		.4byte	0xe0
 3208 0b71 05       		.uleb128 0x5
 3209 0b72 03       		.byte	0x3
 3210 0b73 00000000 		.4byte	dest_ID
 3211 0b77 28       		.uleb128 0x28
 3212 0b78 49060000 		.4byte	.LASF152
 3213 0b7c 01       		.byte	0x1
 3214 0b7d 4E       		.byte	0x4e
 3215 0b7e 880B0000 		.4byte	0xb88
 3216 0b82 05       		.uleb128 0x5
 3217 0b83 03       		.byte	0x3
 3218 0b84 00000000 		.4byte	command_type
 3219 0b88 06       		.uleb128 0x6
 3220 0b89 04       		.byte	0x4
 3221 0b8a 94060000 		.4byte	0x694
 3222 0b8e 28       		.uleb128 0x28
 3223 0b8f 14060000 		.4byte	.LASF153
 3224 0b93 01       		.byte	0x1
 3225 0b94 4F       		.byte	0x4f
 3226 0b95 9F0B0000 		.4byte	0xb9f
 3227 0b99 05       		.uleb128 0x5
 3228 0b9a 03       		.byte	0x3
 3229 0b9b 00000000 		.4byte	p_combine_function
 3230 0b9f 06       		.uleb128 0x6
 3231 0ba0 04       		.byte	0x4
 3232 0ba1 E2050000 		.4byte	0x5e2
 3233 0ba5 28       		.uleb128 0x28
 3234 0ba6 9B020000 		.4byte	.LASF154
 3235 0baa 01       		.byte	0x1
 3236 0bab 50       		.byte	0x50
 3237 0bac B60B0000 		.4byte	0xbb6
 3238 0bb0 05       		.uleb128 0x5
 3239 0bb1 03       		.byte	0x3
 3240 0bb2 00000000 		.4byte	p_mutex_function
 3241 0bb6 06       		.uleb128 0x6
 3242 0bb7 04       		.byte	0x4
 3243 0bb8 62060000 		.4byte	0x662
 3244 0bbc 28       		.uleb128 0x28
 3245 0bbd 11040000 		.4byte	.LASF155
 3246 0bc1 01       		.byte	0x1
 3247 0bc2 53       		.byte	0x53
 3248 0bc3 F7000000 		.4byte	0xf7
 3249 0bc7 05       		.uleb128 0x5
 3250 0bc8 03       		.byte	0x3
 3251 0bc9 00000000 		.4byte	wendu
 3252 0bcd 28       		.uleb128 0x28
 3253 0bce 4E010000 		.4byte	.LASF156
 3254 0bd2 01       		.byte	0x1
 3255 0bd3 54       		.byte	0x54
 3256 0bd4 F7000000 		.4byte	0xf7
 3257 0bd8 05       		.uleb128 0x5
ARM GAS  C:\Users\Administrator\AppData\Local\Temp\cc5eEmVR.s 			page 74


 3258 0bd9 03       		.byte	0x3
 3259 0bda 00000000 		.4byte	dingshi
 3260 0bde 28       		.uleb128 0x28
 3261 0bdf DF080000 		.4byte	.LASF157
 3262 0be3 01       		.byte	0x1
 3263 0be4 55       		.byte	0x55
 3264 0be5 F7000000 		.4byte	0xf7
 3265 0be9 05       		.uleb128 0x5
 3266 0bea 03       		.byte	0x3
 3267 0beb 00000000 		.4byte	xiaoshi
 3268 0bef 28       		.uleb128 0x28
 3269 0bf0 6C020000 		.4byte	.LASF158
 3270 0bf4 01       		.byte	0x1
 3271 0bf5 56       		.byte	0x56
 3272 0bf6 F7000000 		.4byte	0xf7
 3273 0bfa 05       		.uleb128 0x5
 3274 0bfb 03       		.byte	0x3
 3275 0bfc 00000000 		.4byte	fenzhong
 3276 0c00 28       		.uleb128 0x28
 3277 0c01 DE030000 		.4byte	.LASF159
 3278 0c05 01       		.byte	0x1
 3279 0c06 58       		.byte	0x58
 3280 0c07 2C000000 		.4byte	0x2c
 3281 0c0b 05       		.uleb128 0x5
 3282 0c0c 03       		.byte	0x3
 3283 0c0d 00000000 		.4byte	time_feng_nuan
 3284 0c11 28       		.uleb128 0x28
 3285 0c12 08080000 		.4byte	.LASF160
 3286 0c16 01       		.byte	0x1
 3287 0c17 59       		.byte	0x59
 3288 0c18 2C000000 		.4byte	0x2c
 3289 0c1c 05       		.uleb128 0x5
 3290 0c1d 03       		.byte	0x3
 3291 0c1e 00000000 		.4byte	time_huan_qi
 3292 0c22 28       		.uleb128 0x28
 3293 0c23 C6090000 		.4byte	.LASF161
 3294 0c27 01       		.byte	0x1
 3295 0c28 5A       		.byte	0x5a
 3296 0c29 2C000000 		.4byte	0x2c
 3297 0c2d 05       		.uleb128 0x5
 3298 0c2e 03       		.byte	0x3
 3299 0c2f 00000000 		.4byte	time_xin_feng
 3300 0c33 28       		.uleb128 0x28
 3301 0c34 95050000 		.4byte	.LASF162
 3302 0c38 01       		.byte	0x1
 3303 0c39 5B       		.byte	0x5b
 3304 0c3a 2C000000 		.4byte	0x2c
 3305 0c3e 05       		.uleb128 0x5
 3306 0c3f 03       		.byte	0x3
 3307 0c40 00000000 		.4byte	time_xin_feng_qu_nuan
 3308 0c44 28       		.uleb128 0x28
 3309 0c45 62070000 		.4byte	.LASF163
 3310 0c49 01       		.byte	0x1
 3311 0c4a 5C       		.byte	0x5c
 3312 0c4b 2C000000 		.4byte	0x2c
 3313 0c4f 05       		.uleb128 0x5
 3314 0c50 03       		.byte	0x3
ARM GAS  C:\Users\Administrator\AppData\Local\Temp\cc5eEmVR.s 			page 75


 3315 0c51 00000000 		.4byte	time_zhi_jing
 3316 0c55 28       		.uleb128 0x28
 3317 0c56 1B080000 		.4byte	.LASF164
 3318 0c5a 01       		.byte	0x1
 3319 0c5b 5D       		.byte	0x5d
 3320 0c5c 2C000000 		.4byte	0x2c
 3321 0c60 05       		.uleb128 0x5
 3322 0c61 03       		.byte	0x3
 3323 0c62 00000000 		.4byte	time_zhi_mu
 3324 0c66 28       		.uleb128 0x28
 3325 0c67 2C0B0000 		.4byte	.LASF165
 3326 0c6b 01       		.byte	0x1
 3327 0c6c 5F       		.byte	0x5f
 3328 0c6d 2C000000 		.4byte	0x2c
 3329 0c71 05       		.uleb128 0x5
 3330 0c72 03       		.byte	0x3
 3331 0c73 00000000 		.4byte	temp_xin_feng_qn
 3332 0c77 28       		.uleb128 0x28
 3333 0c78 3E040000 		.4byte	.LASF166
 3334 0c7c 01       		.byte	0x1
 3335 0c7d 60       		.byte	0x60
 3336 0c7e 2C000000 		.4byte	0x2c
 3337 0c82 05       		.uleb128 0x5
 3338 0c83 03       		.byte	0x3
 3339 0c84 00000000 		.4byte	temp_fengnuan
 3340 0c88 28       		.uleb128 0x28
 3341 0c89 490A0000 		.4byte	.LASF167
 3342 0c8d 01       		.byte	0x1
 3343 0c8e 69       		.byte	0x69
 3344 0c8f C0060000 		.4byte	0x6c0
 3345 0c93 05       		.uleb128 0x5
 3346 0c94 03       		.byte	0x3
 3347 0c95 00000000 		.4byte	zhi_neng_mode
 3348 0c99 28       		.uleb128 0x28
 3349 0c9a B0010000 		.4byte	.LASF168
 3350 0c9e 01       		.byte	0x1
 3351 0c9f 71       		.byte	0x71
 3352 0ca0 E6060000 		.4byte	0x6e6
 3353 0ca4 05       		.uleb128 0x5
 3354 0ca5 03       		.byte	0x3
 3355 0ca6 00000000 		.4byte	qiang_ruo_mode
 3356 0caa 28       		.uleb128 0x28
 3357 0cab CD060000 		.4byte	.LASF169
 3358 0caf 01       		.byte	0x1
 3359 0cb0 72       		.byte	0x72
 3360 0cb1 DA040000 		.4byte	0x4da
 3361 0cb5 05       		.uleb128 0x5
 3362 0cb6 03       		.byte	0x3
 3363 0cb7 00000000 		.4byte	send_flag
 3364 0cbb 28       		.uleb128 0x28
 3365 0cbc 56060000 		.4byte	.LASF170
 3366 0cc0 01       		.byte	0x1
 3367 0cc1 75       		.byte	0x75
 3368 0cc2 2C000000 		.4byte	0x2c
 3369 0cc6 05       		.uleb128 0x5
 3370 0cc7 03       		.byte	0x3
 3371 0cc8 00000000 		.4byte	beij_s
ARM GAS  C:\Users\Administrator\AppData\Local\Temp\cc5eEmVR.s 			page 76


 3372 0ccc 28       		.uleb128 0x28
 3373 0ccd 27060000 		.4byte	.LASF171
 3374 0cd1 01       		.byte	0x1
 3375 0cd2 75       		.byte	0x75
 3376 0cd3 2C000000 		.4byte	0x2c
 3377 0cd7 05       		.uleb128 0x5
 3378 0cd8 03       		.byte	0x3
 3379 0cd9 00000000 		.4byte	beij_m
 3380 0cdd 28       		.uleb128 0x28
 3381 0cde 0D060000 		.4byte	.LASF172
 3382 0ce2 01       		.byte	0x1
 3383 0ce3 75       		.byte	0x75
 3384 0ce4 2C000000 		.4byte	0x2c
 3385 0ce8 05       		.uleb128 0x5
 3386 0ce9 03       		.byte	0x3
 3387 0cea 00000000 		.4byte	beij_h
 3388 0cee 28       		.uleb128 0x28
 3389 0cef 9F010000 		.4byte	.LASF173
 3390 0cf3 01       		.byte	0x1
 3391 0cf4 78       		.byte	0x78
 3392 0cf5 DA040000 		.4byte	0x4da
 3393 0cf9 05       		.uleb128 0x5
 3394 0cfa 03       		.byte	0x3
 3395 0cfb 00000000 		.4byte	lcd_on
 3396 0cff 28       		.uleb128 0x28
 3397 0d00 1A020000 		.4byte	.LASF174
 3398 0d04 01       		.byte	0x1
 3399 0d05 79       		.byte	0x79
 3400 0d06 3A000000 		.4byte	0x3a
 3401 0d0a 05       		.uleb128 0x5
 3402 0d0b 03       		.byte	0x3
 3403 0d0c 00000000 		.4byte	LCD_on_count
 3404 0d10 28       		.uleb128 0x28
 3405 0d11 E6070000 		.4byte	.LASF175
 3406 0d15 01       		.byte	0x1
 3407 0d16 81       		.byte	0x81
 3408 0d17 0C070000 		.4byte	0x70c
 3409 0d1b 05       		.uleb128 0x5
 3410 0d1c 03       		.byte	0x3
 3411 0d1d 00000000 		.4byte	match_code_state
 3412 0d21 28       		.uleb128 0x28
 3413 0d22 900A0000 		.4byte	.LASF176
 3414 0d26 01       		.byte	0x1
 3415 0d27 82       		.byte	0x82
 3416 0d28 DA040000 		.4byte	0x4da
 3417 0d2c 05       		.uleb128 0x5
 3418 0d2d 03       		.byte	0x3
 3419 0d2e 00000000 		.4byte	match_code
 3420 0d32 28       		.uleb128 0x28
 3421 0d33 64060000 		.4byte	.LASF177
 3422 0d37 01       		.byte	0x1
 3423 0d38 83       		.byte	0x83
 3424 0d39 12050000 		.4byte	0x512
 3425 0d3d 05       		.uleb128 0x5
 3426 0d3e 03       		.byte	0x3
 3427 0d3f 00000000 		.4byte	match_code_wait
 3428 0d43 2A       		.uleb128 0x2a
ARM GAS  C:\Users\Administrator\AppData\Local\Temp\cc5eEmVR.s 			page 77


 3429 0d44 07020000 		.4byte	.LASF180
 3430 0d48 08       		.byte	0x8
 3431 0d49 06       		.byte	0x6
 3432 0d4a 590D0000 		.4byte	0xd59
 3433 0d4e 2B       		.uleb128 0x2b
 3434 0d4f 2C000000 		.4byte	0x2c
 3435 0d53 2B       		.uleb128 0x2b
 3436 0d54 F7000000 		.4byte	0xf7
 3437 0d58 00       		.byte	0
 3438 0d59 2C       		.uleb128 0x2c
 3439 0d5a 5C0A0000 		.4byte	.LASF178
 3440 0d5e 07       		.byte	0x7
 3441 0d5f 49       		.byte	0x49
 3442 0d60 DA040000 		.4byte	0x4da
 3443 0d64 6E0D0000 		.4byte	0xd6e
 3444 0d68 2B       		.uleb128 0x2b
 3445 0d69 74050000 		.4byte	0x574
 3446 0d6d 00       		.byte	0
 3447 0d6e 2C       		.uleb128 0x2c
 3448 0d6f C8050000 		.4byte	.LASF179
 3449 0d73 07       		.byte	0x7
 3450 0d74 4A       		.byte	0x4a
 3451 0d75 DA040000 		.4byte	0x4da
 3452 0d79 830D0000 		.4byte	0xd83
 3453 0d7d 2B       		.uleb128 0x2b
 3454 0d7e 74050000 		.4byte	0x574
 3455 0d82 00       		.byte	0
 3456 0d83 2A       		.uleb128 0x2a
 3457 0d84 A90A0000 		.4byte	.LASF181
 3458 0d88 06       		.byte	0x6
 3459 0d89 16       		.byte	0x16
 3460 0d8a 990D0000 		.4byte	0xd99
 3461 0d8e 2B       		.uleb128 0x2b
 3462 0d8f 990D0000 		.4byte	0xd99
 3463 0d93 2B       		.uleb128 0x2b
 3464 0d94 3A000000 		.4byte	0x3a
 3465 0d98 00       		.byte	0
 3466 0d99 06       		.uleb128 0x6
 3467 0d9a 04       		.byte	0x4
 3468 0d9b 12050000 		.4byte	0x512
 3469 0d9f 2C       		.uleb128 0x2c
 3470 0da0 2F030000 		.4byte	.LASF182
 3471 0da4 06       		.byte	0x6
 3472 0da5 1A       		.byte	0x1a
 3473 0da6 DA040000 		.4byte	0x4da
 3474 0daa B40D0000 		.4byte	0xdb4
 3475 0dae 2B       		.uleb128 0x2b
 3476 0daf 990D0000 		.4byte	0xd99
 3477 0db3 00       		.byte	0
 3478 0db4 2C       		.uleb128 0x2c
 3479 0db5 50030000 		.4byte	.LASF183
 3480 0db9 08       		.byte	0x8
 3481 0dba 07       		.byte	0x7
 3482 0dbb DA040000 		.4byte	0x4da
 3483 0dbf CE0D0000 		.4byte	0xdce
 3484 0dc3 2B       		.uleb128 0x2b
 3485 0dc4 2C000000 		.4byte	0x2c
ARM GAS  C:\Users\Administrator\AppData\Local\Temp\cc5eEmVR.s 			page 78


 3486 0dc8 2B       		.uleb128 0x2b
 3487 0dc9 F7000000 		.4byte	0xf7
 3488 0dcd 00       		.byte	0
 3489 0dce 2D       		.uleb128 0x2d
 3490 0dcf 6B090000 		.4byte	.LASF186
 3491 0dd3 06       		.byte	0x6
 3492 0dd4 12       		.byte	0x12
 3493 0dd5 2E       		.uleb128 0x2e
 3494 0dd6 9F040000 		.4byte	.LASF184
 3495 0dda 09       		.byte	0x9
 3496 0ddb 4701     		.2byte	0x147
 3497 0ddd E70D0000 		.4byte	0xde7
 3498 0de1 2B       		.uleb128 0x2b
 3499 0de2 83000000 		.4byte	0x83
 3500 0de6 00       		.byte	0
 3501 0de7 2A       		.uleb128 0x2a
 3502 0de8 99000000 		.4byte	.LASF185
 3503 0dec 0A       		.byte	0xa
 3504 0ded 86       		.byte	0x86
 3505 0dee F80D0000 		.4byte	0xdf8
 3506 0df2 2B       		.uleb128 0x2b
 3507 0df3 DA040000 		.4byte	0x4da
 3508 0df7 00       		.byte	0
 3509 0df8 2F       		.uleb128 0x2f
 3510 0df9 8A060000 		.4byte	.LASF197
 3511 0dfd 0C       		.byte	0xc
 3512 0dfe 39       		.byte	0x39
 3513 0dff 6B000000 		.4byte	0x6b
 3514 0e03 2D       		.uleb128 0x2d
 3515 0e04 D3000000 		.4byte	.LASF187
 3516 0e08 07       		.byte	0x7
 3517 0e09 47       		.byte	0x47
 3518 0e0a 2D       		.uleb128 0x2d
 3519 0e0b 61010000 		.4byte	.LASF188
 3520 0e0f 0B       		.byte	0xb
 3521 0e10 25       		.byte	0x25
 3522 0e11 2A       		.uleb128 0x2a
 3523 0e12 BD040000 		.4byte	.LASF189
 3524 0e16 0C       		.byte	0xc
 3525 0e17 33       		.byte	0x33
 3526 0e18 220E0000 		.4byte	0xe22
 3527 0e1c 2B       		.uleb128 0x2b
 3528 0e1d 6B000000 		.4byte	0x6b
 3529 0e21 00       		.byte	0
 3530 0e22 2D       		.uleb128 0x2d
 3531 0e23 28040000 		.4byte	.LASF190
 3532 0e27 0B       		.byte	0xb
 3533 0e28 28       		.byte	0x28
 3534 0e29 2D       		.uleb128 0x2d
 3535 0e2a 6A050000 		.4byte	.LASF191
 3536 0e2e 0B       		.byte	0xb
 3537 0e2f 23       		.byte	0x23
 3538 0e30 2D       		.uleb128 0x2d
 3539 0e31 66030000 		.4byte	.LASF192
 3540 0e35 0D       		.byte	0xd
 3541 0e36 6E       		.byte	0x6e
 3542 0e37 2A       		.uleb128 0x2a
ARM GAS  C:\Users\Administrator\AppData\Local\Temp\cc5eEmVR.s 			page 79


 3543 0e38 9E060000 		.4byte	.LASF193
 3544 0e3c 0E       		.byte	0xe
 3545 0e3d A2       		.byte	0xa2
 3546 0e3e 520E0000 		.4byte	0xe52
 3547 0e42 2B       		.uleb128 0x2b
 3548 0e43 83000000 		.4byte	0x83
 3549 0e47 2B       		.uleb128 0x2b
 3550 0e48 83000000 		.4byte	0x83
 3551 0e4c 2B       		.uleb128 0x2b
 3552 0e4d 520E0000 		.4byte	0xe52
 3553 0e51 00       		.byte	0
 3554 0e52 06       		.uleb128 0x6
 3555 0e53 04       		.byte	0x4
 3556 0e54 B0000000 		.4byte	0xb0
 3557 0e58 30       		.uleb128 0x30
 3558 0e59 0E0A0000 		.4byte	.LASF194
 3559 0e5d 09       		.byte	0x9
 3560 0e5e 3201     		.2byte	0x132
 3561 0e60 2A       		.uleb128 0x2a
 3562 0e61 2A050000 		.4byte	.LASF195
 3563 0e65 0F       		.byte	0xf
 3564 0e66 18       		.byte	0x18
 3565 0e67 710E0000 		.4byte	0xe71
 3566 0e6b 2B       		.uleb128 0x2b
 3567 0e6c B5000000 		.4byte	0xb5
 3568 0e70 00       		.byte	0
 3569 0e71 2A       		.uleb128 0x2a
 3570 0e72 18090000 		.4byte	.LASF196
 3571 0e76 0B       		.byte	0xb
 3572 0e77 18       		.byte	0x18
 3573 0e78 820E0000 		.4byte	0xe82
 3574 0e7c 2B       		.uleb128 0x2b
 3575 0e7d B5000000 		.4byte	0xb5
 3576 0e81 00       		.byte	0
 3577 0e82 2F       		.uleb128 0x2f
 3578 0e83 40030000 		.4byte	.LASF198
 3579 0e87 10       		.byte	0x10
 3580 0e88 39       		.byte	0x39
 3581 0e89 A4000000 		.4byte	0xa4
 3582 0e8d 2F       		.uleb128 0x2f
 3583 0e8e B4060000 		.4byte	.LASF199
 3584 0e92 11       		.byte	0x11
 3585 0e93 5C       		.byte	0x5c
 3586 0e94 A4000000 		.4byte	0xa4
 3587 0e98 2D       		.uleb128 0x2d
 3588 0e99 05030000 		.4byte	.LASF200
 3589 0e9d 12       		.byte	0x12
 3590 0e9e 28       		.byte	0x28
 3591 0e9f 2F       		.uleb128 0x2f
 3592 0ea0 CB0A0000 		.4byte	.LASF201
 3593 0ea4 11       		.byte	0x11
 3594 0ea5 5D       		.byte	0x5d
 3595 0ea6 83000000 		.4byte	0x83
 3596 0eaa 2F       		.uleb128 0x2f
 3597 0eab A0090000 		.4byte	.LASF202
 3598 0eaf 10       		.byte	0x10
 3599 0eb0 3D       		.byte	0x3d
ARM GAS  C:\Users\Administrator\AppData\Local\Temp\cc5eEmVR.s 			page 80


 3600 0eb1 A4000000 		.4byte	0xa4
 3601 0eb5 2F       		.uleb128 0x2f
 3602 0eb6 AC030000 		.4byte	.LASF203
 3603 0eba 13       		.byte	0x13
 3604 0ebb 48       		.byte	0x48
 3605 0ebc 83000000 		.4byte	0x83
 3606 0ec0 2D       		.uleb128 0x2d
 3607 0ec1 280A0000 		.4byte	.LASF204
 3608 0ec5 07       		.byte	0x7
 3609 0ec6 48       		.byte	0x48
 3610 0ec7 2D       		.uleb128 0x2d
 3611 0ec8 E3000000 		.4byte	.LASF205
 3612 0ecc 12       		.byte	0x12
 3613 0ecd 29       		.byte	0x29
 3614 0ece 00       		.byte	0
 3615              		.section	.debug_abbrev,"",%progbits
 3616              	.Ldebug_abbrev0:
 3617 0000 01       		.uleb128 0x1
 3618 0001 11       		.uleb128 0x11
 3619 0002 01       		.byte	0x1
 3620 0003 25       		.uleb128 0x25
 3621 0004 0E       		.uleb128 0xe
 3622 0005 13       		.uleb128 0x13
 3623 0006 0B       		.uleb128 0xb
 3624 0007 03       		.uleb128 0x3
 3625 0008 0E       		.uleb128 0xe
 3626 0009 1B       		.uleb128 0x1b
 3627 000a 0E       		.uleb128 0xe
 3628 000b 55       		.uleb128 0x55
 3629 000c 17       		.uleb128 0x17
 3630 000d 11       		.uleb128 0x11
 3631 000e 01       		.uleb128 0x1
 3632 000f 10       		.uleb128 0x10
 3633 0010 17       		.uleb128 0x17
 3634 0011 00       		.byte	0
 3635 0012 00       		.byte	0
 3636 0013 02       		.uleb128 0x2
 3637 0014 24       		.uleb128 0x24
 3638 0015 00       		.byte	0
 3639 0016 0B       		.uleb128 0xb
 3640 0017 0B       		.uleb128 0xb
 3641 0018 3E       		.uleb128 0x3e
 3642 0019 0B       		.uleb128 0xb
 3643 001a 03       		.uleb128 0x3
 3644 001b 0E       		.uleb128 0xe
 3645 001c 00       		.byte	0
 3646 001d 00       		.byte	0
 3647 001e 03       		.uleb128 0x3
 3648 001f 24       		.uleb128 0x24
 3649 0020 00       		.byte	0
 3650 0021 0B       		.uleb128 0xb
 3651 0022 0B       		.uleb128 0xb
 3652 0023 3E       		.uleb128 0x3e
 3653 0024 0B       		.uleb128 0xb
 3654 0025 03       		.uleb128 0x3
 3655 0026 08       		.uleb128 0x8
 3656 0027 00       		.byte	0
ARM GAS  C:\Users\Administrator\AppData\Local\Temp\cc5eEmVR.s 			page 81


 3657 0028 00       		.byte	0
 3658 0029 04       		.uleb128 0x4
 3659 002a 16       		.uleb128 0x16
 3660 002b 00       		.byte	0
 3661 002c 03       		.uleb128 0x3
 3662 002d 0E       		.uleb128 0xe
 3663 002e 3A       		.uleb128 0x3a
 3664 002f 0B       		.uleb128 0xb
 3665 0030 3B       		.uleb128 0x3b
 3666 0031 05       		.uleb128 0x5
 3667 0032 49       		.uleb128 0x49
 3668 0033 13       		.uleb128 0x13
 3669 0034 00       		.byte	0
 3670 0035 00       		.byte	0
 3671 0036 05       		.uleb128 0x5
 3672 0037 35       		.uleb128 0x35
 3673 0038 00       		.byte	0
 3674 0039 49       		.uleb128 0x49
 3675 003a 13       		.uleb128 0x13
 3676 003b 00       		.byte	0
 3677 003c 00       		.byte	0
 3678 003d 06       		.uleb128 0x6
 3679 003e 0F       		.uleb128 0xf
 3680 003f 00       		.byte	0
 3681 0040 0B       		.uleb128 0xb
 3682 0041 0B       		.uleb128 0xb
 3683 0042 49       		.uleb128 0x49
 3684 0043 13       		.uleb128 0x13
 3685 0044 00       		.byte	0
 3686 0045 00       		.byte	0
 3687 0046 07       		.uleb128 0x7
 3688 0047 15       		.uleb128 0x15
 3689 0048 00       		.byte	0
 3690 0049 27       		.uleb128 0x27
 3691 004a 19       		.uleb128 0x19
 3692 004b 00       		.byte	0
 3693 004c 00       		.byte	0
 3694 004d 08       		.uleb128 0x8
 3695 004e 01       		.uleb128 0x1
 3696 004f 01       		.byte	0x1
 3697 0050 49       		.uleb128 0x49
 3698 0051 13       		.uleb128 0x13
 3699 0052 01       		.uleb128 0x1
 3700 0053 13       		.uleb128 0x13
 3701 0054 00       		.byte	0
 3702 0055 00       		.byte	0
 3703 0056 09       		.uleb128 0x9
 3704 0057 21       		.uleb128 0x21
 3705 0058 00       		.byte	0
 3706 0059 49       		.uleb128 0x49
 3707 005a 13       		.uleb128 0x13
 3708 005b 2F       		.uleb128 0x2f
 3709 005c 0B       		.uleb128 0xb
 3710 005d 00       		.byte	0
 3711 005e 00       		.byte	0
 3712 005f 0A       		.uleb128 0xa
 3713 0060 13       		.uleb128 0x13
ARM GAS  C:\Users\Administrator\AppData\Local\Temp\cc5eEmVR.s 			page 82


 3714 0061 01       		.byte	0x1
 3715 0062 0B       		.uleb128 0xb
 3716 0063 0B       		.uleb128 0xb
 3717 0064 3A       		.uleb128 0x3a
 3718 0065 0B       		.uleb128 0xb
 3719 0066 3B       		.uleb128 0x3b
 3720 0067 0B       		.uleb128 0xb
 3721 0068 01       		.uleb128 0x1
 3722 0069 13       		.uleb128 0x13
 3723 006a 00       		.byte	0
 3724 006b 00       		.byte	0
 3725 006c 0B       		.uleb128 0xb
 3726 006d 0D       		.uleb128 0xd
 3727 006e 00       		.byte	0
 3728 006f 03       		.uleb128 0x3
 3729 0070 0E       		.uleb128 0xe
 3730 0071 3A       		.uleb128 0x3a
 3731 0072 0B       		.uleb128 0xb
 3732 0073 3B       		.uleb128 0x3b
 3733 0074 0B       		.uleb128 0xb
 3734 0075 49       		.uleb128 0x49
 3735 0076 13       		.uleb128 0x13
 3736 0077 38       		.uleb128 0x38
 3737 0078 0B       		.uleb128 0xb
 3738 0079 00       		.byte	0
 3739 007a 00       		.byte	0
 3740 007b 0C       		.uleb128 0xc
 3741 007c 0D       		.uleb128 0xd
 3742 007d 00       		.byte	0
 3743 007e 03       		.uleb128 0x3
 3744 007f 0E       		.uleb128 0xe
 3745 0080 3A       		.uleb128 0x3a
 3746 0081 0B       		.uleb128 0xb
 3747 0082 3B       		.uleb128 0x3b
 3748 0083 05       		.uleb128 0x5
 3749 0084 49       		.uleb128 0x49
 3750 0085 13       		.uleb128 0x13
 3751 0086 38       		.uleb128 0x38
 3752 0087 0B       		.uleb128 0xb
 3753 0088 00       		.byte	0
 3754 0089 00       		.byte	0
 3755 008a 0D       		.uleb128 0xd
 3756 008b 13       		.uleb128 0x13
 3757 008c 01       		.byte	0x1
 3758 008d 0B       		.uleb128 0xb
 3759 008e 0B       		.uleb128 0xb
 3760 008f 3A       		.uleb128 0x3a
 3761 0090 0B       		.uleb128 0xb
 3762 0091 3B       		.uleb128 0x3b
 3763 0092 05       		.uleb128 0x5
 3764 0093 01       		.uleb128 0x1
 3765 0094 13       		.uleb128 0x13
 3766 0095 00       		.byte	0
 3767 0096 00       		.byte	0
 3768 0097 0E       		.uleb128 0xe
 3769 0098 0D       		.uleb128 0xd
 3770 0099 00       		.byte	0
ARM GAS  C:\Users\Administrator\AppData\Local\Temp\cc5eEmVR.s 			page 83


 3771 009a 03       		.uleb128 0x3
 3772 009b 08       		.uleb128 0x8
 3773 009c 3A       		.uleb128 0x3a
 3774 009d 0B       		.uleb128 0xb
 3775 009e 3B       		.uleb128 0x3b
 3776 009f 05       		.uleb128 0x5
 3777 00a0 49       		.uleb128 0x49
 3778 00a1 13       		.uleb128 0x13
 3779 00a2 38       		.uleb128 0x38
 3780 00a3 0B       		.uleb128 0xb
 3781 00a4 00       		.byte	0
 3782 00a5 00       		.byte	0
 3783 00a6 0F       		.uleb128 0xf
 3784 00a7 13       		.uleb128 0x13
 3785 00a8 01       		.byte	0x1
 3786 00a9 0B       		.uleb128 0xb
 3787 00aa 05       		.uleb128 0x5
 3788 00ab 3A       		.uleb128 0x3a
 3789 00ac 0B       		.uleb128 0xb
 3790 00ad 3B       		.uleb128 0x3b
 3791 00ae 05       		.uleb128 0x5
 3792 00af 01       		.uleb128 0x1
 3793 00b0 13       		.uleb128 0x13
 3794 00b1 00       		.byte	0
 3795 00b2 00       		.byte	0
 3796 00b3 10       		.uleb128 0x10
 3797 00b4 0D       		.uleb128 0xd
 3798 00b5 00       		.byte	0
 3799 00b6 03       		.uleb128 0x3
 3800 00b7 0E       		.uleb128 0xe
 3801 00b8 3A       		.uleb128 0x3a
 3802 00b9 0B       		.uleb128 0xb
 3803 00ba 3B       		.uleb128 0x3b
 3804 00bb 05       		.uleb128 0x5
 3805 00bc 49       		.uleb128 0x49
 3806 00bd 13       		.uleb128 0x13
 3807 00be 38       		.uleb128 0x38
 3808 00bf 05       		.uleb128 0x5
 3809 00c0 00       		.byte	0
 3810 00c1 00       		.byte	0
 3811 00c2 11       		.uleb128 0x11
 3812 00c3 04       		.uleb128 0x4
 3813 00c4 01       		.byte	0x1
 3814 00c5 0B       		.uleb128 0xb
 3815 00c6 0B       		.uleb128 0xb
 3816 00c7 3A       		.uleb128 0x3a
 3817 00c8 0B       		.uleb128 0xb
 3818 00c9 3B       		.uleb128 0x3b
 3819 00ca 0B       		.uleb128 0xb
 3820 00cb 01       		.uleb128 0x1
 3821 00cc 13       		.uleb128 0x13
 3822 00cd 00       		.byte	0
 3823 00ce 00       		.byte	0
 3824 00cf 12       		.uleb128 0x12
 3825 00d0 28       		.uleb128 0x28
 3826 00d1 00       		.byte	0
 3827 00d2 03       		.uleb128 0x3
ARM GAS  C:\Users\Administrator\AppData\Local\Temp\cc5eEmVR.s 			page 84


 3828 00d3 0E       		.uleb128 0xe
 3829 00d4 1C       		.uleb128 0x1c
 3830 00d5 0D       		.uleb128 0xd
 3831 00d6 00       		.byte	0
 3832 00d7 00       		.byte	0
 3833 00d8 13       		.uleb128 0x13
 3834 00d9 16       		.uleb128 0x16
 3835 00da 00       		.byte	0
 3836 00db 03       		.uleb128 0x3
 3837 00dc 0E       		.uleb128 0xe
 3838 00dd 3A       		.uleb128 0x3a
 3839 00de 0B       		.uleb128 0xb
 3840 00df 3B       		.uleb128 0x3b
 3841 00e0 0B       		.uleb128 0xb
 3842 00e1 49       		.uleb128 0x49
 3843 00e2 13       		.uleb128 0x13
 3844 00e3 00       		.byte	0
 3845 00e4 00       		.byte	0
 3846 00e5 14       		.uleb128 0x14
 3847 00e6 0D       		.uleb128 0xd
 3848 00e7 00       		.byte	0
 3849 00e8 03       		.uleb128 0x3
 3850 00e9 0E       		.uleb128 0xe
 3851 00ea 3A       		.uleb128 0x3a
 3852 00eb 0B       		.uleb128 0xb
 3853 00ec 3B       		.uleb128 0x3b
 3854 00ed 0B       		.uleb128 0xb
 3855 00ee 49       		.uleb128 0x49
 3856 00ef 13       		.uleb128 0x13
 3857 00f0 0B       		.uleb128 0xb
 3858 00f1 0B       		.uleb128 0xb
 3859 00f2 0D       		.uleb128 0xd
 3860 00f3 0B       		.uleb128 0xb
 3861 00f4 0C       		.uleb128 0xc
 3862 00f5 0B       		.uleb128 0xb
 3863 00f6 38       		.uleb128 0x38
 3864 00f7 0B       		.uleb128 0xb
 3865 00f8 00       		.byte	0
 3866 00f9 00       		.byte	0
 3867 00fa 15       		.uleb128 0x15
 3868 00fb 0D       		.uleb128 0xd
 3869 00fc 00       		.byte	0
 3870 00fd 03       		.uleb128 0x3
 3871 00fe 08       		.uleb128 0x8
 3872 00ff 3A       		.uleb128 0x3a
 3873 0100 0B       		.uleb128 0xb
 3874 0101 3B       		.uleb128 0x3b
 3875 0102 0B       		.uleb128 0xb
 3876 0103 49       		.uleb128 0x49
 3877 0104 13       		.uleb128 0x13
 3878 0105 0B       		.uleb128 0xb
 3879 0106 0B       		.uleb128 0xb
 3880 0107 0D       		.uleb128 0xd
 3881 0108 0B       		.uleb128 0xb
 3882 0109 0C       		.uleb128 0xc
 3883 010a 0B       		.uleb128 0xb
 3884 010b 38       		.uleb128 0x38
ARM GAS  C:\Users\Administrator\AppData\Local\Temp\cc5eEmVR.s 			page 85


 3885 010c 0B       		.uleb128 0xb
 3886 010d 00       		.byte	0
 3887 010e 00       		.byte	0
 3888 010f 16       		.uleb128 0x16
 3889 0110 28       		.uleb128 0x28
 3890 0111 00       		.byte	0
 3891 0112 03       		.uleb128 0x3
 3892 0113 08       		.uleb128 0x8
 3893 0114 1C       		.uleb128 0x1c
 3894 0115 0D       		.uleb128 0xd
 3895 0116 00       		.byte	0
 3896 0117 00       		.byte	0
 3897 0118 17       		.uleb128 0x17
 3898 0119 2E       		.uleb128 0x2e
 3899 011a 01       		.byte	0x1
 3900 011b 03       		.uleb128 0x3
 3901 011c 0E       		.uleb128 0xe
 3902 011d 3A       		.uleb128 0x3a
 3903 011e 0B       		.uleb128 0xb
 3904 011f 3B       		.uleb128 0x3b
 3905 0120 0B       		.uleb128 0xb
 3906 0121 27       		.uleb128 0x27
 3907 0122 19       		.uleb128 0x19
 3908 0123 11       		.uleb128 0x11
 3909 0124 01       		.uleb128 0x1
 3910 0125 12       		.uleb128 0x12
 3911 0126 06       		.uleb128 0x6
 3912 0127 40       		.uleb128 0x40
 3913 0128 18       		.uleb128 0x18
 3914 0129 9742     		.uleb128 0x2117
 3915 012b 19       		.uleb128 0x19
 3916 012c 01       		.uleb128 0x1
 3917 012d 13       		.uleb128 0x13
 3918 012e 00       		.byte	0
 3919 012f 00       		.byte	0
 3920 0130 18       		.uleb128 0x18
 3921 0131 05       		.uleb128 0x5
 3922 0132 00       		.byte	0
 3923 0133 03       		.uleb128 0x3
 3924 0134 0E       		.uleb128 0xe
 3925 0135 3A       		.uleb128 0x3a
 3926 0136 0B       		.uleb128 0xb
 3927 0137 3B       		.uleb128 0x3b
 3928 0138 0B       		.uleb128 0xb
 3929 0139 49       		.uleb128 0x49
 3930 013a 13       		.uleb128 0x13
 3931 013b 02       		.uleb128 0x2
 3932 013c 18       		.uleb128 0x18
 3933 013d 00       		.byte	0
 3934 013e 00       		.byte	0
 3935 013f 19       		.uleb128 0x19
 3936 0140 34       		.uleb128 0x34
 3937 0141 00       		.byte	0
 3938 0142 03       		.uleb128 0x3
 3939 0143 08       		.uleb128 0x8
 3940 0144 3A       		.uleb128 0x3a
 3941 0145 0B       		.uleb128 0xb
ARM GAS  C:\Users\Administrator\AppData\Local\Temp\cc5eEmVR.s 			page 86


 3942 0146 3B       		.uleb128 0x3b
 3943 0147 0B       		.uleb128 0xb
 3944 0148 49       		.uleb128 0x49
 3945 0149 13       		.uleb128 0x13
 3946 014a 02       		.uleb128 0x2
 3947 014b 17       		.uleb128 0x17
 3948 014c 00       		.byte	0
 3949 014d 00       		.byte	0
 3950 014e 1A       		.uleb128 0x1a
 3951 014f 34       		.uleb128 0x34
 3952 0150 00       		.byte	0
 3953 0151 03       		.uleb128 0x3
 3954 0152 0E       		.uleb128 0xe
 3955 0153 3A       		.uleb128 0x3a
 3956 0154 0B       		.uleb128 0xb
 3957 0155 3B       		.uleb128 0x3b
 3958 0156 0B       		.uleb128 0xb
 3959 0157 49       		.uleb128 0x49
 3960 0158 13       		.uleb128 0x13
 3961 0159 02       		.uleb128 0x2
 3962 015a 17       		.uleb128 0x17
 3963 015b 00       		.byte	0
 3964 015c 00       		.byte	0
 3965 015d 1B       		.uleb128 0x1b
 3966 015e 2E       		.uleb128 0x2e
 3967 015f 01       		.byte	0x1
 3968 0160 03       		.uleb128 0x3
 3969 0161 0E       		.uleb128 0xe
 3970 0162 3A       		.uleb128 0x3a
 3971 0163 0B       		.uleb128 0xb
 3972 0164 3B       		.uleb128 0x3b
 3973 0165 05       		.uleb128 0x5
 3974 0166 27       		.uleb128 0x27
 3975 0167 19       		.uleb128 0x19
 3976 0168 49       		.uleb128 0x49
 3977 0169 13       		.uleb128 0x13
 3978 016a 11       		.uleb128 0x11
 3979 016b 01       		.uleb128 0x1
 3980 016c 12       		.uleb128 0x12
 3981 016d 06       		.uleb128 0x6
 3982 016e 40       		.uleb128 0x40
 3983 016f 18       		.uleb128 0x18
 3984 0170 9742     		.uleb128 0x2117
 3985 0172 19       		.uleb128 0x19
 3986 0173 01       		.uleb128 0x1
 3987 0174 13       		.uleb128 0x13
 3988 0175 00       		.byte	0
 3989 0176 00       		.byte	0
 3990 0177 1C       		.uleb128 0x1c
 3991 0178 05       		.uleb128 0x5
 3992 0179 00       		.byte	0
 3993 017a 03       		.uleb128 0x3
 3994 017b 08       		.uleb128 0x8
 3995 017c 3A       		.uleb128 0x3a
 3996 017d 0B       		.uleb128 0xb
 3997 017e 3B       		.uleb128 0x3b
 3998 017f 05       		.uleb128 0x5
ARM GAS  C:\Users\Administrator\AppData\Local\Temp\cc5eEmVR.s 			page 87


 3999 0180 49       		.uleb128 0x49
 4000 0181 13       		.uleb128 0x13
 4001 0182 02       		.uleb128 0x2
 4002 0183 17       		.uleb128 0x17
 4003 0184 00       		.byte	0
 4004 0185 00       		.byte	0
 4005 0186 1D       		.uleb128 0x1d
 4006 0187 05       		.uleb128 0x5
 4007 0188 00       		.byte	0
 4008 0189 03       		.uleb128 0x3
 4009 018a 08       		.uleb128 0x8
 4010 018b 3A       		.uleb128 0x3a
 4011 018c 0B       		.uleb128 0xb
 4012 018d 3B       		.uleb128 0x3b
 4013 018e 05       		.uleb128 0x5
 4014 018f 49       		.uleb128 0x49
 4015 0190 13       		.uleb128 0x13
 4016 0191 02       		.uleb128 0x2
 4017 0192 18       		.uleb128 0x18
 4018 0193 00       		.byte	0
 4019 0194 00       		.byte	0
 4020 0195 1E       		.uleb128 0x1e
 4021 0196 34       		.uleb128 0x34
 4022 0197 00       		.byte	0
 4023 0198 03       		.uleb128 0x3
 4024 0199 08       		.uleb128 0x8
 4025 019a 3A       		.uleb128 0x3a
 4026 019b 0B       		.uleb128 0xb
 4027 019c 3B       		.uleb128 0x3b
 4028 019d 05       		.uleb128 0x5
 4029 019e 49       		.uleb128 0x49
 4030 019f 13       		.uleb128 0x13
 4031 01a0 02       		.uleb128 0x2
 4032 01a1 17       		.uleb128 0x17
 4033 01a2 00       		.byte	0
 4034 01a3 00       		.byte	0
 4035 01a4 1F       		.uleb128 0x1f
 4036 01a5 2E       		.uleb128 0x2e
 4037 01a6 01       		.byte	0x1
 4038 01a7 03       		.uleb128 0x3
 4039 01a8 0E       		.uleb128 0xe
 4040 01a9 3A       		.uleb128 0x3a
 4041 01aa 0B       		.uleb128 0xb
 4042 01ab 3B       		.uleb128 0x3b
 4043 01ac 05       		.uleb128 0x5
 4044 01ad 27       		.uleb128 0x27
 4045 01ae 19       		.uleb128 0x19
 4046 01af 11       		.uleb128 0x11
 4047 01b0 01       		.uleb128 0x1
 4048 01b1 12       		.uleb128 0x12
 4049 01b2 06       		.uleb128 0x6
 4050 01b3 40       		.uleb128 0x40
 4051 01b4 18       		.uleb128 0x18
 4052 01b5 9742     		.uleb128 0x2117
 4053 01b7 19       		.uleb128 0x19
 4054 01b8 01       		.uleb128 0x1
 4055 01b9 13       		.uleb128 0x13
ARM GAS  C:\Users\Administrator\AppData\Local\Temp\cc5eEmVR.s 			page 88


 4056 01ba 00       		.byte	0
 4057 01bb 00       		.byte	0
 4058 01bc 20       		.uleb128 0x20
 4059 01bd 898201   		.uleb128 0x4109
 4060 01c0 01       		.byte	0x1
 4061 01c1 11       		.uleb128 0x11
 4062 01c2 01       		.uleb128 0x1
 4063 01c3 31       		.uleb128 0x31
 4064 01c4 13       		.uleb128 0x13
 4065 01c5 01       		.uleb128 0x1
 4066 01c6 13       		.uleb128 0x13
 4067 01c7 00       		.byte	0
 4068 01c8 00       		.byte	0
 4069 01c9 21       		.uleb128 0x21
 4070 01ca 8A8201   		.uleb128 0x410a
 4071 01cd 00       		.byte	0
 4072 01ce 02       		.uleb128 0x2
 4073 01cf 18       		.uleb128 0x18
 4074 01d0 9142     		.uleb128 0x2111
 4075 01d2 18       		.uleb128 0x18
 4076 01d3 00       		.byte	0
 4077 01d4 00       		.byte	0
 4078 01d5 22       		.uleb128 0x22
 4079 01d6 898201   		.uleb128 0x4109
 4080 01d9 01       		.byte	0x1
 4081 01da 11       		.uleb128 0x11
 4082 01db 01       		.uleb128 0x1
 4083 01dc 31       		.uleb128 0x31
 4084 01dd 13       		.uleb128 0x13
 4085 01de 00       		.byte	0
 4086 01df 00       		.byte	0
 4087 01e0 23       		.uleb128 0x23
 4088 01e1 2E       		.uleb128 0x2e
 4089 01e2 01       		.byte	0x1
 4090 01e3 3F       		.uleb128 0x3f
 4091 01e4 19       		.uleb128 0x19
 4092 01e5 03       		.uleb128 0x3
 4093 01e6 0E       		.uleb128 0xe
 4094 01e7 3A       		.uleb128 0x3a
 4095 01e8 0B       		.uleb128 0xb
 4096 01e9 3B       		.uleb128 0x3b
 4097 01ea 0B       		.uleb128 0xb
 4098 01eb 27       		.uleb128 0x27
 4099 01ec 19       		.uleb128 0x19
 4100 01ed 11       		.uleb128 0x11
 4101 01ee 01       		.uleb128 0x1
 4102 01ef 12       		.uleb128 0x12
 4103 01f0 06       		.uleb128 0x6
 4104 01f1 40       		.uleb128 0x40
 4105 01f2 18       		.uleb128 0x18
 4106 01f3 9742     		.uleb128 0x2117
 4107 01f5 19       		.uleb128 0x19
 4108 01f6 01       		.uleb128 0x1
 4109 01f7 13       		.uleb128 0x13
 4110 01f8 00       		.byte	0
 4111 01f9 00       		.byte	0
 4112 01fa 24       		.uleb128 0x24
ARM GAS  C:\Users\Administrator\AppData\Local\Temp\cc5eEmVR.s 			page 89


 4113 01fb 898201   		.uleb128 0x4109
 4114 01fe 00       		.byte	0
 4115 01ff 11       		.uleb128 0x11
 4116 0200 01       		.uleb128 0x1
 4117 0201 31       		.uleb128 0x31
 4118 0202 13       		.uleb128 0x13
 4119 0203 00       		.byte	0
 4120 0204 00       		.byte	0
 4121 0205 25       		.uleb128 0x25
 4122 0206 2E       		.uleb128 0x2e
 4123 0207 01       		.byte	0x1
 4124 0208 3F       		.uleb128 0x3f
 4125 0209 19       		.uleb128 0x19
 4126 020a 03       		.uleb128 0x3
 4127 020b 0E       		.uleb128 0xe
 4128 020c 3A       		.uleb128 0x3a
 4129 020d 0B       		.uleb128 0xb
 4130 020e 3B       		.uleb128 0x3b
 4131 020f 0B       		.uleb128 0xb
 4132 0210 27       		.uleb128 0x27
 4133 0211 19       		.uleb128 0x19
 4134 0212 49       		.uleb128 0x49
 4135 0213 13       		.uleb128 0x13
 4136 0214 11       		.uleb128 0x11
 4137 0215 01       		.uleb128 0x1
 4138 0216 12       		.uleb128 0x12
 4139 0217 06       		.uleb128 0x6
 4140 0218 40       		.uleb128 0x40
 4141 0219 18       		.uleb128 0x18
 4142 021a 9742     		.uleb128 0x2117
 4143 021c 19       		.uleb128 0x19
 4144 021d 01       		.uleb128 0x1
 4145 021e 13       		.uleb128 0x13
 4146 021f 00       		.byte	0
 4147 0220 00       		.byte	0
 4148 0221 26       		.uleb128 0x26
 4149 0222 34       		.uleb128 0x34
 4150 0223 00       		.byte	0
 4151 0224 03       		.uleb128 0x3
 4152 0225 0E       		.uleb128 0xe
 4153 0226 3A       		.uleb128 0x3a
 4154 0227 0B       		.uleb128 0xb
 4155 0228 3B       		.uleb128 0x3b
 4156 0229 0B       		.uleb128 0xb
 4157 022a 49       		.uleb128 0x49
 4158 022b 13       		.uleb128 0x13
 4159 022c 02       		.uleb128 0x2
 4160 022d 18       		.uleb128 0x18
 4161 022e 00       		.byte	0
 4162 022f 00       		.byte	0
 4163 0230 27       		.uleb128 0x27
 4164 0231 34       		.uleb128 0x34
 4165 0232 00       		.byte	0
 4166 0233 03       		.uleb128 0x3
 4167 0234 0E       		.uleb128 0xe
 4168 0235 3A       		.uleb128 0x3a
 4169 0236 0B       		.uleb128 0xb
ARM GAS  C:\Users\Administrator\AppData\Local\Temp\cc5eEmVR.s 			page 90


 4170 0237 3B       		.uleb128 0x3b
 4171 0238 05       		.uleb128 0x5
 4172 0239 49       		.uleb128 0x49
 4173 023a 13       		.uleb128 0x13
 4174 023b 3F       		.uleb128 0x3f
 4175 023c 19       		.uleb128 0x19
 4176 023d 3C       		.uleb128 0x3c
 4177 023e 19       		.uleb128 0x19
 4178 023f 00       		.byte	0
 4179 0240 00       		.byte	0
 4180 0241 28       		.uleb128 0x28
 4181 0242 34       		.uleb128 0x34
 4182 0243 00       		.byte	0
 4183 0244 03       		.uleb128 0x3
 4184 0245 0E       		.uleb128 0xe
 4185 0246 3A       		.uleb128 0x3a
 4186 0247 0B       		.uleb128 0xb
 4187 0248 3B       		.uleb128 0x3b
 4188 0249 0B       		.uleb128 0xb
 4189 024a 49       		.uleb128 0x49
 4190 024b 13       		.uleb128 0x13
 4191 024c 3F       		.uleb128 0x3f
 4192 024d 19       		.uleb128 0x19
 4193 024e 02       		.uleb128 0x2
 4194 024f 18       		.uleb128 0x18
 4195 0250 00       		.byte	0
 4196 0251 00       		.byte	0
 4197 0252 29       		.uleb128 0x29
 4198 0253 34       		.uleb128 0x34
 4199 0254 00       		.byte	0
 4200 0255 03       		.uleb128 0x3
 4201 0256 08       		.uleb128 0x8
 4202 0257 3A       		.uleb128 0x3a
 4203 0258 0B       		.uleb128 0xb
 4204 0259 3B       		.uleb128 0x3b
 4205 025a 0B       		.uleb128 0xb
 4206 025b 49       		.uleb128 0x49
 4207 025c 13       		.uleb128 0x13
 4208 025d 3F       		.uleb128 0x3f
 4209 025e 19       		.uleb128 0x19
 4210 025f 02       		.uleb128 0x2
 4211 0260 18       		.uleb128 0x18
 4212 0261 00       		.byte	0
 4213 0262 00       		.byte	0
 4214 0263 2A       		.uleb128 0x2a
 4215 0264 2E       		.uleb128 0x2e
 4216 0265 01       		.byte	0x1
 4217 0266 3F       		.uleb128 0x3f
 4218 0267 19       		.uleb128 0x19
 4219 0268 03       		.uleb128 0x3
 4220 0269 0E       		.uleb128 0xe
 4221 026a 3A       		.uleb128 0x3a
 4222 026b 0B       		.uleb128 0xb
 4223 026c 3B       		.uleb128 0x3b
 4224 026d 0B       		.uleb128 0xb
 4225 026e 27       		.uleb128 0x27
 4226 026f 19       		.uleb128 0x19
ARM GAS  C:\Users\Administrator\AppData\Local\Temp\cc5eEmVR.s 			page 91


 4227 0270 3C       		.uleb128 0x3c
 4228 0271 19       		.uleb128 0x19
 4229 0272 01       		.uleb128 0x1
 4230 0273 13       		.uleb128 0x13
 4231 0274 00       		.byte	0
 4232 0275 00       		.byte	0
 4233 0276 2B       		.uleb128 0x2b
 4234 0277 05       		.uleb128 0x5
 4235 0278 00       		.byte	0
 4236 0279 49       		.uleb128 0x49
 4237 027a 13       		.uleb128 0x13
 4238 027b 00       		.byte	0
 4239 027c 00       		.byte	0
 4240 027d 2C       		.uleb128 0x2c
 4241 027e 2E       		.uleb128 0x2e
 4242 027f 01       		.byte	0x1
 4243 0280 3F       		.uleb128 0x3f
 4244 0281 19       		.uleb128 0x19
 4245 0282 03       		.uleb128 0x3
 4246 0283 0E       		.uleb128 0xe
 4247 0284 3A       		.uleb128 0x3a
 4248 0285 0B       		.uleb128 0xb
 4249 0286 3B       		.uleb128 0x3b
 4250 0287 0B       		.uleb128 0xb
 4251 0288 27       		.uleb128 0x27
 4252 0289 19       		.uleb128 0x19
 4253 028a 49       		.uleb128 0x49
 4254 028b 13       		.uleb128 0x13
 4255 028c 3C       		.uleb128 0x3c
 4256 028d 19       		.uleb128 0x19
 4257 028e 01       		.uleb128 0x1
 4258 028f 13       		.uleb128 0x13
 4259 0290 00       		.byte	0
 4260 0291 00       		.byte	0
 4261 0292 2D       		.uleb128 0x2d
 4262 0293 2E       		.uleb128 0x2e
 4263 0294 00       		.byte	0
 4264 0295 3F       		.uleb128 0x3f
 4265 0296 19       		.uleb128 0x19
 4266 0297 03       		.uleb128 0x3
 4267 0298 0E       		.uleb128 0xe
 4268 0299 3A       		.uleb128 0x3a
 4269 029a 0B       		.uleb128 0xb
 4270 029b 3B       		.uleb128 0x3b
 4271 029c 0B       		.uleb128 0xb
 4272 029d 27       		.uleb128 0x27
 4273 029e 19       		.uleb128 0x19
 4274 029f 3C       		.uleb128 0x3c
 4275 02a0 19       		.uleb128 0x19
 4276 02a1 00       		.byte	0
 4277 02a2 00       		.byte	0
 4278 02a3 2E       		.uleb128 0x2e
 4279 02a4 2E       		.uleb128 0x2e
 4280 02a5 01       		.byte	0x1
 4281 02a6 3F       		.uleb128 0x3f
 4282 02a7 19       		.uleb128 0x19
 4283 02a8 03       		.uleb128 0x3
ARM GAS  C:\Users\Administrator\AppData\Local\Temp\cc5eEmVR.s 			page 92


 4284 02a9 0E       		.uleb128 0xe
 4285 02aa 3A       		.uleb128 0x3a
 4286 02ab 0B       		.uleb128 0xb
 4287 02ac 3B       		.uleb128 0x3b
 4288 02ad 05       		.uleb128 0x5
 4289 02ae 27       		.uleb128 0x27
 4290 02af 19       		.uleb128 0x19
 4291 02b0 3C       		.uleb128 0x3c
 4292 02b1 19       		.uleb128 0x19
 4293 02b2 01       		.uleb128 0x1
 4294 02b3 13       		.uleb128 0x13
 4295 02b4 00       		.byte	0
 4296 02b5 00       		.byte	0
 4297 02b6 2F       		.uleb128 0x2f
 4298 02b7 2E       		.uleb128 0x2e
 4299 02b8 00       		.byte	0
 4300 02b9 3F       		.uleb128 0x3f
 4301 02ba 19       		.uleb128 0x19
 4302 02bb 03       		.uleb128 0x3
 4303 02bc 0E       		.uleb128 0xe
 4304 02bd 3A       		.uleb128 0x3a
 4305 02be 0B       		.uleb128 0xb
 4306 02bf 3B       		.uleb128 0x3b
 4307 02c0 0B       		.uleb128 0xb
 4308 02c1 27       		.uleb128 0x27
 4309 02c2 19       		.uleb128 0x19
 4310 02c3 49       		.uleb128 0x49
 4311 02c4 13       		.uleb128 0x13
 4312 02c5 3C       		.uleb128 0x3c
 4313 02c6 19       		.uleb128 0x19
 4314 02c7 00       		.byte	0
 4315 02c8 00       		.byte	0
 4316 02c9 30       		.uleb128 0x30
 4317 02ca 2E       		.uleb128 0x2e
 4318 02cb 00       		.byte	0
 4319 02cc 3F       		.uleb128 0x3f
 4320 02cd 19       		.uleb128 0x19
 4321 02ce 03       		.uleb128 0x3
 4322 02cf 0E       		.uleb128 0xe
 4323 02d0 3A       		.uleb128 0x3a
 4324 02d1 0B       		.uleb128 0xb
 4325 02d2 3B       		.uleb128 0x3b
 4326 02d3 05       		.uleb128 0x5
 4327 02d4 27       		.uleb128 0x27
 4328 02d5 19       		.uleb128 0x19
 4329 02d6 3C       		.uleb128 0x3c
 4330 02d7 19       		.uleb128 0x19
 4331 02d8 00       		.byte	0
 4332 02d9 00       		.byte	0
 4333 02da 00       		.byte	0
 4334              		.section	.debug_loc,"",%progbits
 4335              	.Ldebug_loc0:
 4336              	.LLST0:
 4337 0000 2E000000 		.4byte	.LVL2
 4338 0004 32000000 		.4byte	.LVL3
 4339 0008 0200     		.2byte	0x2
 4340 000a 30       		.byte	0x30
ARM GAS  C:\Users\Administrator\AppData\Local\Temp\cc5eEmVR.s 			page 93


 4341 000b 9F       		.byte	0x9f
 4342 000c 32000000 		.4byte	.LVL3
 4343 0010 3E000000 		.4byte	.LVL4
 4344 0014 0100     		.2byte	0x1
 4345 0016 53       		.byte	0x53
 4346 0017 40000000 		.4byte	.LVL5
 4347 001b 48000000 		.4byte	.LVL6
 4348 001f 0100     		.2byte	0x1
 4349 0021 53       		.byte	0x53
 4350 0022 4A000000 		.4byte	.LVL7
 4351 0026 54000000 		.4byte	.LVL10
 4352 002a 0100     		.2byte	0x1
 4353 002c 53       		.byte	0x53
 4354 002d 56000000 		.4byte	.LVL11
 4355 0031 5E000000 		.4byte	.LVL13
 4356 0035 0100     		.2byte	0x1
 4357 0037 53       		.byte	0x53
 4358 0038 00000000 		.4byte	0
 4359 003c 00000000 		.4byte	0
 4360              	.LLST1:
 4361 0040 02000000 		.4byte	.LVL1
 4362 0044 4A000000 		.4byte	.LVL7
 4363 0048 0200     		.2byte	0x2
 4364 004a 30       		.byte	0x30
 4365 004b 9F       		.byte	0x9f
 4366 004c 4A000000 		.4byte	.LVL7
 4367 0050 50000000 		.4byte	.LVL8
 4368 0054 0100     		.2byte	0x1
 4369 0056 52       		.byte	0x52
 4370 0057 52000000 		.4byte	.LVL9
 4371 005b 5C000000 		.4byte	.LVL12
 4372 005f 0100     		.2byte	0x1
 4373 0061 52       		.byte	0x52
 4374 0062 00000000 		.4byte	0
 4375 0066 00000000 		.4byte	0
 4376              	.LLST2:
 4377 006a 00000000 		.4byte	.LVL14
 4378 006e 18000000 		.4byte	.LVL19
 4379 0072 0100     		.2byte	0x1
 4380 0074 50       		.byte	0x50
 4381 0075 18000000 		.4byte	.LVL19
 4382 0079 1A000000 		.4byte	.LVL20
 4383 007d 0400     		.2byte	0x4
 4384 007f F3       		.byte	0xf3
 4385 0080 01       		.uleb128 0x1
 4386 0081 50       		.byte	0x50
 4387 0082 9F       		.byte	0x9f
 4388 0083 1A000000 		.4byte	.LVL20
 4389 0087 1C000000 		.4byte	.LVL21
 4390 008b 0100     		.2byte	0x1
 4391 008d 50       		.byte	0x50
 4392 008e 1C000000 		.4byte	.LVL21
 4393 0092 1E000000 		.4byte	.LFE42
 4394 0096 0400     		.2byte	0x4
 4395 0098 F3       		.byte	0xf3
 4396 0099 01       		.uleb128 0x1
 4397 009a 50       		.byte	0x50
ARM GAS  C:\Users\Administrator\AppData\Local\Temp\cc5eEmVR.s 			page 94


 4398 009b 9F       		.byte	0x9f
 4399 009c 00000000 		.4byte	0
 4400 00a0 00000000 		.4byte	0
 4401              	.LLST3:
 4402 00a4 02000000 		.4byte	.LVL15
 4403 00a8 06000000 		.4byte	.LVL16
 4404 00ac 0200     		.2byte	0x2
 4405 00ae 30       		.byte	0x30
 4406 00af 9F       		.byte	0x9f
 4407 00b0 06000000 		.4byte	.LVL16
 4408 00b4 10000000 		.4byte	.LVL17
 4409 00b8 0100     		.2byte	0x1
 4410 00ba 53       		.byte	0x53
 4411 00bb 12000000 		.4byte	.LVL18
 4412 00bf 1E000000 		.4byte	.LFE42
 4413 00c3 0100     		.2byte	0x1
 4414 00c5 53       		.byte	0x53
 4415 00c6 00000000 		.4byte	0
 4416 00ca 00000000 		.4byte	0
 4417              	.LLST4:
 4418 00ce 02000000 		.4byte	.LVL26
 4419 00d2 06000000 		.4byte	.LVL27
 4420 00d6 0200     		.2byte	0x2
 4421 00d8 30       		.byte	0x30
 4422 00d9 9F       		.byte	0x9f
 4423 00da 06000000 		.4byte	.LVL27
 4424 00de 26050000 		.4byte	.LVL32
 4425 00e2 0100     		.2byte	0x1
 4426 00e4 54       		.byte	0x54
 4427 00e5 28050000 		.4byte	.LVL33
 4428 00e9 2E050000 		.4byte	.LVL34
 4429 00ed 0100     		.2byte	0x1
 4430 00ef 54       		.byte	0x54
 4431 00f0 00000000 		.4byte	0
 4432 00f4 00000000 		.4byte	0
 4433              		.section	.debug_aranges,"",%progbits
 4434 0000 54000000 		.4byte	0x54
 4435 0004 0200     		.2byte	0x2
 4436 0006 00000000 		.4byte	.Ldebug_info0
 4437 000a 04       		.byte	0x4
 4438 000b 00       		.byte	0
 4439 000c 0000     		.2byte	0
 4440 000e 0000     		.2byte	0
 4441 0010 00000000 		.4byte	.LFB38
 4442 0014 6C000000 		.4byte	.LFE38-.LFB38
 4443 0018 00000000 		.4byte	.LFB42
 4444 001c 1E000000 		.4byte	.LFE42-.LFB42
 4445 0020 00000000 		.4byte	.LFB40
 4446 0024 78000000 		.4byte	.LFE40-.LFB40
 4447 0028 00000000 		.4byte	.LFB39
 4448 002c 38050000 		.4byte	.LFE39-.LFB39
 4449 0030 00000000 		.4byte	.LFB41
 4450 0034 A8000000 		.4byte	.LFE41-.LFB41
 4451 0038 00000000 		.4byte	.LFB36
 4452 003c 1C000000 		.4byte	.LFE36-.LFB36
 4453 0040 00000000 		.4byte	.LFB37
 4454 0044 0E000000 		.4byte	.LFE37-.LFB37
ARM GAS  C:\Users\Administrator\AppData\Local\Temp\cc5eEmVR.s 			page 95


 4455 0048 00000000 		.4byte	.LFB35
 4456 004c 08010000 		.4byte	.LFE35-.LFB35
 4457 0050 00000000 		.4byte	0
 4458 0054 00000000 		.4byte	0
 4459              		.section	.debug_ranges,"",%progbits
 4460              	.Ldebug_ranges0:
 4461 0000 00000000 		.4byte	.LFB38
 4462 0004 6C000000 		.4byte	.LFE38
 4463 0008 00000000 		.4byte	.LFB42
 4464 000c 1E000000 		.4byte	.LFE42
 4465 0010 00000000 		.4byte	.LFB40
 4466 0014 78000000 		.4byte	.LFE40
 4467 0018 00000000 		.4byte	.LFB39
 4468 001c 38050000 		.4byte	.LFE39
 4469 0020 00000000 		.4byte	.LFB41
 4470 0024 A8000000 		.4byte	.LFE41
 4471 0028 00000000 		.4byte	.LFB36
 4472 002c 1C000000 		.4byte	.LFE36
 4473 0030 00000000 		.4byte	.LFB37
 4474 0034 0E000000 		.4byte	.LFE37
 4475 0038 00000000 		.4byte	.LFB35
 4476 003c 08010000 		.4byte	.LFE35
 4477 0040 00000000 		.4byte	0
 4478 0044 00000000 		.4byte	0
 4479              		.section	.debug_line,"",%progbits
 4480              	.Ldebug_line0:
 4481 0000 44030000 		.section	.debug_str,"MS",%progbits,1
 4481      02006C01 
 4481      00000201 
 4481      FB0E0D00 
 4481      01010101 
 4482              	.LASF206:
 4483 0000 474E5520 		.ascii	"GNU C 4.9.3 20150303 (release) [ARM/embedded-4_9-br"
 4483      4320342E 
 4483      392E3320 
 4483      32303135 
 4483      30333033 
 4484 0033 616E6368 		.ascii	"anch revision 221220] -mcpu=cortex-m0plus -mthumb -"
 4484      20726576 
 4484      6973696F 
 4484      6E203232 
 4484      31323230 
 4485 0066 67202D4F 		.ascii	"g -Og -ffunction-sections -ffat-lto-objects\000"
 4485      67202D66 
 4485      66756E63 
 4485      74696F6E 
 4485      2D736563 
 4486              	.LASF207:
 4487 0092 6D61696E 		.ascii	"main.c\000"
 4487      2E6300
 4488              	.LASF185:
 4489 0099 41373130 		.ascii	"A7105_update_wtr\000"
 4489      355F7570 
 4489      64617465 
 4489      5F777472 
 4489      00
 4490              	.LASF108:
ARM GAS  C:\Users\Administrator\AppData\Local\Temp\cc5eEmVR.s 			page 96


 4491 00aa 44454E47 		.ascii	"DENG_NUAN_QIANG\000"
 4491      5F4E5541 
 4491      4E5F5149 
 4491      414E4700 
 4492              	.LASF52:
 4493 00ba 6B65795F 		.ascii	"key_touch_RAM_SNS_STRUCT\000"
 4493      746F7563 
 4493      685F5241 
 4493      4D5F534E 
 4493      535F5354 
 4494              	.LASF187:
 4495 00d3 6B65795F 		.ascii	"key_init\000"
 4495      696E6974 
 4495      00
 4496              	.LASF150:
 4497 00dc 7372635F 		.ascii	"src_ID\000"
 4497      494400
 4498              	.LASF205:
 4499 00e3 73696D70 		.ascii	"simple_protocol_process\000"
 4499      6C655F70 
 4499      726F746F 
 4499      636F6C5F 
 4499      70726F63 
 4500              	.LASF139:
 4501 00fb 6B65795F 		.ascii	"key_deal\000"
 4501      6465616C 
 4501      00
 4502              	.LASF66:
 4503 0104 736E7254 		.ascii	"snrTestWidgetId\000"
 4503      65737457 
 4503      69646765 
 4503      74496400 
 4504              	.LASF136:
 4505 0114 62756666 		.ascii	"buffer\000"
 4505      657200
 4506              	.LASF73:
 4507 011b 426F6F6C 		.ascii	"Bool\000"
 4507      00
 4508              	.LASF88:
 4509 0120 4B45595F 		.ascii	"KEY_BAI_DONG\000"
 4509      4241495F 
 4509      444F4E47 
 4509      00
 4510              	.LASF106:
 4511 012d 47414E5F 		.ascii	"GAN_ZAO\000"
 4511      5A414F00 
 4512              	.LASF8:
 4513 0135 756E7369 		.ascii	"unsigned int\000"
 4513      676E6564 
 4513      20696E74 
 4513      00
 4514              	.LASF57:
 4515 0142 7363616E 		.ascii	"scanCounter\000"
 4515      436F756E 
 4515      74657200 
 4516              	.LASF156:
 4517 014e 64696E67 		.ascii	"dingshi\000"
ARM GAS  C:\Users\Administrator\AppData\Local\Temp\cc5eEmVR.s 			page 97


 4517      73686900 
 4518              	.LASF119:
 4519 0156 4D415443 		.ascii	"MATCH_CODE\000"
 4519      485F434F 
 4519      444500
 4520              	.LASF188:
 4521 0161 47494F31 		.ascii	"GIO1_ISR_Disable\000"
 4521      5F495352 
 4521      5F446973 
 4521      61626C65 
 4521      00
 4522              	.LASF97:
 4523 0172 436F6D62 		.ascii	"Combine_function\000"
 4523      696E655F 
 4523      66756E63 
 4523      74696F6E 
 4523      00
 4524              	.LASF18:
 4525 0183 6B65795F 		.ascii	"key_touch_LOW_BSLN_RST_TYPE\000"
 4525      746F7563 
 4525      685F4C4F 
 4525      575F4253 
 4525      4C4E5F52 
 4526              	.LASF173:
 4527 019f 6C63645F 		.ascii	"lcd_on\000"
 4527      6F6E00
 4528              	.LASF76:
 4529 01a6 7365745F 		.ascii	"set_count\000"
 4529      636F756E 
 4529      7400
 4530              	.LASF168:
 4531 01b0 7169616E 		.ascii	"qiang_ruo_mode\000"
 4531      675F7275 
 4531      6F5F6D6F 
 4531      646500
 4532              	.LASF124:
 4533 01bf 5A48495F 		.ascii	"ZHI_GAN\000"
 4533      47414E00 
 4534              	.LASF145:
 4535 01c7 6D757465 		.ascii	"mutex_function_mode\000"
 4535      785F6675 
 4535      6E637469 
 4535      6F6E5F6D 
 4535      6F646500 
 4536              	.LASF111:
 4537 01db 5A48495F 		.ascii	"ZHI_NENG_MU_YU_1\000"
 4537      4E454E47 
 4537      5F4D555F 
 4537      59555F31 
 4537      00
 4538              	.LASF112:
 4539 01ec 5A48495F 		.ascii	"ZHI_NENG_MU_YU_2\000"
 4539      4E454E47 
 4539      5F4D555F 
 4539      59555F32 
 4539      00
 4540              	.LASF137:
ARM GAS  C:\Users\Administrator\AppData\Local\Temp\cc5eEmVR.s 			page 98


 4541 01fd 6D616B65 		.ascii	"make_data\000"
 4541      5F646174 
 4541      6100
 4542              	.LASF180:
 4543 0207 73656E64 		.ascii	"send_data_by_A7105\000"
 4543      5F646174 
 4543      615F6279 
 4543      5F413731 
 4543      303500
 4544              	.LASF174:
 4545 021a 4C43445F 		.ascii	"LCD_on_count\000"
 4545      6F6E5F63 
 4545      6F756E74 
 4545      00
 4546              	.LASF70:
 4547 0227 6B65795F 		.ascii	"key_touch_RAM_STRUCT\000"
 4547      746F7563 
 4547      685F5241 
 4547      4D5F5354 
 4547      52554354 
 4548              	.LASF127:
 4549 023c 5A48495F 		.ascii	"ZHI_NENG_MODE\000"
 4549      4E454E47 
 4549      5F4D4F44 
 4549      4500
 4550              	.LASF110:
 4551 024a 5A48495F 		.ascii	"ZHI_NENG_GAN_ZAO\000"
 4551      4E454E47 
 4551      5F47414E 
 4551      5F5A414F 
 4551      00
 4552              	.LASF132:
 4553 025b 57414954 		.ascii	"WAIT_SHORT_PRESS\000"
 4553      5F53484F 
 4553      52545F50 
 4553      52455353 
 4553      00
 4554              	.LASF158:
 4555 026c 66656E7A 		.ascii	"fenzhong\000"
 4555      686F6E67 
 4555      00
 4556              	.LASF125:
 4557 0275 5A48495F 		.ascii	"ZHI_JING\000"
 4557      4A494E47 
 4557      00
 4558              	.LASF101:
 4559 027e 58494E5F 		.ascii	"XIN_FENG\000"
 4559      46454E47 
 4559      00
 4560              	.LASF72:
 4561 0287 54525545 		.ascii	"TRUE\000"
 4561      00
 4562              	.LASF142:
 4563 028c 67696F31 		.ascii	"gio1_interrupt\000"
 4563      5F696E74 
 4563      65727275 
 4563      707400
ARM GAS  C:\Users\Administrator\AppData\Local\Temp\cc5eEmVR.s 			page 99


 4564              	.LASF154:
 4565 029b 705F6D75 		.ascii	"p_mutex_function\000"
 4565      7465785F 
 4565      66756E63 
 4565      74696F6E 
 4565      00
 4566              	.LASF12:
 4567 02ac 666C6F61 		.ascii	"float\000"
 4567      7400
 4568              	.LASF65:
 4569 02b2 736E734C 		.ascii	"snsList\000"
 4569      69737400 
 4570              	.LASF7:
 4571 02ba 6C6F6E67 		.ascii	"long long unsigned int\000"
 4571      206C6F6E 
 4571      6720756E 
 4571      7369676E 
 4571      65642069 
 4572              	.LASF93:
 4573 02d1 62616964 		.ascii	"baidong\000"
 4573      6F6E6700 
 4574              	.LASF131:
 4575 02d9 57414954 		.ascii	"WAIT_LONG_PRESS\000"
 4575      5F4C4F4E 
 4575      475F5052 
 4575      45535300 
 4576              	.LASF67:
 4577 02e9 736E7254 		.ascii	"snrTestSensorId\000"
 4577      65737453 
 4577      656E736F 
 4577      72496400 
 4578              	.LASF146:
 4579 02f9 73656E64 		.ascii	"send_buffer\000"
 4579      5F627566 
 4579      66657200 
 4580              	.LASF200:
 4581 0305 73696D70 		.ascii	"simple_protocol_init\000"
 4581      6C655F70 
 4581      726F746F 
 4581      636F6C5F 
 4581      696E6974 
 4582              	.LASF143:
 4583 031a 74696D65 		.ascii	"timer_10ms\000"
 4583      725F3130 
 4583      6D7300
 4584              	.LASF74:
 4585 0325 636F756E 		.ascii	"count_end\000"
 4585      745F656E 
 4585      6400
 4586              	.LASF182:
 4587 032f 74696D69 		.ascii	"timing_count_end\000"
 4587      6E675F63 
 4587      6F756E74 
 4587      5F656E64 
 4587      00
 4588              	.LASF198:
 4589 0340 6B65795F 		.ascii	"key_touch_Start\000"
ARM GAS  C:\Users\Administrator\AppData\Local\Temp\cc5eEmVR.s 			page 100


 4589      746F7563 
 4589      685F5374 
 4589      61727400 
 4590              	.LASF183:
 4591 0350 72656365 		.ascii	"receive_data_by_A7105\000"
 4591      6976655F 
 4591      64617461 
 4591      5F62795F 
 4591      41373130 
 4592              	.LASF192:
 4593 0366 455A4932 		.ascii	"EZI2C_Start\000"
 4593      435F5374 
 4593      61727400 
 4594              	.LASF138:
 4595 0372 6265696A 		.ascii	"beij_timer\000"
 4595      5F74696D 
 4595      657200
 4596              	.LASF84:
 4597 037d 4B45595F 		.ascii	"KEY_HUAN_QI\000"
 4597      4855414E 
 4597      5F514900 
 4598              	.LASF63:
 4599 0389 6D6F6443 		.ascii	"modCsdClk\000"
 4599      7364436C 
 4599      6B00
 4600              	.LASF121:
 4601 0393 44495343 		.ascii	"DISCONNECT_NET\000"
 4601      4F4E4E45 
 4601      43545F4E 
 4601      455400
 4602              	.LASF27:
 4603 03a2 62736C6E 		.ascii	"bslnCoeff\000"
 4603      436F6566 
 4603      6600
 4604              	.LASF203:
 4605 03ac 6B65795F 		.ascii	"key_touch_RunTuner\000"
 4605      746F7563 
 4605      685F5275 
 4605      6E54756E 
 4605      657200
 4606              	.LASF33:
 4607 03bf 6B65795F 		.ascii	"key_touch_RAM_WD_BUTTON_STRUCT\000"
 4607      746F7563 
 4607      685F5241 
 4607      4D5F5744 
 4607      5F425554 
 4608              	.LASF159:
 4609 03de 74696D65 		.ascii	"time_feng_nuan\000"
 4609      5F66656E 
 4609      675F6E75 
 4609      616E00
 4610              	.LASF32:
 4611 03ed 73696750 		.ascii	"sigPFC\000"
 4611      464300
 4612              	.LASF24:
 4613 03f4 68797374 		.ascii	"hysteresis\000"
 4613      65726573 
ARM GAS  C:\Users\Administrator\AppData\Local\Temp\cc5eEmVR.s 			page 101


 4613      697300
 4614              	.LASF113:
 4615 03ff 5A48495F 		.ascii	"ZHI_NENG_JING_HUA\000"
 4615      4E454E47 
 4615      5F4A494E 
 4615      475F4855 
 4615      4100
 4616              	.LASF155:
 4617 0411 77656E64 		.ascii	"wendu\000"
 4617      7500
 4618              	.LASF26:
 4619 0417 6C6F7742 		.ascii	"lowBslnRst\000"
 4619      736C6E52 
 4619      737400
 4620              	.LASF128:
 4621 0422 5141494E 		.ascii	"QAING\000"
 4621      4700
 4622              	.LASF190:
 4623 0428 47494F31 		.ascii	"GIO1_ISR_ClearPending\000"
 4623      5F495352 
 4623      5F436C65 
 4623      61725065 
 4623      6E64696E 
 4624              	.LASF166:
 4625 043e 74656D70 		.ascii	"temp_fengnuan\000"
 4625      5F66656E 
 4625      676E7561 
 4625      6E00
 4626              	.LASF135:
 4627 044c 63686563 		.ascii	"check_sum\000"
 4627      6B5F7375 
 4627      6D00
 4628              	.LASF114:
 4629 0456 43485549 		.ascii	"CHUI_FENG_JING_HUA\000"
 4629      5F46454E 
 4629      475F4A49 
 4629      4E475F48 
 4629      554100
 4630              	.LASF89:
 4631 0469 4B45595F 		.ascii	"KEY_ZHI_NENG\000"
 4631      5A48495F 
 4631      4E454E47 
 4631      00
 4632              	.LASF22:
 4633 0476 6E6F6973 		.ascii	"noiseTh\000"
 4633      65546800 
 4634              	.LASF14:
 4635 047e 63686172 		.ascii	"char\000"
 4635      00
 4636              	.LASF87:
 4637 0483 4B45595F 		.ascii	"KEY_DINGSHI_JIAN\000"
 4637      44494E47 
 4637      5348495F 
 4637      4A49414E 
 4637      00
 4638              	.LASF117:
 4639 0494 52454144 		.ascii	"READ_STATE\000"
ARM GAS  C:\Users\Administrator\AppData\Local\Temp\cc5eEmVR.s 			page 102


 4639      5F535441 
 4639      544500
 4640              	.LASF184:
 4641 049f 54696D65 		.ascii	"Timer_1_ClearInterrupt\000"
 4641      725F315F 
 4641      436C6561 
 4641      72496E74 
 4641      65727275 
 4642              	.LASF10:
 4643 04b6 75696E74 		.ascii	"uint16\000"
 4643      313600
 4644              	.LASF189:
 4645 04bd 47494F31 		.ascii	"GIO1_Write\000"
 4645      5F577269 
 4645      746500
 4646              	.LASF79:
 4647 04c8 4B45595F 		.ascii	"KEY_FENG_NUAN\000"
 4647      46454E47 
 4647      5F4E5541 
 4647      4E00
 4648              	.LASF148:
 4649 04d6 72656365 		.ascii	"receive_buffer\000"
 4649      6976655F 
 4649      62756666 
 4649      657200
 4650              	.LASF20:
 4651 04e5 7265736F 		.ascii	"resolution\000"
 4651      6C757469 
 4651      6F6E00
 4652              	.LASF58:
 4653 04f0 73746174 		.ascii	"status\000"
 4653      757300
 4654              	.LASF118:
 4655 04f7 434F4E54 		.ascii	"CONTROL\000"
 4655      524F4C00 
 4656              	.LASF140:
 4657 04ff 6D617463 		.ascii	"match_code_mode\000"
 4657      685F636F 
 4657      64655F6D 
 4657      6F646500 
 4658              	.LASF91:
 4659 050f 4B65795F 		.ascii	"Key_index\000"
 4659      696E6465 
 4659      7800
 4660              	.LASF51:
 4661 0519 69646163 		.ascii	"idacComp\000"
 4661      436F6D70 
 4661      00
 4662              	.LASF90:
 4663 0522 4B45595F 		.ascii	"KEY_NUM\000"
 4663      4E554D00 
 4664              	.LASF195:
 4665 052a 74696D65 		.ascii	"time_1ms_ISR_StartEx\000"
 4665      5F316D73 
 4665      5F495352 
 4665      5F537461 
 4665      72744578 
ARM GAS  C:\Users\Administrator\AppData\Local\Temp\cc5eEmVR.s 			page 103


 4666              	.LASF6:
 4667 053f 6C6F6E67 		.ascii	"long long int\000"
 4667      206C6F6E 
 4667      6720696E 
 4667      7400
 4668              	.LASF46:
 4669 054d 6B65795F 		.ascii	"key_touch_RAM_WD_LIST_STRUCT\000"
 4669      746F7563 
 4669      685F5241 
 4669      4D5F5744 
 4669      5F4C4953 
 4670              	.LASF191:
 4671 056a 47494F31 		.ascii	"GIO1_ISR_Enable\000"
 4671      5F495352 
 4671      5F456E61 
 4671      626C6500 
 4672              	.LASF123:
 4673 057a 4755414E 		.ascii	"GUAN_JI\000"
 4673      5F4A4900 
 4674              	.LASF25:
 4675 0582 6F6E4465 		.ascii	"onDebounce\000"
 4675      626F756E 
 4675      636500
 4676              	.LASF151:
 4677 058d 64657374 		.ascii	"dest_ID\000"
 4677      5F494400 
 4678              	.LASF162:
 4679 0595 74696D65 		.ascii	"time_xin_feng_qu_nuan\000"
 4679      5F78696E 
 4679      5F66656E 
 4679      675F7175 
 4679      5F6E7561 
 4680              	.LASF77:
 4681 05ab 54696D69 		.ascii	"Timing_type\000"
 4681      6E675F74 
 4681      79706500 
 4682              	.LASF64:
 4683 05b7 77646774 		.ascii	"wdgtList\000"
 4683      4C697374 
 4683      00
 4684              	.LASF99:
 4685 05c0 4855414E 		.ascii	"HUAN_QI\000"
 4685      5F514900 
 4686              	.LASF179:
 4687 05c8 6B65795F 		.ascii	"key_is_long_pressed\000"
 4687      69735F6C 
 4687      6F6E675F 
 4687      70726573 
 4687      73656400 
 4688              	.LASF69:
 4689 05dc 736E7254 		.ascii	"snrTestRawCount\000"
 4689      65737452 
 4689      6177436F 
 4689      756E7400 
 4690              	.LASF23:
 4691 05ec 6E4E6F69 		.ascii	"nNoiseTh\000"
 4691      73655468 
ARM GAS  C:\Users\Administrator\AppData\Local\Temp\cc5eEmVR.s 			page 104


 4691      00
 4692              	.LASF62:
 4693 05f5 63736430 		.ascii	"csd0Config\000"
 4693      436F6E66 
 4693      696700
 4694              	.LASF16:
 4695 0600 63796973 		.ascii	"cyisraddress\000"
 4695      72616464 
 4695      72657373 
 4695      00
 4696              	.LASF172:
 4697 060d 6265696A 		.ascii	"beij_h\000"
 4697      5F6800
 4698              	.LASF153:
 4699 0614 705F636F 		.ascii	"p_combine_function\000"
 4699      6D62696E 
 4699      655F6675 
 4699      6E637469 
 4699      6F6E00
 4700              	.LASF171:
 4701 0627 6265696A 		.ascii	"beij_m\000"
 4701      5F6D00
 4702              	.LASF129:
 4703 062e 5A495F44 		.ascii	"ZI_DONG\000"
 4703      4F4E4700 
 4704              	.LASF141:
 4705 0636 74696D65 		.ascii	"time_1ms_Interrupt\000"
 4705      5F316D73 
 4705      5F496E74 
 4705      65727275 
 4705      707400
 4706              	.LASF152:
 4707 0649 636F6D6D 		.ascii	"command_type\000"
 4707      616E645F 
 4707      74797065 
 4707      00
 4708              	.LASF170:
 4709 0656 6265696A 		.ascii	"beij_s\000"
 4709      5F7300
 4710              	.LASF11:
 4711 065d 75696E74 		.ascii	"uint32\000"
 4711      333200
 4712              	.LASF177:
 4713 0664 6D617463 		.ascii	"match_code_wait\000"
 4713      685F636F 
 4713      64655F77 
 4713      61697400 
 4714              	.LASF100:
 4715 0674 4A494E47 		.ascii	"JING_HUA\000"
 4715      5F485541 
 4715      00
 4716              	.LASF83:
 4717 067d 4B45595F 		.ascii	"KEY_QING_RUO\000"
 4717      51494E47 
 4717      5F52554F 
 4717      00
 4718              	.LASF197:
ARM GAS  C:\Users\Administrator\AppData\Local\Temp\cc5eEmVR.s 			page 105


 4719 068a 47494F31 		.ascii	"GIO1_ClearInterrupt\000"
 4719      5F436C65 
 4719      6172496E 
 4719      74657272 
 4719      75707400 
 4720              	.LASF193:
 4721 069e 455A4932 		.ascii	"EZI2C_EzI2CSetBuffer1\000"
 4721      435F457A 
 4721      49324353 
 4721      65744275 
 4721      66666572 
 4722              	.LASF199:
 4723 06b4 6B65795F 		.ascii	"key_touch_ScanAllWidgets\000"
 4723      746F7563 
 4723      685F5363 
 4723      616E416C 
 4723      6C576964 
 4724              	.LASF169:
 4725 06cd 73656E64 		.ascii	"send_flag\000"
 4725      5F666C61 
 4725      6700
 4726              	.LASF133:
 4727 06d7 57414954 		.ascii	"WAIT_MESSAGE\000"
 4727      5F4D4553 
 4727      53414745 
 4727      00
 4728              	.LASF102:
 4729 06e4 46454E47 		.ascii	"FENG_NUAN\000"
 4729      5F4E5541 
 4729      4E00
 4730              	.LASF115:
 4731 06ee 46554E43 		.ascii	"FUNCTION_NUMBERS\000"
 4731      54494F4E 
 4731      5F4E554D 
 4731      42455253 
 4731      00
 4732              	.LASF92:
 4733 06ff 7A68616F 		.ascii	"zhaoming\000"
 4733      6D696E67 
 4733      00
 4734              	.LASF68:
 4735 0708 736E7254 		.ascii	"snrTestScanCounter\000"
 4735      65737453 
 4735      63616E43 
 4735      6F756E74 
 4735      657200
 4736              	.LASF54:
 4737 071b 636F6E66 		.ascii	"configId\000"
 4737      69674964 
 4737      00
 4738              	.LASF130:
 4739 0724 5149414E 		.ascii	"QIANG_RUO_MODE\000"
 4739      475F5255 
 4739      4F5F4D4F 
 4739      444500
 4740              	.LASF78:
 4741 0733 4B45595F 		.ascii	"KEY_DIAN_YUAN\000"
ARM GAS  C:\Users\Administrator\AppData\Local\Temp\cc5eEmVR.s 			page 106


 4741      4449414E 
 4741      5F595541 
 4741      4E00
 4742              	.LASF61:
 4743 0741 736E7353 		.ascii	"snsStatus\000"
 4743      74617475 
 4743      7300
 4744              	.LASF30:
 4745 074b 736E7343 		.ascii	"snsClkSource\000"
 4745      6C6B536F 
 4745      75726365 
 4745      00
 4746              	.LASF2:
 4747 0758 73686F72 		.ascii	"short int\000"
 4747      7420696E 
 4747      7400
 4748              	.LASF163:
 4749 0762 74696D65 		.ascii	"time_zhi_jing\000"
 4749      5F7A6869 
 4749      5F6A696E 
 4749      6700
 4750              	.LASF17:
 4751 0770 6B65795F 		.ascii	"key_touch_THRESHOLD_TYPE\000"
 4751      746F7563 
 4751      685F5448 
 4751      52455348 
 4751      4F4C445F 
 4752              	.LASF4:
 4753 0789 6C6F6E67 		.ascii	"long int\000"
 4753      20696E74 
 4753      00
 4754              	.LASF82:
 4755 0792 4B45595F 		.ascii	"KEY_XIN_FENG\000"
 4755      58494E5F 
 4755      46454E47 
 4755      00
 4756              	.LASF75:
 4757 079f 6F6C645F 		.ascii	"old_count\000"
 4757      636F756E 
 4757      7400
 4758              	.LASF116:
 4759 07a9 4D757465 		.ascii	"Mutex_function_mode\000"
 4759      785F6675 
 4759      6E637469 
 4759      6F6E5F6D 
 4759      6F646500 
 4760              	.LASF59:
 4761 07bd 77646774 		.ascii	"wdgtEnable\000"
 4761      456E6162 
 4761      6C6500
 4762              	.LASF86:
 4763 07c8 4B45595F 		.ascii	"KEY_DINGSHI_JIA\000"
 4763      44494E47 
 4763      5348495F 
 4763      4A494100 
 4764              	.LASF49:
 4765 07d8 64696666 		.ascii	"diff\000"
ARM GAS  C:\Users\Administrator\AppData\Local\Temp\cc5eEmVR.s 			page 107


 4765      00
 4766              	.LASF56:
 4767 07dd 74756E65 		.ascii	"tunerCmd\000"
 4767      72436D64 
 4767      00
 4768              	.LASF175:
 4769 07e6 6D617463 		.ascii	"match_code_state\000"
 4769      685F636F 
 4769      64655F73 
 4769      74617465 
 4769      00
 4770              	.LASF147:
 4771 07f7 73656E64 		.ascii	"send_show_buffer\000"
 4771      5F73686F 
 4771      775F6275 
 4771      66666572 
 4771      00
 4772              	.LASF160:
 4773 0808 74696D65 		.ascii	"time_huan_qi\000"
 4773      5F687561 
 4773      6E5F7169 
 4773      00
 4774              	.LASF71:
 4775 0815 46414C53 		.ascii	"FALSE\000"
 4775      4500
 4776              	.LASF164:
 4777 081b 74696D65 		.ascii	"time_zhi_mu\000"
 4777      5F7A6869 
 4777      5F6D7500 
 4778              	.LASF34:
 4779 0827 62757474 		.ascii	"button0\000"
 4779      6F6E3000 
 4780              	.LASF35:
 4781 082f 62757474 		.ascii	"button1\000"
 4781      6F6E3100 
 4782              	.LASF36:
 4783 0837 62757474 		.ascii	"button2\000"
 4783      6F6E3200 
 4784              	.LASF37:
 4785 083f 62757474 		.ascii	"button3\000"
 4785      6F6E3300 
 4786              	.LASF38:
 4787 0847 62757474 		.ascii	"button4\000"
 4787      6F6E3400 
 4788              	.LASF39:
 4789 084f 62757474 		.ascii	"button5\000"
 4789      6F6E3500 
 4790              	.LASF40:
 4791 0857 62757474 		.ascii	"button6\000"
 4791      6F6E3600 
 4792              	.LASF41:
 4793 085f 62757474 		.ascii	"button7\000"
 4793      6F6E3700 
 4794              	.LASF42:
 4795 0867 62757474 		.ascii	"button8\000"
 4795      6F6E3800 
 4796              	.LASF43:
ARM GAS  C:\Users\Administrator\AppData\Local\Temp\cc5eEmVR.s 			page 108


 4797 086f 62757474 		.ascii	"button9\000"
 4797      6F6E3900 
 4798              	.LASF104:
 4799 0877 46454E47 		.ascii	"FENG_NUAN_RUO\000"
 4799      5F4E5541 
 4799      4E5F5255 
 4799      4F00
 4800              	.LASF31:
 4801 0885 66696E67 		.ascii	"fingerCap\000"
 4801      65724361 
 4801      7000
 4802              	.LASF60:
 4803 088f 77646774 		.ascii	"wdgtStatus\000"
 4803      53746174 
 4803      757300
 4804              	.LASF208:
 4805 089a 443A5C6C 		.ascii	"D:\\local_svn\\AYBR3000\\AYBR3000_V2.0\\TOUCH_TEST\\"
 4805      6F63616C 
 4805      5F73766E 
 4805      5C415942 
 4805      52333030 
 4806 08c9 41594252 		.ascii	"AYBR3000.cydsn\000"
 4806      33303030 
 4806      2E637964 
 4806      736E00
 4807              	.LASF98:
 4808 08d8 4441495F 		.ascii	"DAI_JI\000"
 4808      4A4900
 4809              	.LASF157:
 4810 08df 7869616F 		.ascii	"xiaoshi\000"
 4810      73686900 
 4811              	.LASF19:
 4812 08e7 73697A65 		.ascii	"sizetype\000"
 4812      74797065 
 4812      00
 4813              	.LASF107:
 4814 08f0 44454E47 		.ascii	"DENG_NUAN_RUO\000"
 4814      5F4E5541 
 4814      4E5F5255 
 4814      4F00
 4815              	.LASF5:
 4816 08fe 6C6F6E67 		.ascii	"long unsigned int\000"
 4816      20756E73 
 4816      69676E65 
 4816      6420696E 
 4816      7400
 4817              	.LASF28:
 4818 0910 69646163 		.ascii	"idacMod\000"
 4818      4D6F6400 
 4819              	.LASF196:
 4820 0918 47494F31 		.ascii	"GIO1_ISR_StartEx\000"
 4820      5F495352 
 4820      5F537461 
 4820      72744578 
 4820      00
 4821              	.LASF120:
 4822 0929 434F4E4E 		.ascii	"CONNECT_NET\000"
ARM GAS  C:\Users\Administrator\AppData\Local\Temp\cc5eEmVR.s 			page 109


 4822      4543545F 
 4822      4E455400 
 4823              	.LASF21:
 4824 0935 66696E67 		.ascii	"fingerTh\000"
 4824      65725468 
 4824      00
 4825              	.LASF48:
 4826 093e 62736C6E 		.ascii	"bslnExt\000"
 4826      45787400 
 4827              	.LASF85:
 4828 0946 4B45595F 		.ascii	"KEY_XIN_FENG_QU_NUAN\000"
 4828      58494E5F 
 4828      46454E47 
 4828      5F51555F 
 4828      4E55414E 
 4829              	.LASF15:
 4830 095b 63797374 		.ascii	"cystatus\000"
 4830      61747573 
 4830      00
 4831              	.LASF95:
 4832 0964 7A69646F 		.ascii	"zidong\000"
 4832      6E6700
 4833              	.LASF186:
 4834 096b 74696D69 		.ascii	"timing_count\000"
 4834      6E675F63 
 4834      6F756E74 
 4834      00
 4835              	.LASF1:
 4836 0978 756E7369 		.ascii	"unsigned char\000"
 4836      676E6564 
 4836      20636861 
 4836      7200
 4837              	.LASF109:
 4838 0986 58494E5F 		.ascii	"XIN_FENG_FENG_NUAN\000"
 4838      46454E47 
 4838      5F46454E 
 4838      475F4E55 
 4838      414E00
 4839              	.LASF126:
 4840 0999 5A48495F 		.ascii	"ZHI_MU\000"
 4840      4D5500
 4841              	.LASF202:
 4842 09a0 6B65795F 		.ascii	"key_touch_ProcessAllWidgets\000"
 4842      746F7563 
 4842      685F5072 
 4842      6F636573 
 4842      73416C6C 
 4843              	.LASF105:
 4844 09bc 43485549 		.ascii	"CHUI_FENG\000"
 4844      5F46454E 
 4844      4700
 4845              	.LASF161:
 4846 09c6 74696D65 		.ascii	"time_xin_feng\000"
 4846      5F78696E 
 4846      5F66656E 
 4846      6700
 4847              	.LASF53:
ARM GAS  C:\Users\Administrator\AppData\Local\Temp\cc5eEmVR.s 			page 110


 4848 09d4 6B65795F 		.ascii	"key_touch_RAM_SNS_LIST_STRUCT\000"
 4848      746F7563 
 4848      685F5241 
 4848      4D5F534E 
 4848      535F4C49 
 4849              	.LASF103:
 4850 09f2 46454E47 		.ascii	"FENG_NUAN_QIANG\000"
 4850      5F4E5541 
 4850      4E5F5149 
 4850      414E4700 
 4851              	.LASF29:
 4852 0a02 736E7343 		.ascii	"snsClk\000"
 4852      6C6B00
 4853              	.LASF96:
 4854 0a09 62656570 		.ascii	"beep\000"
 4854      00
 4855              	.LASF194:
 4856 0a0e 54696D65 		.ascii	"Timer_1_Start\000"
 4856      725F315F 
 4856      53746172 
 4856      7400
 4857              	.LASF0:
 4858 0a1c 7369676E 		.ascii	"signed char\000"
 4858      65642063 
 4858      68617200 
 4859              	.LASF204:
 4860 0a28 6B65795F 		.ascii	"key_scan\000"
 4860      7363616E 
 4860      00
 4861              	.LASF47:
 4862 0a31 62736C6E 		.ascii	"bsln\000"
 4862      00
 4863              	.LASF3:
 4864 0a36 73686F72 		.ascii	"short unsigned int\000"
 4864      7420756E 
 4864      7369676E 
 4864      65642069 
 4864      6E7400
 4865              	.LASF167:
 4866 0a49 7A68695F 		.ascii	"zhi_neng_mode\000"
 4866      6E656E67 
 4866      5F6D6F64 
 4866      6500
 4867              	.LASF210:
 4868 0a57 6D61696E 		.ascii	"main\000"
 4868      00
 4869              	.LASF178:
 4870 0a5c 6B65795F 		.ascii	"key_is_short_pressed\000"
 4870      69735F73 
 4870      686F7274 
 4870      5F707265 
 4870      73736564 
 4871              	.LASF149:
 4872 0a71 74696D65 		.ascii	"timer_count\000"
 4872      725F636F 
 4872      756E7400 
 4873              	.LASF94:
ARM GAS  C:\Users\Administrator\AppData\Local\Temp\cc5eEmVR.s 			page 111


 4874 0a7d 7169616E 		.ascii	"qiang\000"
 4874      6700
 4875              	.LASF9:
 4876 0a83 75696E74 		.ascii	"uint8\000"
 4876      3800
 4877              	.LASF13:
 4878 0a89 646F7562 		.ascii	"double\000"
 4878      6C6500
 4879              	.LASF176:
 4880 0a90 6D617463 		.ascii	"match_code\000"
 4880      685F636F 
 4880      646500
 4881              	.LASF50:
 4882 0a9b 6E656742 		.ascii	"negBslnRstCnt\000"
 4882      736C6E52 
 4882      7374436E 
 4882      7400
 4883              	.LASF181:
 4884 0aa9 74696D69 		.ascii	"timing_set_counts\000"
 4884      6E675F73 
 4884      65745F63 
 4884      6F756E74 
 4884      7300
 4885              	.LASF144:
 4886 0abb 6B65795F 		.ascii	"key_touch_dsRam\000"
 4886      746F7563 
 4886      685F6473 
 4886      52616D00 
 4887              	.LASF201:
 4888 0acb 6B65795F 		.ascii	"key_touch_IsBusy\000"
 4888      746F7563 
 4888      685F4973 
 4888      42757379 
 4888      00
 4889              	.LASF80:
 4890 0adc 4B45595F 		.ascii	"KEY_WENDU_JIA\000"
 4890      57454E44 
 4890      555F4A49 
 4890      4100
 4891              	.LASF55:
 4892 0aea 64657669 		.ascii	"deviceId\000"
 4892      63654964 
 4892      00
 4893              	.LASF81:
 4894 0af3 4B45595F 		.ascii	"KEY_WENDU_JIAN\000"
 4894      57454E44 
 4894      555F4A49 
 4894      414E00
 4895              	.LASF122:
 4896 0b02 436F6D6D 		.ascii	"Command_type\000"
 4896      616E645F 
 4896      74797065 
 4896      00
 4897              	.LASF134:
 4898 0b0f 4D617463 		.ascii	"Match_code_state\000"
 4898      685F636F 
 4898      64655F73 
ARM GAS  C:\Users\Administrator\AppData\Local\Temp\cc5eEmVR.s 			page 112


 4898      74617465 
 4898      00
 4899              	.LASF209:
 4900 0b20 49445F63 		.ascii	"ID_check_ok\000"
 4900      6865636B 
 4900      5F6F6B00 
 4901              	.LASF165:
 4902 0b2c 74656D70 		.ascii	"temp_xin_feng_qn\000"
 4902      5F78696E 
 4902      5F66656E 
 4902      675F716E 
 4902      00
 4903              	.LASF44:
 4904 0b3d 62757474 		.ascii	"button10\000"
 4904      6F6E3130 
 4904      00
 4905              	.LASF45:
 4906 0b46 62757474 		.ascii	"button11\000"
 4906      6F6E3131 
 4906      00
 4907              		.ident	"GCC: (GNU Tools for ARM Embedded Processors) 4.9.3 20150303 (release) [ARM/embedded-4_9-br
