ARM GAS  C:\Users\Administrator\AppData\Local\Temp\ccx3kPmM.s 			page 1


   1              		.cpu cortex-m0plus
   2              		.fpu softvfp
   3              		.eabi_attribute 20, 1
   4              		.eabi_attribute 21, 1
   5              		.eabi_attribute 23, 3
   6              		.eabi_attribute 24, 1
   7              		.eabi_attribute 25, 1
   8              		.eabi_attribute 26, 1
   9              		.eabi_attribute 30, 1
  10              		.eabi_attribute 34, 0
  11              		.eabi_attribute 18, 4
  12              		.code	16
  13              		.file	"main.c"
  14              		.text
  15              	.Ltext0:
  16              		.cfi_sections	.debug_frame
  17              		.section	.text.make_data,"ax",%progbits
  18              		.align	2
  19              		.code	16
  20              		.thumb_func
  21              		.type	make_data, %function
  22              	make_data:
  23              	.LFB38:
  24              		.file 1 "main.c"
   1:main.c        **** /* ========================================
   2:main.c        ****  *
   3:main.c        ****  * Copyright YOUR COMPANY, THE YEAR
   4:main.c        ****  * All Rights Reserved
   5:main.c        ****  * UNPUBLISHED, LICENSED SOFTWARE.
   6:main.c        ****  *
   7:main.c        ****  * CONFIDENTIAL AND PROPRIETARY INFORMATION
   8:main.c        ****  * WHICH IS THE PROPERTY OF your company.
   9:main.c        ****  *
  10:main.c        ****  * ========================================
  11:main.c        **** */
  12:main.c        **** #include "project.h"
  13:main.c        **** #include "A7105_driver.h"
  14:main.c        **** #include "timing.h"
  15:main.c        **** #include "key.h"
  16:main.c        **** #include "simple_protocol.h"
  17:main.c        **** CY_ISR_PROTO(time_1ms_Interrupt);
  18:main.c        **** CY_ISR_PROTO(gio1_interrupt);
  19:main.c        **** typedef struct
  20:main.c        **** {
  21:main.c        ****     uint8 zhaoming : 1;
  22:main.c        ****     uint8 baidong  : 1;
  23:main.c        ****     uint8 qiang    : 1;
  24:main.c        ****     uint8 ruo      : 1;
  25:main.c        ****     uint8 zidong   : 1;
  26:main.c        ****     uint8 beep     : 1;
  27:main.c        **** }Combine_function;
  28:main.c        **** 
  29:main.c        **** typedef enum
  30:main.c        **** {
  31:main.c        ****     DAI_JI,
  32:main.c        ****     HUAN_QI,
  33:main.c        ****     JING_HUA,
ARM GAS  C:\Users\Administrator\AppData\Local\Temp\ccx3kPmM.s 			page 2


  34:main.c        ****     XIN_FENG,
  35:main.c        ****     FENG_NUAN,
  36:main.c        ****     FENG_NUAN_QIANG,
  37:main.c        ****     FENG_NUAN_RUO,
  38:main.c        ****     CHUI_FENG,
  39:main.c        ****     GAN_ZAO,
  40:main.c        ****     DENG_NUAN_RUO,
  41:main.c        ****     DENG_NUAN_QIANG,
  42:main.c        ****     XIN_FENG_FENG_NUAN,
  43:main.c        ****     ZHI_NENG_GAN_ZAO,
  44:main.c        ****     ZHI_NENG_MU_YU_1,
  45:main.c        ****     ZHI_NENG_MU_YU_2,
  46:main.c        ****     ZHI_NENG_JING_HUA,
  47:main.c        ****     CHUI_FENG_JING_HUA,
  48:main.c        ****     FUNCTION_NUMBERS,
  49:main.c        **** }Mutex_function_mode;
  50:main.c        **** 
  51:main.c        **** Mutex_function_mode mutex_function_mode = DAI_JI;
  52:main.c        **** 
  53:main.c        **** uint8 t = 0;
  54:main.c        **** uint8 send_buffer[24] = {0}; 
  55:main.c        **** uint8 send_show_buffer[16] = {0};
  56:main.c        **** uint8 receive_buffer[24] = {0};
  57:main.c        **** uint16 timer_count = 0;
  58:main.c        **** uint8 src_ID[4] = {1, 2, 3, 4};
  59:main.c        **** uint8 dest_ID[4] = {0};
  60:main.c        **** 
  61:main.c        **** #define TOUCH_TUNE_SWITCH
  62:main.c        **** #define SEND_TUNE_SWITCH
  63:main.c        **** #define DATA_BUFFER_LENGTH   20
  64:main.c        **** 
  65:main.c        **** 
  66:main.c        **** static void make_data(uint8 *buffer);
  67:main.c        **** 
  68:main.c        **** typedef enum
  69:main.c        **** {
  70:main.c        ****     READ_STATE,
  71:main.c        ****     CONTROL,
  72:main.c        ****     MATCH_CODE,
  73:main.c        ****     CONNECT_NET,
  74:main.c        ****     DISCONNECT_NET,
  75:main.c        **** }Command_type;
  76:main.c        **** 
  77:main.c        **** 
  78:main.c        **** Command_type *command_type = (Command_type *)&send_show_buffer[0];  //send_show_buffer[0];    è¿™ä½
  79:main.c        **** Combine_function *p_combine_function = (Combine_function *)&send_show_buffer[1];
  80:main.c        **** Mutex_function_mode *p_mutex_function = (Mutex_function_mode *)&send_show_buffer[2];
  81:main.c        **** 
  82:main.c        **** 
  83:main.c        **** uint8 *wendu = &send_show_buffer[3];        //æ¸©åº¦
  84:main.c        **** uint8 *dingshi = &send_show_buffer[4];        //æ—¶é—´
  85:main.c        **** uint8 *xiaoshi = &send_show_buffer[5];
  86:main.c        **** uint8 *fenzhong = &send_show_buffer[6];
  87:main.c        **** 
  88:main.c        **** uint8 time_feng_nuan = 90;    //60 - 120 
  89:main.c        **** uint8 time_huan_qi = 30;      //30 - 60
  90:main.c        **** uint8 time_xin_feng = 30;    //15 - 60
ARM GAS  C:\Users\Administrator\AppData\Local\Temp\ccx3kPmM.s 			page 3


  91:main.c        **** uint8 time_xin_feng_qu_nuan = 90;  //60 - 120
  92:main.c        **** uint8 time_zhi_jing = 120;   //90 - 150
  93:main.c        **** uint8 time_zhi_mu = 90;   //60 - 120
  94:main.c        **** 
  95:main.c        **** uint8 temp_xin_feng_qn = 35;   //30 - 40
  96:main.c        **** uint8 temp_fengnuan = 35;
  97:main.c        **** 
  98:main.c        **** typedef enum
  99:main.c        **** {
 100:main.c        ****     GUAN_JI,
 101:main.c        ****     ZHI_GAN,
 102:main.c        ****     ZHI_JING,
 103:main.c        ****     ZHI_MU,
 104:main.c        **** }ZHI_NENG_MODE;
 105:main.c        **** ZHI_NENG_MODE zhi_neng_mode = GUAN_JI;
 106:main.c        **** 
 107:main.c        **** typedef enum
 108:main.c        **** {
 109:main.c        ****     QAING,
 110:main.c        ****     RUO,
 111:main.c        ****     ZI_DONG,
 112:main.c        **** }QIANG_RUO_MODE;
 113:main.c        **** QIANG_RUO_MODE qiang_ruo_mode = QAING;
 114:main.c        **** Bool send_flag = FALSE;
 115:main.c        **** 
 116:main.c        **** 
 117:main.c        **** uint8 beij_s=0,beij_m=0,beij_h=12;
 118:main.c        **** static uint8 timer_10ms=0;
 119:main.c        **** 
 120:main.c        **** Bool lcd_on = FALSE;
 121:main.c        **** uint16 LCD_on_count = 0;
 122:main.c        **** 
 123:main.c        **** typedef enum
 124:main.c        **** {
 125:main.c        ****     WAIT_LONG_PRESS,
 126:main.c        ****     WAIT_SHORT_PRESS,
 127:main.c        ****     WAIT_MESSAGE,
 128:main.c        **** }Match_code_state;
 129:main.c        **** Match_code_state match_code_state = WAIT_LONG_PRESS;
 130:main.c        **** Bool match_code = FALSE;
 131:main.c        **** Timing_type match_code_wait;
 132:main.c        **** 
 133:main.c        **** static void beij_timer(void);
 134:main.c        **** static void key_deal(void);
 135:main.c        **** static void match_code_mode(void);
 136:main.c        **** 
 137:main.c        **** int main(void)
 138:main.c        **** {
 139:main.c        ****     /* Place your initialization/startup code here (e.g. MyInst_Start()) */
 140:main.c        ****     
 141:main.c        ****     CyGlobalIntEnable; /* Enable global interrupts. */
 142:main.c        ****     A7105_init();
 143:main.c        ****     key_init();
 144:main.c        ****     GIO1_ISR_Disable();         //ç«¯å£é»˜è®¤ç”µå¹³æ˜¯é«˜ç”µå¹³ï¼Œéœ€è¦å¿½ç•¥è¿™ä¸ªä¸‹é™æ²¿
 145:main.c        ****     GIO1_Write(0);
 146:main.c        ****     GIO1_ISR_ClearPending();
 147:main.c        ****     GIO1_ISR_Enable();
ARM GAS  C:\Users\Administrator\AppData\Local\Temp\ccx3kPmM.s 			page 4


 148:main.c        ****     
 149:main.c        ****     
 150:main.c        **** #ifdef TOUCH_TUNE_SWITCH 
 151:main.c        ****     
 152:main.c        ****     EZI2C_Start(); /* Start EZI2C Component */
 153:main.c        ****     /*
 154:main.c        ****     * Set up communication and initialize data buffer to CapSense data structure
 155:main.c        ****     * to use Tuner application
 156:main.c        ****     */
 157:main.c        ****     EZI2C_EzI2CSetBuffer1(sizeof(key_touch_dsRam), sizeof(key_touch_dsRam),(uint8 *)&key_touch_dsRa
 158:main.c        **** 
 159:main.c        **** #endif
 160:main.c        ****     Timer_1_Start();  //å¼€å®šæ—¶å™¨
 161:main.c        ****     
 162:main.c        ****     time_1ms_ISR_StartEx(time_1ms_Interrupt);      //è‡ªå®šä¹‰ä¸­æ–­æœåŠ¡å‡½æ•°
 163:main.c        ****     GIO1_ISR_StartEx(gio1_interrupt);            //æŒ‡å®šå¤–éƒ¨ä¸­æ–­GIO1ä¸­æ–­å‡½æ•°
 164:main.c        ****     key_touch_Start(); /* Initialize Component */
 165:main.c        ****     key_touch_ScanAllWidgets(); /* Scan all widgets */
 166:main.c        **** #ifdef SEND_TUNE_SWITCH
 167:main.c        ****     simple_protocol_init();
 168:main.c        **** #endif
 169:main.c        ****     (*fenzhong) = beij_m;
 170:main.c        ****     (*xiaoshi) = beij_h;
 171:main.c        ****     for(;;)
 172:main.c        ****     {
 173:main.c        ****         /* Do this only when a scan is done */
 174:main.c        ****         if (timer_count >= 10)
 175:main.c        ****         {   
 176:main.c        ****             timer_count = 0;
 177:main.c        ****             timer_10ms++;
 178:main.c        ****             LCD_on_count++;
 179:main.c        ****             
 180:main.c        ****             if (LCD_on_count > 50000)
 181:main.c        ****                 LCD_on_count = 10000;
 182:main.c        ****             
 183:main.c        ****             if(key_touch_NOT_BUSY == key_touch_IsBusy()) 
 184:main.c        ****             {
 185:main.c        ****                 key_touch_ProcessAllWidgets(); 
 186:main.c        ****                 
 187:main.c        ****     #ifdef TOUCH_TUNE_SWITCH             
 188:main.c        ****                 key_touch_RunTuner(); 
 189:main.c        ****     #endif
 190:main.c        ****                 key_scan();      //è§¦æŽ§æŒ‰é”®çš„çŠ¶æ€å·²ç»æ›´æ–°
 191:main.c        ****                 
 192:main.c        ****                 key_touch_ScanAllWidgets(); 
 193:main.c        ****             }
 194:main.c        ****         }
 195:main.c        ****         beij_timer();
 196:main.c        ****         
 197:main.c        ****         if (LCD_on_count > 800)
 198:main.c        ****         {
 199:main.c        ****             if (lcd_on)
 200:main.c        ****             {
 201:main.c        ****                 lcd_on = FALSE;
 202:main.c        ****             }
 203:main.c        ****         }
 204:main.c        ****         key_deal();
ARM GAS  C:\Users\Administrator\AppData\Local\Temp\ccx3kPmM.s 			page 5


 205:main.c        ****         match_code_mode();
 206:main.c        ****         
 207:main.c        ****         
 208:main.c        ****         if (send_flag)
 209:main.c        ****         {
 210:main.c        ****             send_flag = FALSE;
 211:main.c        ****             make_data(send_show_buffer);
 212:main.c        ****             //simple_protocol_send(send_buffer, DATA_BUFFER_LENGTH); 
 213:main.c        ****             make_data(send_show_buffer);
 214:main.c        ****             //send_data_by_A7105(DATA_BUFFER_LENGTH, send_buffer);
 215:main.c        ****         }
 216:main.c        ****         #ifdef SEND_TUNE_SWITCH
 217:main.c        ****         simple_protocol_process();
 218:main.c        ****         #endif
 219:main.c        ****         
 220:main.c        ****         /* Place your application code here. */
 221:main.c        ****     }
 222:main.c        **** }
 223:main.c        **** 
 224:main.c        **** CY_ISR(time_1ms_Interrupt)
 225:main.c        **** {
 226:main.c        ****     timer_count++;
 227:main.c        ****     timing_count();
 228:main.c        ****     Timer_1_ClearInterrupt(Timer_1_INTR_MASK_TC);
 229:main.c        **** }
 230:main.c        **** 
 231:main.c        **** CY_ISR(gio1_interrupt)
 232:main.c        **** {
 233:main.c        ****     A7105_update_wtr(TRUE);
 234:main.c        ****     GIO1_ClearInterrupt();
 235:main.c        **** }
 236:main.c        **** 
 237:main.c        **** 
 238:main.c        **** static void make_data(uint8 *buffer)
 239:main.c        **** {
  25              		.loc 1 239 0
  26              		.cfi_startproc
  27              	.LVL0:
  28 0000 10B5     		push	{r4, lr}
  29              		.cfi_def_cfa_offset 8
  30              		.cfi_offset 4, -8
  31              		.cfi_offset 14, -4
  32              	.LVL1:
 240:main.c        ****     uint8 i, check_sum = 0;
 241:main.c        ****     
 242:main.c        ****     
 243:main.c        ****     send_buffer[0] = 0x5a;
  33              		.loc 1 243 0
  34 0002 184B     		ldr	r3, .L6
  35 0004 5A22     		mov	r2, #90
  36 0006 1A70     		strb	r2, [r3]
 244:main.c        ****     send_buffer[1] = 0x01;
  37              		.loc 1 244 0
  38 0008 593A     		sub	r2, r2, #89
  39 000a 5A70     		strb	r2, [r3, #1]
 245:main.c        ****     send_buffer[2] = src_ID[0];
  40              		.loc 1 245 0
ARM GAS  C:\Users\Administrator\AppData\Local\Temp\ccx3kPmM.s 			page 6


  41 000c 164A     		ldr	r2, .L6+4
  42 000e 1178     		ldrb	r1, [r2]
  43 0010 9970     		strb	r1, [r3, #2]
 246:main.c        ****     send_buffer[3] = src_ID[1];
  44              		.loc 1 246 0
  45 0012 5178     		ldrb	r1, [r2, #1]
  46 0014 D970     		strb	r1, [r3, #3]
 247:main.c        ****     send_buffer[4] = src_ID[2];
  47              		.loc 1 247 0
  48 0016 9178     		ldrb	r1, [r2, #2]
  49 0018 1971     		strb	r1, [r3, #4]
 248:main.c        ****     send_buffer[5] = src_ID[3];
  50              		.loc 1 248 0
  51 001a D278     		ldrb	r2, [r2, #3]
  52 001c 5A71     		strb	r2, [r3, #5]
 249:main.c        ****     send_buffer[6] = dest_ID[0];
  53              		.loc 1 249 0
  54 001e 1A7E     		ldrb	r2, [r3, #24]
  55 0020 9A71     		strb	r2, [r3, #6]
 250:main.c        ****     send_buffer[7] = dest_ID[1];
  56              		.loc 1 250 0
  57 0022 5A7E     		ldrb	r2, [r3, #25]
  58 0024 DA71     		strb	r2, [r3, #7]
 251:main.c        ****     send_buffer[8] = dest_ID[2];
  59              		.loc 1 251 0
  60 0026 9A7E     		ldrb	r2, [r3, #26]
  61 0028 1A72     		strb	r2, [r3, #8]
 252:main.c        ****     send_buffer[9] = dest_ID[3];
  62              		.loc 1 252 0
  63 002a DA7E     		ldrb	r2, [r3, #27]
  64 002c 5A72     		strb	r2, [r3, #9]
  65              	.LVL2:
 253:main.c        ****     
 254:main.c        ****     for (i = 0; i < DATA_BUFFER_LENGTH - 11; i++)
  66              		.loc 1 254 0
  67 002e 0023     		mov	r3, #0
  68 0030 06E0     		b	.L2
  69              	.LVL3:
  70              	.L3:
 255:main.c        ****         send_buffer[10 + i] = buffer[i];
  71              		.loc 1 255 0 discriminator 3
  72 0032 1A1C     		mov	r2, r3
  73 0034 0A32     		add	r2, r2, #10
  74 0036 C45C     		ldrb	r4, [r0, r3]
  75 0038 0A49     		ldr	r1, .L6
  76 003a 8C54     		strb	r4, [r1, r2]
 254:main.c        ****         send_buffer[10 + i] = buffer[i];
  77              		.loc 1 254 0 discriminator 3
  78 003c 0133     		add	r3, r3, #1
  79              	.LVL4:
  80 003e DBB2     		uxtb	r3, r3
  81              	.LVL5:
  82              	.L2:
 254:main.c        ****         send_buffer[10 + i] = buffer[i];
  83              		.loc 1 254 0 is_stmt 0 discriminator 1
  84 0040 082B     		cmp	r3, #8
  85 0042 F6D9     		bls	.L3
ARM GAS  C:\Users\Administrator\AppData\Local\Temp\ccx3kPmM.s 			page 7


  86 0044 0022     		mov	r2, #0
  87 0046 0023     		mov	r3, #0
  88              	.LVL6:
  89 0048 05E0     		b	.L4
  90              	.LVL7:
  91              	.L5:
 256:main.c        ****         
 257:main.c        ****     for (i = 0; i < DATA_BUFFER_LENGTH - 1; i++)
 258:main.c        ****         check_sum += send_buffer[i];
  92              		.loc 1 258 0 is_stmt 1 discriminator 3
  93 004a 0649     		ldr	r1, .L6
  94 004c C95C     		ldrb	r1, [r1, r3]
  95 004e 8A18     		add	r2, r1, r2
  96              	.LVL8:
  97 0050 D2B2     		uxtb	r2, r2
  98              	.LVL9:
 257:main.c        ****         check_sum += send_buffer[i];
  99              		.loc 1 257 0 discriminator 3
 100 0052 0133     		add	r3, r3, #1
 101              	.LVL10:
 102 0054 DBB2     		uxtb	r3, r3
 103              	.LVL11:
 104              	.L4:
 257:main.c        ****         check_sum += send_buffer[i];
 105              		.loc 1 257 0 is_stmt 0 discriminator 1
 106 0056 122B     		cmp	r3, #18
 107 0058 F7D9     		bls	.L5
 259:main.c        ****         
 260:main.c        ****     send_buffer[DATA_BUFFER_LENGTH - 1] = ~check_sum + 1;
 108              		.loc 1 260 0 is_stmt 1
 109 005a 5242     		neg	r2, r2
 110              	.LVL12:
 111 005c 014B     		ldr	r3, .L6
 112              	.LVL13:
 113 005e DA74     		strb	r2, [r3, #19]
 261:main.c        **** }
 114              		.loc 1 261 0
 115              		@ sp needed
 116 0060 10BD     		pop	{r4, pc}
 117              	.L7:
 118 0062 C046     		.align	2
 119              	.L6:
 120 0064 00000000 		.word	.LANCHOR0
 121 0068 00000000 		.word	.LANCHOR1
 122              		.cfi_endproc
 123              	.LFE38:
 124              		.size	make_data, .-make_data
 125              		.section	.text.ID_check_ok,"ax",%progbits
 126              		.align	2
 127              		.code	16
 128              		.thumb_func
 129              		.type	ID_check_ok, %function
 130              	ID_check_ok:
 131              	.LFB42:
 262:main.c        **** 
 263:main.c        **** static void key_deal(void)
 264:main.c        **** {
ARM GAS  C:\Users\Administrator\AppData\Local\Temp\ccx3kPmM.s 			page 8


 265:main.c        ****     Key_index i;
 266:main.c        ****     for (i = 0; i < KEY_NUM; i++)
 267:main.c        ****     {
 268:main.c        ****         if (key_is_short_pressed(i))
 269:main.c        ****         {
 270:main.c        ****             /*
 271:main.c        ****             LCD_on_count = 0;
 272:main.c        ****             if (lcd_on == FALSE)
 273:main.c        ****             {
 274:main.c        ****                 *command_type = READ_STATE;
 275:main.c        ****                 lcd_on = TRUE;
 276:main.c        ****             }
 277:main.c        ****             else
 278:main.c        ****             {
 279:main.c        ****                
 280:main.c        ****             }*/
 281:main.c        ****             *command_type = CONTROL; 
 282:main.c        ****             switch(i)
 283:main.c        ****             {
 284:main.c        ****                 case KEY_DIAN_YUAN: 
 285:main.c        ****                     if (*p_mutex_function == DAI_JI)
 286:main.c        ****                         *p_mutex_function = DAI_JI;
 287:main.c        ****                     else
 288:main.c        ****                         *p_mutex_function = DAI_JI;
 289:main.c        **** 
 290:main.c        ****                     send_flag = TRUE;
 291:main.c        ****                     break;
 292:main.c        ****                 case KEY_FENG_NUAN: 
 293:main.c        ****                     if (*p_mutex_function == FENG_NUAN)
 294:main.c        ****                         *p_mutex_function = DAI_JI;
 295:main.c        ****                     else
 296:main.c        ****                     {
 297:main.c        ****                         *p_mutex_function = FENG_NUAN;
 298:main.c        ****                         p_combine_function->ruo = 0;
 299:main.c        ****                         p_combine_function->zidong = 0;
 300:main.c        ****                         p_combine_function->qiang = 1;
 301:main.c        ****                     }
 302:main.c        ****                     
 303:main.c        ****                     (*wendu) = 35;        //æ¸©åº¦
 304:main.c        ****                     (*dingshi) = 90;        //æ—¶é—´
 305:main.c        ****                     send_flag = TRUE;
 306:main.c        ****                     break;
 307:main.c        ****                 case KEY_WENDU_JIA: 
 308:main.c        ****                     if(*p_mutex_function == FENG_NUAN)
 309:main.c        ****                     {
 310:main.c        ****                         if ((*wendu) < 40)
 311:main.c        ****                             (*wendu)++;
 312:main.c        ****                     }
 313:main.c        ****                     if(*p_mutex_function == XIN_FENG_FENG_NUAN)
 314:main.c        ****                     {
 315:main.c        ****                         if ((*wendu) < 40)
 316:main.c        ****                             (*wendu)++;
 317:main.c        ****                     }
 318:main.c        ****                     send_flag = TRUE;
 319:main.c        ****                     break;
 320:main.c        ****                 case KEY_WENDU_JIAN: 
 321:main.c        ****                     if(*p_mutex_function == FENG_NUAN)
ARM GAS  C:\Users\Administrator\AppData\Local\Temp\ccx3kPmM.s 			page 9


 322:main.c        ****                     {
 323:main.c        ****                         if ((*wendu) > 30)
 324:main.c        ****                             (*wendu)--;
 325:main.c        ****                     }
 326:main.c        ****                     if(*p_mutex_function == XIN_FENG_FENG_NUAN)
 327:main.c        ****                     {
 328:main.c        ****                         if ((*wendu) > 30)
 329:main.c        ****                             (*wendu)--;
 330:main.c        ****                     }
 331:main.c        ****                     send_flag = TRUE;
 332:main.c        ****                     break;
 333:main.c        ****                 case KEY_XIN_FENG: 
 334:main.c        ****                     if (*p_mutex_function == XIN_FENG)
 335:main.c        ****                         *p_mutex_function = DAI_JI;
 336:main.c        ****                     else
 337:main.c        ****                     {
 338:main.c        ****                         *p_mutex_function = XIN_FENG;
 339:main.c        ****                         p_combine_function->qiang = 1;
 340:main.c        ****                         p_combine_function->ruo = 0;
 341:main.c        ****                         p_combine_function->zidong = 0;
 342:main.c        ****                     }
 343:main.c        ****                     (*wendu) = 0;        //æ¸©åº¦
 344:main.c        ****                     (*dingshi) = 30;        //æ—¶é—´
 345:main.c        ****                     send_flag = TRUE;
 346:main.c        ****                     break;
 347:main.c        ****                 case KEY_QING_RUO:
 348:main.c        ****                     if ((*p_mutex_function != HUAN_QI)
 349:main.c        ****                     &&(*p_mutex_function != XIN_FENG)
 350:main.c        ****                     &&(*p_mutex_function != FENG_NUAN)
 351:main.c        ****                     &&(*p_mutex_function != XIN_FENG_FENG_NUAN))
 352:main.c        ****                     {break;}
 353:main.c        **** 
 354:main.c        ****                     p_combine_function->qiang = 0;
 355:main.c        ****                     p_combine_function->ruo = 0;
 356:main.c        ****                     p_combine_function->zidong = 0;
 357:main.c        ****                     switch(qiang_ruo_mode)
 358:main.c        ****                     {
 359:main.c        ****                         case QAING: 
 360:main.c        ****                             qiang_ruo_mode = RUO;
 361:main.c        ****                             p_combine_function->ruo = 1;
 362:main.c        ****                             break;
 363:main.c        ****                         case RUO:
 364:main.c        ****                             qiang_ruo_mode = ZI_DONG;
 365:main.c        ****                             p_combine_function->zidong = 1;
 366:main.c        ****                             break;
 367:main.c        ****                         case ZI_DONG: 
 368:main.c        ****                             p_combine_function->qiang = 1;
 369:main.c        ****                             qiang_ruo_mode = QAING;
 370:main.c        ****                             break;
 371:main.c        ****                     }
 372:main.c        ****                     send_flag = TRUE;
 373:main.c        ****                     break;
 374:main.c        ****                 case KEY_HUAN_QI: 
 375:main.c        ****                     if (*p_mutex_function == HUAN_QI)
 376:main.c        ****                         *p_mutex_function = DAI_JI;
 377:main.c        ****                     else
 378:main.c        ****                     {
ARM GAS  C:\Users\Administrator\AppData\Local\Temp\ccx3kPmM.s 			page 10


 379:main.c        ****                         *p_mutex_function = HUAN_QI;
 380:main.c        ****                         p_combine_function->qiang = 1;
 381:main.c        ****                         p_combine_function->ruo = 0;
 382:main.c        ****                         p_combine_function->zidong = 0;
 383:main.c        ****                     }
 384:main.c        ****                     p_combine_function->baidong = 0;
 385:main.c        ****                     (*wendu) = 0;        //æ¸©åº¦
 386:main.c        ****                     (*dingshi) = 30;        //æ—¶é—´
 387:main.c        ****                     send_flag = TRUE;
 388:main.c        ****                     break;
 389:main.c        ****                 case KEY_XIN_FENG_QU_NUAN: 
 390:main.c        ****                     if (*p_mutex_function == XIN_FENG_FENG_NUAN)
 391:main.c        ****                         *p_mutex_function = DAI_JI;
 392:main.c        ****                     else
 393:main.c        ****                     {
 394:main.c        ****                         *p_mutex_function = XIN_FENG_FENG_NUAN;
 395:main.c        ****                         p_combine_function->qiang = 1;
 396:main.c        ****                         p_combine_function->ruo = 0;
 397:main.c        ****                         p_combine_function->zidong = 0;
 398:main.c        ****                     }
 399:main.c        ****                     (*wendu) = 35;        //æ¸©åº¦
 400:main.c        ****                     (*dingshi) = 90;        //æ—¶é—´
 401:main.c        ****                     send_flag = TRUE;
 402:main.c        ****                     break;
 403:main.c        ****                 case KEY_DINGSHI_JIA: 
 404:main.c        ****                     if (*p_mutex_function == FENG_NUAN)
 405:main.c        ****                     {
 406:main.c        ****                         if ((*dingshi) < 120)
 407:main.c        ****                             (*dingshi) += 15;
 408:main.c        ****                     }
 409:main.c        ****                     if (*p_mutex_function == XIN_FENG)
 410:main.c        ****                     {
 411:main.c        ****                         if ((*dingshi) < 60)
 412:main.c        ****                             (*dingshi) += 15;
 413:main.c        ****                     }
 414:main.c        ****                     if (*p_mutex_function == HUAN_QI)
 415:main.c        ****                     {
 416:main.c        ****                         if ((*dingshi) < 60)
 417:main.c        ****                             (*dingshi) += 15;
 418:main.c        ****                     }
 419:main.c        ****                     if (*p_mutex_function == XIN_FENG_FENG_NUAN)
 420:main.c        ****                     {
 421:main.c        ****                         if ((*dingshi) < 120)
 422:main.c        ****                             (*dingshi) += 15;
 423:main.c        ****                     }
 424:main.c        ****                     if (*p_mutex_function == ZHI_NENG_JING_HUA)
 425:main.c        ****                     {
 426:main.c        ****                         if ((*dingshi) < 150)
 427:main.c        ****                             (*dingshi) += 15;
 428:main.c        ****                     }
 429:main.c        ****                     if (*p_mutex_function == ZHI_NENG_MU_YU_1)
 430:main.c        ****                     {
 431:main.c        ****                         if ((*dingshi) < 120)
 432:main.c        ****                             (*dingshi) += 15;
 433:main.c        ****                     }
 434:main.c        ****                     send_flag = TRUE;
 435:main.c        ****                     break;
ARM GAS  C:\Users\Administrator\AppData\Local\Temp\ccx3kPmM.s 			page 11


 436:main.c        ****                 case KEY_DINGSHI_JIAN: 
 437:main.c        ****                     if (*p_mutex_function == FENG_NUAN)
 438:main.c        ****                     {
 439:main.c        ****                         if ((*dingshi) > 60)
 440:main.c        ****                             (*dingshi) -= 15;
 441:main.c        ****                     }
 442:main.c        ****                     if (*p_mutex_function == XIN_FENG)
 443:main.c        ****                     {
 444:main.c        ****                         if ((*dingshi) > 15)
 445:main.c        ****                             (*dingshi) -= 15;
 446:main.c        ****                     }
 447:main.c        ****                     if (*p_mutex_function == HUAN_QI)
 448:main.c        ****                     {
 449:main.c        ****                         if ((*dingshi) > 30)
 450:main.c        ****                             (*dingshi) -= 15;
 451:main.c        ****                     }
 452:main.c        ****                     if (*p_mutex_function == XIN_FENG_FENG_NUAN)
 453:main.c        ****                     {
 454:main.c        ****                         if ((*dingshi) > 60)
 455:main.c        ****                             (*dingshi) -= 15;
 456:main.c        ****                     }
 457:main.c        ****                     if (*p_mutex_function == ZHI_NENG_JING_HUA)
 458:main.c        ****                     {
 459:main.c        ****                         if ((*dingshi) > 90)
 460:main.c        ****                             (*dingshi) -= 15;
 461:main.c        ****                     }
 462:main.c        ****                     if (*p_mutex_function == ZHI_NENG_MU_YU_1)
 463:main.c        ****                     {
 464:main.c        ****                         if ((*dingshi) > 60)
 465:main.c        ****                             (*dingshi) -= 15;
 466:main.c        ****                     }
 467:main.c        ****                     send_flag = TRUE;
 468:main.c        ****                     break;
 469:main.c        ****                 case KEY_BAI_DONG: 
 470:main.c        ****                     if ((*p_mutex_function != XIN_FENG)
 471:main.c        ****                     &&(*p_mutex_function != FENG_NUAN)
 472:main.c        ****                     &&(*p_mutex_function != XIN_FENG_FENG_NUAN))
 473:main.c        ****                     {break;}
 474:main.c        ****                     if (p_combine_function->baidong)
 475:main.c        ****                         p_combine_function->baidong = 0;
 476:main.c        ****                     else
 477:main.c        ****                         p_combine_function->baidong = 1;
 478:main.c        ****                     send_flag = TRUE;
 479:main.c        ****                     break;
 480:main.c        ****                 case KEY_ZHI_NENG: 
 481:main.c        ****                     if ((*p_mutex_function == DAI_JI) 
 482:main.c        ****                     ||(*p_mutex_function == ZHI_NENG_GAN_ZAO)
 483:main.c        ****                     ||(*p_mutex_function == ZHI_NENG_JING_HUA)
 484:main.c        ****                     ||(*p_mutex_function == ZHI_NENG_MU_YU_1))
 485:main.c        ****                     {
 486:main.c        ****                         switch(zhi_neng_mode)
 487:main.c        ****                         {
 488:main.c        ****                             case GUAN_JI: 
 489:main.c        ****                                 zhi_neng_mode = ZHI_GAN;
 490:main.c        ****                                 *p_mutex_function = ZHI_NENG_GAN_ZAO;
 491:main.c        ****                                 break;
 492:main.c        ****                             case ZHI_GAN: 
ARM GAS  C:\Users\Administrator\AppData\Local\Temp\ccx3kPmM.s 			page 12


 493:main.c        ****                                 zhi_neng_mode = ZHI_JING;
 494:main.c        ****                                 (*wendu) = 0;        //æ¸©åº¦
 495:main.c        ****                                 (*dingshi) = 120;        //æ—¶é—´
 496:main.c        ****                                 *p_mutex_function = ZHI_NENG_JING_HUA;
 497:main.c        ****                                 break;
 498:main.c        ****                             case ZHI_JING:
 499:main.c        ****                                 zhi_neng_mode = ZHI_MU;
 500:main.c        ****                                 (*wendu) = 0;        //æ¸©åº¦
 501:main.c        ****                                 (*dingshi) = 90;        //æ—¶é—´
 502:main.c        ****                                 *p_mutex_function = ZHI_NENG_MU_YU_1;
 503:main.c        ****                                 break;
 504:main.c        ****                             case ZHI_MU: 
 505:main.c        ****                                 zhi_neng_mode = GUAN_JI;
 506:main.c        ****                                 *p_mutex_function = DAI_JI;
 507:main.c        ****                                 break;
 508:main.c        ****                         }
 509:main.c        ****                     }
 510:main.c        ****                     else
 511:main.c        ****                     {
 512:main.c        ****                         *p_mutex_function = DAI_JI;
 513:main.c        ****                         zhi_neng_mode = GUAN_JI;
 514:main.c        ****                     }
 515:main.c        ****                     send_flag = TRUE;
 516:main.c        ****                     break;
 517:main.c        ****                 default : break;
 518:main.c        ****             }
 519:main.c        ****         }
 520:main.c        ****         
 521:main.c        ****         if (key_is_long_pressed(KEY_DIAN_YUAN))
 522:main.c        ****         {
 523:main.c        ****             match_code = TRUE;
 524:main.c        ****             *command_type = MATCH_CODE;
 525:main.c        ****             send_flag = TRUE;
 526:main.c        ****         }
 527:main.c        **** 
 528:main.c        ****         if (key_is_long_pressed(KEY_WENDU_JIA))
 529:main.c        ****         {
 530:main.c        ****             *command_type = CONNECT_NET;
 531:main.c        ****             send_flag = TRUE;
 532:main.c        ****         }
 533:main.c        ****         if (key_is_long_pressed(KEY_WENDU_JIAN))
 534:main.c        ****         {
 535:main.c        ****             *command_type = DISCONNECT_NET;
 536:main.c        ****             send_flag = TRUE;
 537:main.c        ****         }
 538:main.c        ****         
 539:main.c        ****         if (*p_mutex_function == DAI_JI)
 540:main.c        ****         {
 541:main.c        ****             p_combine_function->qiang = 0;
 542:main.c        ****             p_combine_function->ruo = 0;
 543:main.c        ****             p_combine_function->zidong = 0;
 544:main.c        ****             p_combine_function->baidong = 0;
 545:main.c        ****             qiang_ruo_mode = QAING;
 546:main.c        ****         }
 547:main.c        ****     }
 548:main.c        **** }
 549:main.c        **** static void beij_timer(void)
ARM GAS  C:\Users\Administrator\AppData\Local\Temp\ccx3kPmM.s 			page 13


 550:main.c        **** {//100msè°ƒç”¨
 551:main.c        ****     if(timer_10ms>=100){
 552:main.c        ****         timer_10ms=0;
 553:main.c        ****         beij_s++;
 554:main.c        ****         if(beij_s>=60){
 555:main.c        ****             beij_s=0;
 556:main.c        ****             beij_m++;
 557:main.c        ****             
 558:main.c        ****             (*fenzhong) = beij_m;
 559:main.c        ****             make_data(send_show_buffer);
 560:main.c        ****             send_data_by_A7105(16, send_buffer);
 561:main.c        ****             if(beij_m>=60){
 562:main.c        ****                 beij_h++;
 563:main.c        ****                 if(beij_h>=24){
 564:main.c        ****                     beij_h=0;
 565:main.c        ****                     (*xiaoshi) = beij_h;
 566:main.c        ****                     make_data(send_show_buffer);
 567:main.c        ****                     send_data_by_A7105(16, send_buffer);
 568:main.c        ****                 }
 569:main.c        ****             }
 570:main.c        ****         }
 571:main.c        ****     }
 572:main.c        **** }
 573:main.c        **** 
 574:main.c        **** static Bool ID_check_ok(uint8 * id1, uint8 * id2);
 575:main.c        **** 
 576:main.c        **** static void match_code_mode(void)
 577:main.c        **** {
 578:main.c        ****  
 579:main.c        ****  
 580:main.c        ****     switch(match_code_state)
 581:main.c        ****     {
 582:main.c        ****         case WAIT_LONG_PRESS: 
 583:main.c        ****             if (match_code)
 584:main.c        ****             {
 585:main.c        ****                 match_code = FALSE;
 586:main.c        ****                 match_code_state = WAIT_SHORT_PRESS;
 587:main.c        ****                 timing_set_counts(&match_code_wait, 3000);
 588:main.c        ****             }
 589:main.c        ****             break;
 590:main.c        ****         case WAIT_SHORT_PRESS: 
 591:main.c        ****             if (timing_count_end(&match_code_wait))
 592:main.c        ****                 match_code_state = WAIT_SHORT_PRESS;
 593:main.c        ****             match_code_state = WAIT_MESSAGE;
 594:main.c        ****             //if(key_is_short_pressed(KEY_QING_RUO)) {}
 595:main.c        ****             break;
 596:main.c        ****         case WAIT_MESSAGE:
 597:main.c        ****             if (timing_count_end(&match_code_wait))
 598:main.c        ****                 match_code_state = WAIT_SHORT_PRESS;
 599:main.c        ****             if (receive_data_by_A7105(16, receive_buffer))
 600:main.c        ****             {
 601:main.c        ****                 if (ID_check_ok(&receive_buffer[6], src_ID))
 602:main.c        ****                 {
 603:main.c        ****                     dest_ID[0] = receive_buffer[2];
 604:main.c        ****                     dest_ID[1] = receive_buffer[3];
 605:main.c        ****                     dest_ID[2] = receive_buffer[4];
 606:main.c        ****                     dest_ID[3] = receive_buffer[5];
ARM GAS  C:\Users\Administrator\AppData\Local\Temp\ccx3kPmM.s 			page 14


 607:main.c        ****                 }
 608:main.c        ****                 match_code_state = WAIT_SHORT_PRESS;
 609:main.c        ****             }
 610:main.c        ****             break;
 611:main.c        ****     }
 612:main.c        **** }
 613:main.c        **** 
 614:main.c        **** static Bool ID_check_ok(uint8 * id1, uint8 * id2)
 615:main.c        **** {
 132              		.loc 1 615 0
 133              		.cfi_startproc
 134              	.LVL14:
 135 0000 10B5     		push	{r4, lr}
 136              		.cfi_def_cfa_offset 8
 137              		.cfi_offset 4, -8
 138              		.cfi_offset 14, -4
 139              	.LVL15:
 616:main.c        ****     uint8 i;
 617:main.c        ****     
 618:main.c        ****     for (i = 0; i < 4; i++)
 140              		.loc 1 618 0
 141 0002 0023     		mov	r3, #0
 142 0004 05E0     		b	.L9
 143              	.LVL16:
 144              	.L11:
 619:main.c        ****     {
 620:main.c        ****         if (id1[i] != id2[i])
 145              		.loc 1 620 0
 146 0006 C45C     		ldrb	r4, [r0, r3]
 147 0008 CA5C     		ldrb	r2, [r1, r3]
 148 000a 9442     		cmp	r4, r2
 149 000c 05D1     		bne	.L12
 618:main.c        ****     {
 150              		.loc 1 618 0 discriminator 2
 151 000e 0133     		add	r3, r3, #1
 152              	.LVL17:
 153 0010 DBB2     		uxtb	r3, r3
 154              	.LVL18:
 155              	.L9:
 618:main.c        ****     {
 156              		.loc 1 618 0 is_stmt 0 discriminator 1
 157 0012 032B     		cmp	r3, #3
 158 0014 F7D9     		bls	.L11
 621:main.c        ****             return FALSE;
 622:main.c        ****     }
 623:main.c        ****     return TRUE;
 159              		.loc 1 623 0 is_stmt 1
 160 0016 0120     		mov	r0, #1
 161              	.LVL19:
 162 0018 00E0     		b	.L10
 163              	.LVL20:
 164              	.L12:
 621:main.c        ****             return FALSE;
 165              		.loc 1 621 0
 166 001a 0020     		mov	r0, #0
 167              	.LVL21:
 168              	.L10:
ARM GAS  C:\Users\Administrator\AppData\Local\Temp\ccx3kPmM.s 			page 15


 624:main.c        **** }
 169              		.loc 1 624 0
 170              		@ sp needed
 171 001c 10BD     		pop	{r4, pc}
 172              		.cfi_endproc
 173              	.LFE42:
 174              		.size	ID_check_ok, .-ID_check_ok
 175 001e C046     		.section	.text.beij_timer,"ax",%progbits
 176              		.align	2
 177              		.code	16
 178              		.thumb_func
 179              		.type	beij_timer, %function
 180              	beij_timer:
 181              	.LFB40:
 550:main.c        ****     if(timer_10ms>=100){
 182              		.loc 1 550 0
 183              		.cfi_startproc
 184 0000 10B5     		push	{r4, lr}
 185              		.cfi_def_cfa_offset 8
 186              		.cfi_offset 4, -8
 187              		.cfi_offset 14, -4
 551:main.c        ****         timer_10ms=0;
 188              		.loc 1 551 0
 189 0002 1B4B     		ldr	r3, .L15
 190 0004 1B7F     		ldrb	r3, [r3, #28]
 191 0006 632B     		cmp	r3, #99
 192 0008 31D9     		bls	.L13
 552:main.c        ****         beij_s++;
 193              		.loc 1 552 0
 194 000a 194A     		ldr	r2, .L15
 195 000c 0023     		mov	r3, #0
 196 000e 1377     		strb	r3, [r2, #28]
 553:main.c        ****         if(beij_s>=60){
 197              		.loc 1 553 0
 198 0010 537F     		ldrb	r3, [r2, #29]
 199 0012 0133     		add	r3, r3, #1
 200 0014 DBB2     		uxtb	r3, r3
 201 0016 5377     		strb	r3, [r2, #29]
 554:main.c        ****             beij_s=0;
 202              		.loc 1 554 0
 203 0018 3B2B     		cmp	r3, #59
 204 001a 28D9     		bls	.L13
 555:main.c        ****             beij_m++;
 205              		.loc 1 555 0
 206 001c 141C     		mov	r4, r2
 207 001e 0023     		mov	r3, #0
 208 0020 5377     		strb	r3, [r2, #29]
 556:main.c        ****             
 209              		.loc 1 556 0
 210 0022 937F     		ldrb	r3, [r2, #30]
 211 0024 0133     		add	r3, r3, #1
 212 0026 DBB2     		uxtb	r3, r3
 213 0028 9377     		strb	r3, [r2, #30]
 558:main.c        ****             make_data(send_show_buffer);
 214              		.loc 1 558 0
 215 002a 124A     		ldr	r2, .L15+4
 216 002c 5268     		ldr	r2, [r2, #4]
ARM GAS  C:\Users\Administrator\AppData\Local\Temp\ccx3kPmM.s 			page 16


 217 002e 1370     		strb	r3, [r2]
 559:main.c        ****             send_data_by_A7105(16, send_buffer);
 218              		.loc 1 559 0
 219 0030 201C     		mov	r0, r4
 220 0032 2030     		add	r0, r0, #32
 221 0034 FFF7FEFF 		bl	make_data
 222              	.LVL22:
 560:main.c        ****             if(beij_m>=60){
 223              		.loc 1 560 0
 224 0038 1020     		mov	r0, #16
 225 003a 211C     		mov	r1, r4
 226 003c FFF7FEFF 		bl	send_data_by_A7105
 227              	.LVL23:
 561:main.c        ****                 beij_h++;
 228              		.loc 1 561 0
 229 0040 A37F     		ldrb	r3, [r4, #30]
 230 0042 3B2B     		cmp	r3, #59
 231 0044 13D9     		bls	.L13
 562:main.c        ****                 if(beij_h>=24){
 232              		.loc 1 562 0
 233 0046 0B4A     		ldr	r2, .L15+4
 234 0048 137A     		ldrb	r3, [r2, #8]
 235 004a 0133     		add	r3, r3, #1
 236 004c DBB2     		uxtb	r3, r3
 237 004e 1372     		strb	r3, [r2, #8]
 563:main.c        ****                     beij_h=0;
 238              		.loc 1 563 0
 239 0050 172B     		cmp	r3, #23
 240 0052 0CD9     		bls	.L13
 564:main.c        ****                     (*xiaoshi) = beij_h;
 241              		.loc 1 564 0
 242 0054 0023     		mov	r3, #0
 243 0056 1372     		strb	r3, [r2, #8]
 565:main.c        ****                     make_data(send_show_buffer);
 244              		.loc 1 565 0
 245 0058 D268     		ldr	r2, [r2, #12]
 246 005a 1370     		strb	r3, [r2]
 566:main.c        ****                     send_data_by_A7105(16, send_buffer);
 247              		.loc 1 566 0
 248 005c 044C     		ldr	r4, .L15
 249 005e 201C     		mov	r0, r4
 250 0060 2030     		add	r0, r0, #32
 251 0062 FFF7FEFF 		bl	make_data
 252              	.LVL24:
 567:main.c        ****                 }
 253              		.loc 1 567 0
 254 0066 1020     		mov	r0, #16
 255 0068 211C     		mov	r1, r4
 256 006a FFF7FEFF 		bl	send_data_by_A7105
 257              	.LVL25:
 258              	.L13:
 572:main.c        **** 
 259              		.loc 1 572 0
 260              		@ sp needed
 261 006e 10BD     		pop	{r4, pc}
 262              	.L16:
 263              		.align	2
ARM GAS  C:\Users\Administrator\AppData\Local\Temp\ccx3kPmM.s 			page 17


 264              	.L15:
 265 0070 00000000 		.word	.LANCHOR0
 266 0074 00000000 		.word	.LANCHOR1
 267              		.cfi_endproc
 268              	.LFE40:
 269              		.size	beij_timer, .-beij_timer
 270              		.section	.text.key_deal,"ax",%progbits
 271              		.align	2
 272              		.code	16
 273              		.thumb_func
 274              		.type	key_deal, %function
 275              	key_deal:
 276              	.LFB39:
 264:main.c        ****     Key_index i;
 277              		.loc 1 264 0
 278              		.cfi_startproc
 279 0000 10B5     		push	{r4, lr}
 280              		.cfi_def_cfa_offset 8
 281              		.cfi_offset 4, -8
 282              		.cfi_offset 14, -4
 283              	.LVL26:
 266:main.c        ****     {
 284              		.loc 1 266 0
 285 0002 0024     		mov	r4, #0
 286 0004 90E2     		b	.L18
 287              	.LVL27:
 288              	.L78:
 268:main.c        ****         {
 289              		.loc 1 268 0
 290 0006 201C     		mov	r0, r4
 291 0008 FFF7FEFF 		bl	key_is_short_pressed
 292              	.LVL28:
 293 000c 0028     		cmp	r0, #0
 294 000e 00D1     		bne	.LCB252
 295 0010 41E2     		b	.L19	@long jump
 296              	.LCB252:
 281:main.c        ****             switch(i)
 297              		.loc 1 281 0
 298 0012 C44B     		ldr	r3, .L79
 299 0014 1B69     		ldr	r3, [r3, #16]
 300 0016 0122     		mov	r2, #1
 301 0018 1A70     		strb	r2, [r3]
 282:main.c        ****             {
 302              		.loc 1 282 0
 303 001a 0B2C     		cmp	r4, #11
 304 001c 00D9     		bls	.LCB258
 305 001e 3AE2     		b	.L19	@long jump
 306              	.LCB258:
 307 0020 A300     		lsl	r3, r4, #2
 308 0022 C14A     		ldr	r2, .L79+4
 309 0024 D358     		ldr	r3, [r2, r3]
 310 0026 9F46     		mov	pc, r3
 311              		.section	.rodata
 312              		.align	2
 313              	.L21:
 314 0000 28000000 		.word	.L20
 315 0004 44000000 		.word	.L22
ARM GAS  C:\Users\Administrator\AppData\Local\Temp\ccx3kPmM.s 			page 18


 316 0008 90000000 		.word	.L23
 317 000c CA000000 		.word	.L24
 318 0010 04010000 		.word	.L25
 319 0014 50010000 		.word	.L26
 320 0018 E6010000 		.word	.L27
 321 001c 3C020000 		.word	.L28
 322 0020 88020000 		.word	.L29
 323 0024 30030000 		.word	.L30
 324 0028 CA030000 		.word	.L31
 325 002c 00040000 		.word	.L32
 326              		.section	.text.key_deal
 327              	.L20:
 285:main.c        ****                         *p_mutex_function = DAI_JI;
 328              		.loc 1 285 0
 329 0028 BE4B     		ldr	r3, .L79
 330 002a 5B69     		ldr	r3, [r3, #20]
 331 002c 1A78     		ldrb	r2, [r3]
 332 002e 002A     		cmp	r2, #0
 333 0030 01D1     		bne	.L33
 286:main.c        ****                     else
 334              		.loc 1 286 0
 335 0032 1A70     		strb	r2, [r3]
 336 0034 01E0     		b	.L34
 337              	.L33:
 288:main.c        **** 
 338              		.loc 1 288 0
 339 0036 0022     		mov	r2, #0
 340 0038 1A70     		strb	r2, [r3]
 341              	.L34:
 290:main.c        ****                     break;
 342              		.loc 1 290 0
 343 003a 0121     		mov	r1, #1
 344 003c 3023     		mov	r3, #48
 345 003e BB4A     		ldr	r2, .L79+8
 346 0040 D154     		strb	r1, [r2, r3]
 291:main.c        ****                 case KEY_FENG_NUAN: 
 347              		.loc 1 291 0
 348 0042 28E2     		b	.L19
 349              	.L22:
 293:main.c        ****                         *p_mutex_function = DAI_JI;
 350              		.loc 1 293 0
 351 0044 B74B     		ldr	r3, .L79
 352 0046 5B69     		ldr	r3, [r3, #20]
 353 0048 1A78     		ldrb	r2, [r3]
 354 004a 042A     		cmp	r2, #4
 355 004c 02D1     		bne	.L35
 294:main.c        ****                     else
 356              		.loc 1 294 0
 357 004e 0022     		mov	r2, #0
 358 0050 1A70     		strb	r2, [r3]
 359 0052 11E0     		b	.L36
 360              	.L35:
 297:main.c        ****                         p_combine_function->ruo = 0;
 361              		.loc 1 297 0
 362 0054 0422     		mov	r2, #4
 363 0056 1A70     		strb	r2, [r3]
 298:main.c        ****                         p_combine_function->zidong = 0;
ARM GAS  C:\Users\Administrator\AppData\Local\Temp\ccx3kPmM.s 			page 19


 364              		.loc 1 298 0
 365 0058 B24B     		ldr	r3, .L79
 366 005a 9969     		ldr	r1, [r3, #24]
 367 005c 0A78     		ldrb	r2, [r1]
 368 005e 0820     		mov	r0, #8
 369 0060 8243     		bic	r2, r0
 370 0062 0A70     		strb	r2, [r1]
 299:main.c        ****                         p_combine_function->qiang = 1;
 371              		.loc 1 299 0
 372 0064 9969     		ldr	r1, [r3, #24]
 373 0066 0A78     		ldrb	r2, [r1]
 374 0068 0830     		add	r0, r0, #8
 375 006a 8243     		bic	r2, r0
 376 006c 0A70     		strb	r2, [r1]
 300:main.c        ****                     }
 377              		.loc 1 300 0
 378 006e 9A69     		ldr	r2, [r3, #24]
 379 0070 1178     		ldrb	r1, [r2]
 380 0072 0423     		mov	r3, #4
 381 0074 0B43     		orr	r3, r1
 382 0076 1370     		strb	r3, [r2]
 383              	.L36:
 303:main.c        ****                     (*dingshi) = 90;        //æ—¶é—´
 384              		.loc 1 303 0
 385 0078 AA4B     		ldr	r3, .L79
 386 007a 2322     		mov	r2, #35
 387 007c D969     		ldr	r1, [r3, #28]
 388 007e 0A70     		strb	r2, [r1]
 304:main.c        ****                     send_flag = TRUE;
 389              		.loc 1 304 0
 390 0080 1B6A     		ldr	r3, [r3, #32]
 391 0082 3732     		add	r2, r2, #55
 392 0084 1A70     		strb	r2, [r3]
 305:main.c        ****                     break;
 393              		.loc 1 305 0
 394 0086 0121     		mov	r1, #1
 395 0088 3023     		mov	r3, #48
 396 008a A84A     		ldr	r2, .L79+8
 397 008c D154     		strb	r1, [r2, r3]
 306:main.c        ****                 case KEY_WENDU_JIA: 
 398              		.loc 1 306 0
 399 008e 02E2     		b	.L19
 400              	.L23:
 308:main.c        ****                     {
 401              		.loc 1 308 0
 402 0090 A44B     		ldr	r3, .L79
 403 0092 5B69     		ldr	r3, [r3, #20]
 404 0094 1B78     		ldrb	r3, [r3]
 405 0096 042B     		cmp	r3, #4
 406 0098 06D1     		bne	.L37
 310:main.c        ****                             (*wendu)++;
 407              		.loc 1 310 0
 408 009a A24B     		ldr	r3, .L79
 409 009c DA69     		ldr	r2, [r3, #28]
 410 009e 1378     		ldrb	r3, [r2]
 411 00a0 272B     		cmp	r3, #39
 412 00a2 01D8     		bhi	.L37
ARM GAS  C:\Users\Administrator\AppData\Local\Temp\ccx3kPmM.s 			page 20


 311:main.c        ****                     }
 413              		.loc 1 311 0
 414 00a4 0133     		add	r3, r3, #1
 415 00a6 1370     		strb	r3, [r2]
 416              	.L37:
 313:main.c        ****                     {
 417              		.loc 1 313 0
 418 00a8 9E4B     		ldr	r3, .L79
 419 00aa 5B69     		ldr	r3, [r3, #20]
 420 00ac 1B78     		ldrb	r3, [r3]
 421 00ae 0B2B     		cmp	r3, #11
 422 00b0 06D1     		bne	.L38
 315:main.c        ****                             (*wendu)++;
 423              		.loc 1 315 0
 424 00b2 9C4B     		ldr	r3, .L79
 425 00b4 DA69     		ldr	r2, [r3, #28]
 426 00b6 1378     		ldrb	r3, [r2]
 427 00b8 272B     		cmp	r3, #39
 428 00ba 01D8     		bhi	.L38
 316:main.c        ****                     }
 429              		.loc 1 316 0
 430 00bc 0133     		add	r3, r3, #1
 431 00be 1370     		strb	r3, [r2]
 432              	.L38:
 318:main.c        ****                     break;
 433              		.loc 1 318 0
 434 00c0 0121     		mov	r1, #1
 435 00c2 3023     		mov	r3, #48
 436 00c4 994A     		ldr	r2, .L79+8
 437 00c6 D154     		strb	r1, [r2, r3]
 319:main.c        ****                 case KEY_WENDU_JIAN: 
 438              		.loc 1 319 0
 439 00c8 E5E1     		b	.L19
 440              	.L24:
 321:main.c        ****                     {
 441              		.loc 1 321 0
 442 00ca 964B     		ldr	r3, .L79
 443 00cc 5B69     		ldr	r3, [r3, #20]
 444 00ce 1B78     		ldrb	r3, [r3]
 445 00d0 042B     		cmp	r3, #4
 446 00d2 06D1     		bne	.L39
 323:main.c        ****                             (*wendu)--;
 447              		.loc 1 323 0
 448 00d4 934B     		ldr	r3, .L79
 449 00d6 DA69     		ldr	r2, [r3, #28]
 450 00d8 1378     		ldrb	r3, [r2]
 451 00da 1E2B     		cmp	r3, #30
 452 00dc 01D9     		bls	.L39
 324:main.c        ****                     }
 453              		.loc 1 324 0
 454 00de 013B     		sub	r3, r3, #1
 455 00e0 1370     		strb	r3, [r2]
 456              	.L39:
 326:main.c        ****                     {
 457              		.loc 1 326 0
 458 00e2 904B     		ldr	r3, .L79
 459 00e4 5B69     		ldr	r3, [r3, #20]
ARM GAS  C:\Users\Administrator\AppData\Local\Temp\ccx3kPmM.s 			page 21


 460 00e6 1B78     		ldrb	r3, [r3]
 461 00e8 0B2B     		cmp	r3, #11
 462 00ea 06D1     		bne	.L40
 328:main.c        ****                             (*wendu)--;
 463              		.loc 1 328 0
 464 00ec 8D4B     		ldr	r3, .L79
 465 00ee DA69     		ldr	r2, [r3, #28]
 466 00f0 1378     		ldrb	r3, [r2]
 467 00f2 1E2B     		cmp	r3, #30
 468 00f4 01D9     		bls	.L40
 329:main.c        ****                     }
 469              		.loc 1 329 0
 470 00f6 013B     		sub	r3, r3, #1
 471 00f8 1370     		strb	r3, [r2]
 472              	.L40:
 331:main.c        ****                     break;
 473              		.loc 1 331 0
 474 00fa 0121     		mov	r1, #1
 475 00fc 3023     		mov	r3, #48
 476 00fe 8B4A     		ldr	r2, .L79+8
 477 0100 D154     		strb	r1, [r2, r3]
 332:main.c        ****                 case KEY_XIN_FENG: 
 478              		.loc 1 332 0
 479 0102 C8E1     		b	.L19
 480              	.L25:
 334:main.c        ****                         *p_mutex_function = DAI_JI;
 481              		.loc 1 334 0
 482 0104 874B     		ldr	r3, .L79
 483 0106 5B69     		ldr	r3, [r3, #20]
 484 0108 1A78     		ldrb	r2, [r3]
 485 010a 032A     		cmp	r2, #3
 486 010c 02D1     		bne	.L41
 335:main.c        ****                     else
 487              		.loc 1 335 0
 488 010e 0022     		mov	r2, #0
 489 0110 1A70     		strb	r2, [r3]
 490 0112 11E0     		b	.L42
 491              	.L41:
 338:main.c        ****                         p_combine_function->qiang = 1;
 492              		.loc 1 338 0
 493 0114 0322     		mov	r2, #3
 494 0116 1A70     		strb	r2, [r3]
 339:main.c        ****                         p_combine_function->ruo = 0;
 495              		.loc 1 339 0
 496 0118 824B     		ldr	r3, .L79
 497 011a 9969     		ldr	r1, [r3, #24]
 498 011c 0878     		ldrb	r0, [r1]
 499 011e 0422     		mov	r2, #4
 500 0120 0243     		orr	r2, r0
 501 0122 0A70     		strb	r2, [r1]
 340:main.c        ****                         p_combine_function->zidong = 0;
 502              		.loc 1 340 0
 503 0124 9969     		ldr	r1, [r3, #24]
 504 0126 0A78     		ldrb	r2, [r1]
 505 0128 0820     		mov	r0, #8
 506 012a 8243     		bic	r2, r0
 507 012c 0A70     		strb	r2, [r1]
ARM GAS  C:\Users\Administrator\AppData\Local\Temp\ccx3kPmM.s 			page 22


 341:main.c        ****                     }
 508              		.loc 1 341 0
 509 012e 9A69     		ldr	r2, [r3, #24]
 510 0130 1378     		ldrb	r3, [r2]
 511 0132 1021     		mov	r1, #16
 512 0134 8B43     		bic	r3, r1
 513 0136 1370     		strb	r3, [r2]
 514              	.L42:
 343:main.c        ****                     (*dingshi) = 30;        //æ—¶é—´
 515              		.loc 1 343 0
 516 0138 7A4B     		ldr	r3, .L79
 517 013a 0022     		mov	r2, #0
 518 013c D969     		ldr	r1, [r3, #28]
 519 013e 0A70     		strb	r2, [r1]
 344:main.c        ****                     send_flag = TRUE;
 520              		.loc 1 344 0
 521 0140 1B6A     		ldr	r3, [r3, #32]
 522 0142 1E32     		add	r2, r2, #30
 523 0144 1A70     		strb	r2, [r3]
 345:main.c        ****                     break;
 524              		.loc 1 345 0
 525 0146 0121     		mov	r1, #1
 526 0148 3023     		mov	r3, #48
 527 014a 784A     		ldr	r2, .L79+8
 528 014c D154     		strb	r1, [r2, r3]
 346:main.c        ****                 case KEY_QING_RUO:
 529              		.loc 1 346 0
 530 014e A2E1     		b	.L19
 531              	.L26:
 348:main.c        ****                     &&(*p_mutex_function != XIN_FENG)
 532              		.loc 1 348 0
 533 0150 744B     		ldr	r3, .L79
 534 0152 5B69     		ldr	r3, [r3, #20]
 535 0154 1B78     		ldrb	r3, [r3]
 536 0156 012B     		cmp	r3, #1
 537 0158 06D0     		beq	.L43
 349:main.c        ****                     &&(*p_mutex_function != FENG_NUAN)
 538              		.loc 1 349 0
 539 015a 032B     		cmp	r3, #3
 540 015c 04D0     		beq	.L43
 350:main.c        ****                     &&(*p_mutex_function != XIN_FENG_FENG_NUAN))
 541              		.loc 1 350 0
 542 015e 042B     		cmp	r3, #4
 543 0160 02D0     		beq	.L43
 351:main.c        ****                     {break;}
 544              		.loc 1 351 0
 545 0162 0B2B     		cmp	r3, #11
 546 0164 00D0     		beq	.LCB468
 547 0166 96E1     		b	.L19	@long jump
 548              	.LCB468:
 549              	.L43:
 354:main.c        ****                     p_combine_function->ruo = 0;
 550              		.loc 1 354 0
 551 0168 6E4B     		ldr	r3, .L79
 552 016a 9969     		ldr	r1, [r3, #24]
 553 016c 0A78     		ldrb	r2, [r1]
 554 016e 0420     		mov	r0, #4
ARM GAS  C:\Users\Administrator\AppData\Local\Temp\ccx3kPmM.s 			page 23


 555 0170 8243     		bic	r2, r0
 556 0172 0A70     		strb	r2, [r1]
 355:main.c        ****                     p_combine_function->zidong = 0;
 557              		.loc 1 355 0
 558 0174 9969     		ldr	r1, [r3, #24]
 559 0176 0A78     		ldrb	r2, [r1]
 560 0178 0430     		add	r0, r0, #4
 561 017a 8243     		bic	r2, r0
 562 017c 0A70     		strb	r2, [r1]
 356:main.c        ****                     switch(qiang_ruo_mode)
 563              		.loc 1 356 0
 564 017e 9A69     		ldr	r2, [r3, #24]
 565 0180 1378     		ldrb	r3, [r2]
 566 0182 1021     		mov	r1, #16
 567 0184 8B43     		bic	r3, r1
 568 0186 1370     		strb	r3, [r2]
 357:main.c        ****                     {
 569              		.loc 1 357 0
 570 0188 3123     		mov	r3, #49
 571 018a 684A     		ldr	r2, .L79+8
 572 018c D35C     		ldrb	r3, [r2, r3]
 573 018e 012B     		cmp	r3, #1
 574 0190 0FD0     		beq	.L45
 575 0192 002B     		cmp	r3, #0
 576 0194 02D0     		beq	.L46
 577 0196 022B     		cmp	r3, #2
 578 0198 16D0     		beq	.L47
 579 019a 1FE0     		b	.L44
 580              	.L46:
 360:main.c        ****                             p_combine_function->ruo = 1;
 581              		.loc 1 360 0
 582 019c 0121     		mov	r1, #1
 583 019e 3123     		mov	r3, #49
 584 01a0 624A     		ldr	r2, .L79+8
 585 01a2 D154     		strb	r1, [r2, r3]
 361:main.c        ****                             break;
 586              		.loc 1 361 0
 587 01a4 5F4B     		ldr	r3, .L79
 588 01a6 9A69     		ldr	r2, [r3, #24]
 589 01a8 1178     		ldrb	r1, [r2]
 590 01aa 0823     		mov	r3, #8
 591 01ac 0B43     		orr	r3, r1
 592 01ae 1370     		strb	r3, [r2]
 362:main.c        ****                         case RUO:
 593              		.loc 1 362 0
 594 01b0 14E0     		b	.L44
 595              	.L45:
 364:main.c        ****                             p_combine_function->zidong = 1;
 596              		.loc 1 364 0
 597 01b2 0221     		mov	r1, #2
 598 01b4 3123     		mov	r3, #49
 599 01b6 5D4A     		ldr	r2, .L79+8
 600 01b8 D154     		strb	r1, [r2, r3]
 365:main.c        ****                             break;
 601              		.loc 1 365 0
 602 01ba 5A4B     		ldr	r3, .L79
 603 01bc 9A69     		ldr	r2, [r3, #24]
ARM GAS  C:\Users\Administrator\AppData\Local\Temp\ccx3kPmM.s 			page 24


 604 01be 1178     		ldrb	r1, [r2]
 605 01c0 1023     		mov	r3, #16
 606 01c2 0B43     		orr	r3, r1
 607 01c4 1370     		strb	r3, [r2]
 366:main.c        ****                         case ZI_DONG: 
 608              		.loc 1 366 0
 609 01c6 09E0     		b	.L44
 610              	.L47:
 368:main.c        ****                             qiang_ruo_mode = QAING;
 611              		.loc 1 368 0
 612 01c8 564B     		ldr	r3, .L79
 613 01ca 9A69     		ldr	r2, [r3, #24]
 614 01cc 1178     		ldrb	r1, [r2]
 615 01ce 0423     		mov	r3, #4
 616 01d0 0B43     		orr	r3, r1
 617 01d2 1370     		strb	r3, [r2]
 369:main.c        ****                             break;
 618              		.loc 1 369 0
 619 01d4 0021     		mov	r1, #0
 620 01d6 3123     		mov	r3, #49
 621 01d8 544A     		ldr	r2, .L79+8
 622 01da D154     		strb	r1, [r2, r3]
 623              	.L44:
 372:main.c        ****                     break;
 624              		.loc 1 372 0
 625 01dc 0121     		mov	r1, #1
 626 01de 3023     		mov	r3, #48
 627 01e0 524A     		ldr	r2, .L79+8
 628 01e2 D154     		strb	r1, [r2, r3]
 373:main.c        ****                 case KEY_HUAN_QI: 
 629              		.loc 1 373 0
 630 01e4 57E1     		b	.L19
 631              	.L27:
 375:main.c        ****                         *p_mutex_function = DAI_JI;
 632              		.loc 1 375 0
 633 01e6 4F4B     		ldr	r3, .L79
 634 01e8 5B69     		ldr	r3, [r3, #20]
 635 01ea 1A78     		ldrb	r2, [r3]
 636 01ec 012A     		cmp	r2, #1
 637 01ee 02D1     		bne	.L48
 376:main.c        ****                     else
 638              		.loc 1 376 0
 639 01f0 0022     		mov	r2, #0
 640 01f2 1A70     		strb	r2, [r3]
 641 01f4 11E0     		b	.L49
 642              	.L48:
 379:main.c        ****                         p_combine_function->qiang = 1;
 643              		.loc 1 379 0
 644 01f6 0122     		mov	r2, #1
 645 01f8 1A70     		strb	r2, [r3]
 380:main.c        ****                         p_combine_function->ruo = 0;
 646              		.loc 1 380 0
 647 01fa 4A4B     		ldr	r3, .L79
 648 01fc 9969     		ldr	r1, [r3, #24]
 649 01fe 0878     		ldrb	r0, [r1]
 650 0200 0422     		mov	r2, #4
 651 0202 0243     		orr	r2, r0
ARM GAS  C:\Users\Administrator\AppData\Local\Temp\ccx3kPmM.s 			page 25


 652 0204 0A70     		strb	r2, [r1]
 381:main.c        ****                         p_combine_function->zidong = 0;
 653              		.loc 1 381 0
 654 0206 9969     		ldr	r1, [r3, #24]
 655 0208 0A78     		ldrb	r2, [r1]
 656 020a 0820     		mov	r0, #8
 657 020c 8243     		bic	r2, r0
 658 020e 0A70     		strb	r2, [r1]
 382:main.c        ****                     }
 659              		.loc 1 382 0
 660 0210 9A69     		ldr	r2, [r3, #24]
 661 0212 1378     		ldrb	r3, [r2]
 662 0214 1021     		mov	r1, #16
 663 0216 8B43     		bic	r3, r1
 664 0218 1370     		strb	r3, [r2]
 665              	.L49:
 384:main.c        ****                     (*wendu) = 0;        //æ¸©åº¦
 666              		.loc 1 384 0
 667 021a 424B     		ldr	r3, .L79
 668 021c 9969     		ldr	r1, [r3, #24]
 669 021e 0A78     		ldrb	r2, [r1]
 670 0220 0220     		mov	r0, #2
 671 0222 8243     		bic	r2, r0
 672 0224 0A70     		strb	r2, [r1]
 385:main.c        ****                     (*dingshi) = 30;        //æ—¶é—´
 673              		.loc 1 385 0
 674 0226 0022     		mov	r2, #0
 675 0228 D969     		ldr	r1, [r3, #28]
 676 022a 0A70     		strb	r2, [r1]
 386:main.c        ****                     send_flag = TRUE;
 677              		.loc 1 386 0
 678 022c 1B6A     		ldr	r3, [r3, #32]
 679 022e 1E32     		add	r2, r2, #30
 680 0230 1A70     		strb	r2, [r3]
 387:main.c        ****                     break;
 681              		.loc 1 387 0
 682 0232 0121     		mov	r1, #1
 683 0234 3023     		mov	r3, #48
 684 0236 3D4A     		ldr	r2, .L79+8
 685 0238 D154     		strb	r1, [r2, r3]
 388:main.c        ****                 case KEY_XIN_FENG_QU_NUAN: 
 686              		.loc 1 388 0
 687 023a 2CE1     		b	.L19
 688              	.L28:
 390:main.c        ****                         *p_mutex_function = DAI_JI;
 689              		.loc 1 390 0
 690 023c 394B     		ldr	r3, .L79
 691 023e 5B69     		ldr	r3, [r3, #20]
 692 0240 1A78     		ldrb	r2, [r3]
 693 0242 0B2A     		cmp	r2, #11
 694 0244 02D1     		bne	.L50
 391:main.c        ****                     else
 695              		.loc 1 391 0
 696 0246 0022     		mov	r2, #0
 697 0248 1A70     		strb	r2, [r3]
 698 024a 11E0     		b	.L51
 699              	.L50:
ARM GAS  C:\Users\Administrator\AppData\Local\Temp\ccx3kPmM.s 			page 26


 394:main.c        ****                         p_combine_function->qiang = 1;
 700              		.loc 1 394 0
 701 024c 0B22     		mov	r2, #11
 702 024e 1A70     		strb	r2, [r3]
 395:main.c        ****                         p_combine_function->ruo = 0;
 703              		.loc 1 395 0
 704 0250 344B     		ldr	r3, .L79
 705 0252 9969     		ldr	r1, [r3, #24]
 706 0254 0878     		ldrb	r0, [r1]
 707 0256 0422     		mov	r2, #4
 708 0258 0243     		orr	r2, r0
 709 025a 0A70     		strb	r2, [r1]
 396:main.c        ****                         p_combine_function->zidong = 0;
 710              		.loc 1 396 0
 711 025c 9969     		ldr	r1, [r3, #24]
 712 025e 0A78     		ldrb	r2, [r1]
 713 0260 0820     		mov	r0, #8
 714 0262 8243     		bic	r2, r0
 715 0264 0A70     		strb	r2, [r1]
 397:main.c        ****                     }
 716              		.loc 1 397 0
 717 0266 9A69     		ldr	r2, [r3, #24]
 718 0268 1378     		ldrb	r3, [r2]
 719 026a 1021     		mov	r1, #16
 720 026c 8B43     		bic	r3, r1
 721 026e 1370     		strb	r3, [r2]
 722              	.L51:
 399:main.c        ****                     (*dingshi) = 90;        //æ—¶é—´
 723              		.loc 1 399 0
 724 0270 2C4B     		ldr	r3, .L79
 725 0272 2322     		mov	r2, #35
 726 0274 D969     		ldr	r1, [r3, #28]
 727 0276 0A70     		strb	r2, [r1]
 400:main.c        ****                     send_flag = TRUE;
 728              		.loc 1 400 0
 729 0278 1B6A     		ldr	r3, [r3, #32]
 730 027a 3732     		add	r2, r2, #55
 731 027c 1A70     		strb	r2, [r3]
 401:main.c        ****                     break;
 732              		.loc 1 401 0
 733 027e 0121     		mov	r1, #1
 734 0280 3023     		mov	r3, #48
 735 0282 2A4A     		ldr	r2, .L79+8
 736 0284 D154     		strb	r1, [r2, r3]
 402:main.c        ****                 case KEY_DINGSHI_JIA: 
 737              		.loc 1 402 0
 738 0286 06E1     		b	.L19
 739              	.L29:
 404:main.c        ****                     {
 740              		.loc 1 404 0
 741 0288 264B     		ldr	r3, .L79
 742 028a 5B69     		ldr	r3, [r3, #20]
 743 028c 1B78     		ldrb	r3, [r3]
 744 028e 042B     		cmp	r3, #4
 745 0290 06D1     		bne	.L52
 406:main.c        ****                             (*dingshi) += 15;
 746              		.loc 1 406 0
ARM GAS  C:\Users\Administrator\AppData\Local\Temp\ccx3kPmM.s 			page 27


 747 0292 244B     		ldr	r3, .L79
 748 0294 1A6A     		ldr	r2, [r3, #32]
 749 0296 1378     		ldrb	r3, [r2]
 750 0298 772B     		cmp	r3, #119
 751 029a 01D8     		bhi	.L52
 407:main.c        ****                     }
 752              		.loc 1 407 0
 753 029c 0F33     		add	r3, r3, #15
 754 029e 1370     		strb	r3, [r2]
 755              	.L52:
 409:main.c        ****                     {
 756              		.loc 1 409 0
 757 02a0 204B     		ldr	r3, .L79
 758 02a2 5B69     		ldr	r3, [r3, #20]
 759 02a4 1B78     		ldrb	r3, [r3]
 760 02a6 032B     		cmp	r3, #3
 761 02a8 06D1     		bne	.L53
 411:main.c        ****                             (*dingshi) += 15;
 762              		.loc 1 411 0
 763 02aa 1E4B     		ldr	r3, .L79
 764 02ac 1A6A     		ldr	r2, [r3, #32]
 765 02ae 1378     		ldrb	r3, [r2]
 766 02b0 3B2B     		cmp	r3, #59
 767 02b2 01D8     		bhi	.L53
 412:main.c        ****                     }
 768              		.loc 1 412 0
 769 02b4 0F33     		add	r3, r3, #15
 770 02b6 1370     		strb	r3, [r2]
 771              	.L53:
 414:main.c        ****                     {
 772              		.loc 1 414 0
 773 02b8 1A4B     		ldr	r3, .L79
 774 02ba 5B69     		ldr	r3, [r3, #20]
 775 02bc 1B78     		ldrb	r3, [r3]
 776 02be 012B     		cmp	r3, #1
 777 02c0 06D1     		bne	.L54
 416:main.c        ****                             (*dingshi) += 15;
 778              		.loc 1 416 0
 779 02c2 184B     		ldr	r3, .L79
 780 02c4 1A6A     		ldr	r2, [r3, #32]
 781 02c6 1378     		ldrb	r3, [r2]
 782 02c8 3B2B     		cmp	r3, #59
 783 02ca 01D8     		bhi	.L54
 417:main.c        ****                     }
 784              		.loc 1 417 0
 785 02cc 0F33     		add	r3, r3, #15
 786 02ce 1370     		strb	r3, [r2]
 787              	.L54:
 419:main.c        ****                     {
 788              		.loc 1 419 0
 789 02d0 144B     		ldr	r3, .L79
 790 02d2 5B69     		ldr	r3, [r3, #20]
 791 02d4 1B78     		ldrb	r3, [r3]
 792 02d6 0B2B     		cmp	r3, #11
 793 02d8 06D1     		bne	.L55
 421:main.c        ****                             (*dingshi) += 15;
 794              		.loc 1 421 0
ARM GAS  C:\Users\Administrator\AppData\Local\Temp\ccx3kPmM.s 			page 28


 795 02da 124B     		ldr	r3, .L79
 796 02dc 1A6A     		ldr	r2, [r3, #32]
 797 02de 1378     		ldrb	r3, [r2]
 798 02e0 772B     		cmp	r3, #119
 799 02e2 01D8     		bhi	.L55
 422:main.c        ****                     }
 800              		.loc 1 422 0
 801 02e4 0F33     		add	r3, r3, #15
 802 02e6 1370     		strb	r3, [r2]
 803              	.L55:
 424:main.c        ****                     {
 804              		.loc 1 424 0
 805 02e8 0E4B     		ldr	r3, .L79
 806 02ea 5B69     		ldr	r3, [r3, #20]
 807 02ec 1B78     		ldrb	r3, [r3]
 808 02ee 0F2B     		cmp	r3, #15
 809 02f0 06D1     		bne	.L56
 426:main.c        ****                             (*dingshi) += 15;
 810              		.loc 1 426 0
 811 02f2 0C4B     		ldr	r3, .L79
 812 02f4 1A6A     		ldr	r2, [r3, #32]
 813 02f6 1378     		ldrb	r3, [r2]
 814 02f8 952B     		cmp	r3, #149
 815 02fa 01D8     		bhi	.L56
 427:main.c        ****                     }
 816              		.loc 1 427 0
 817 02fc 0F33     		add	r3, r3, #15
 818 02fe 1370     		strb	r3, [r2]
 819              	.L56:
 429:main.c        ****                     {
 820              		.loc 1 429 0
 821 0300 084B     		ldr	r3, .L79
 822 0302 5B69     		ldr	r3, [r3, #20]
 823 0304 1B78     		ldrb	r3, [r3]
 824 0306 0D2B     		cmp	r3, #13
 825 0308 06D1     		bne	.L57
 431:main.c        ****                             (*dingshi) += 15;
 826              		.loc 1 431 0
 827 030a 064B     		ldr	r3, .L79
 828 030c 1A6A     		ldr	r2, [r3, #32]
 829 030e 1378     		ldrb	r3, [r2]
 830 0310 772B     		cmp	r3, #119
 831 0312 01D8     		bhi	.L57
 432:main.c        ****                     }
 832              		.loc 1 432 0
 833 0314 0F33     		add	r3, r3, #15
 834 0316 1370     		strb	r3, [r2]
 835              	.L57:
 434:main.c        ****                     break;
 836              		.loc 1 434 0
 837 0318 0121     		mov	r1, #1
 838 031a 3023     		mov	r3, #48
 839 031c 034A     		ldr	r2, .L79+8
 840 031e D154     		strb	r1, [r2, r3]
 435:main.c        ****                 case KEY_DINGSHI_JIAN: 
 841              		.loc 1 435 0
 842 0320 B9E0     		b	.L19
ARM GAS  C:\Users\Administrator\AppData\Local\Temp\ccx3kPmM.s 			page 29


 843              	.L80:
 844 0322 C046     		.align	2
 845              	.L79:
 846 0324 00000000 		.word	.LANCHOR1
 847 0328 00000000 		.word	.L21
 848 032c 00000000 		.word	.LANCHOR0
 849              	.L30:
 437:main.c        ****                     {
 850              		.loc 1 437 0
 851 0330 7F4B     		ldr	r3, .L81
 852 0332 5B69     		ldr	r3, [r3, #20]
 853 0334 1B78     		ldrb	r3, [r3]
 854 0336 042B     		cmp	r3, #4
 855 0338 06D1     		bne	.L58
 439:main.c        ****                             (*dingshi) -= 15;
 856              		.loc 1 439 0
 857 033a 7D4B     		ldr	r3, .L81
 858 033c 1A6A     		ldr	r2, [r3, #32]
 859 033e 1378     		ldrb	r3, [r2]
 860 0340 3C2B     		cmp	r3, #60
 861 0342 01D9     		bls	.L58
 440:main.c        ****                     }
 862              		.loc 1 440 0
 863 0344 0F3B     		sub	r3, r3, #15
 864 0346 1370     		strb	r3, [r2]
 865              	.L58:
 442:main.c        ****                     {
 866              		.loc 1 442 0
 867 0348 794B     		ldr	r3, .L81
 868 034a 5B69     		ldr	r3, [r3, #20]
 869 034c 1B78     		ldrb	r3, [r3]
 870 034e 032B     		cmp	r3, #3
 871 0350 06D1     		bne	.L59
 444:main.c        ****                             (*dingshi) -= 15;
 872              		.loc 1 444 0
 873 0352 774B     		ldr	r3, .L81
 874 0354 1A6A     		ldr	r2, [r3, #32]
 875 0356 1378     		ldrb	r3, [r2]
 876 0358 0F2B     		cmp	r3, #15
 877 035a 01D9     		bls	.L59
 445:main.c        ****                     }
 878              		.loc 1 445 0
 879 035c 0F3B     		sub	r3, r3, #15
 880 035e 1370     		strb	r3, [r2]
 881              	.L59:
 447:main.c        ****                     {
 882              		.loc 1 447 0
 883 0360 734B     		ldr	r3, .L81
 884 0362 5B69     		ldr	r3, [r3, #20]
 885 0364 1B78     		ldrb	r3, [r3]
 886 0366 012B     		cmp	r3, #1
 887 0368 06D1     		bne	.L60
 449:main.c        ****                             (*dingshi) -= 15;
 888              		.loc 1 449 0
 889 036a 714B     		ldr	r3, .L81
 890 036c 1A6A     		ldr	r2, [r3, #32]
 891 036e 1378     		ldrb	r3, [r2]
ARM GAS  C:\Users\Administrator\AppData\Local\Temp\ccx3kPmM.s 			page 30


 892 0370 1E2B     		cmp	r3, #30
 893 0372 01D9     		bls	.L60
 450:main.c        ****                     }
 894              		.loc 1 450 0
 895 0374 0F3B     		sub	r3, r3, #15
 896 0376 1370     		strb	r3, [r2]
 897              	.L60:
 452:main.c        ****                     {
 898              		.loc 1 452 0
 899 0378 6D4B     		ldr	r3, .L81
 900 037a 5B69     		ldr	r3, [r3, #20]
 901 037c 1B78     		ldrb	r3, [r3]
 902 037e 0B2B     		cmp	r3, #11
 903 0380 06D1     		bne	.L61
 454:main.c        ****                             (*dingshi) -= 15;
 904              		.loc 1 454 0
 905 0382 6B4B     		ldr	r3, .L81
 906 0384 1A6A     		ldr	r2, [r3, #32]
 907 0386 1378     		ldrb	r3, [r2]
 908 0388 3C2B     		cmp	r3, #60
 909 038a 01D9     		bls	.L61
 455:main.c        ****                     }
 910              		.loc 1 455 0
 911 038c 0F3B     		sub	r3, r3, #15
 912 038e 1370     		strb	r3, [r2]
 913              	.L61:
 457:main.c        ****                     {
 914              		.loc 1 457 0
 915 0390 674B     		ldr	r3, .L81
 916 0392 5B69     		ldr	r3, [r3, #20]
 917 0394 1B78     		ldrb	r3, [r3]
 918 0396 0F2B     		cmp	r3, #15
 919 0398 06D1     		bne	.L62
 459:main.c        ****                             (*dingshi) -= 15;
 920              		.loc 1 459 0
 921 039a 654B     		ldr	r3, .L81
 922 039c 1A6A     		ldr	r2, [r3, #32]
 923 039e 1378     		ldrb	r3, [r2]
 924 03a0 5A2B     		cmp	r3, #90
 925 03a2 01D9     		bls	.L62
 460:main.c        ****                     }
 926              		.loc 1 460 0
 927 03a4 0F3B     		sub	r3, r3, #15
 928 03a6 1370     		strb	r3, [r2]
 929              	.L62:
 462:main.c        ****                     {
 930              		.loc 1 462 0
 931 03a8 614B     		ldr	r3, .L81
 932 03aa 5B69     		ldr	r3, [r3, #20]
 933 03ac 1B78     		ldrb	r3, [r3]
 934 03ae 0D2B     		cmp	r3, #13
 935 03b0 06D1     		bne	.L63
 464:main.c        ****                             (*dingshi) -= 15;
 936              		.loc 1 464 0
 937 03b2 5F4B     		ldr	r3, .L81
 938 03b4 1A6A     		ldr	r2, [r3, #32]
 939 03b6 1378     		ldrb	r3, [r2]
ARM GAS  C:\Users\Administrator\AppData\Local\Temp\ccx3kPmM.s 			page 31


 940 03b8 3C2B     		cmp	r3, #60
 941 03ba 01D9     		bls	.L63
 465:main.c        ****                     }
 942              		.loc 1 465 0
 943 03bc 0F3B     		sub	r3, r3, #15
 944 03be 1370     		strb	r3, [r2]
 945              	.L63:
 467:main.c        ****                     break;
 946              		.loc 1 467 0
 947 03c0 0121     		mov	r1, #1
 948 03c2 3023     		mov	r3, #48
 949 03c4 5B4A     		ldr	r2, .L81+4
 950 03c6 D154     		strb	r1, [r2, r3]
 468:main.c        ****                 case KEY_BAI_DONG: 
 951              		.loc 1 468 0
 952 03c8 65E0     		b	.L19
 953              	.L31:
 471:main.c        ****                     &&(*p_mutex_function != XIN_FENG_FENG_NUAN))
 954              		.loc 1 471 0
 955 03ca 594B     		ldr	r3, .L81
 956 03cc 5B69     		ldr	r3, [r3, #20]
 957 03ce 1B78     		ldrb	r3, [r3]
 958 03d0 DA1E     		sub	r2, r3, #3
 470:main.c        ****                     &&(*p_mutex_function != FENG_NUAN)
 959              		.loc 1 470 0
 960 03d2 012A     		cmp	r2, #1
 961 03d4 01D9     		bls	.L64
 472:main.c        ****                     {break;}
 962              		.loc 1 472 0
 963 03d6 0B2B     		cmp	r3, #11
 964 03d8 5DD1     		bne	.L19
 965              	.L64:
 474:main.c        ****                         p_combine_function->baidong = 0;
 966              		.loc 1 474 0
 967 03da 554B     		ldr	r3, .L81
 968 03dc 9B69     		ldr	r3, [r3, #24]
 969 03de 1A78     		ldrb	r2, [r3]
 970 03e0 9207     		lsl	r2, r2, #30
 971 03e2 04D5     		bpl	.L65
 475:main.c        ****                     else
 972              		.loc 1 475 0
 973 03e4 1A78     		ldrb	r2, [r3]
 974 03e6 0221     		mov	r1, #2
 975 03e8 8A43     		bic	r2, r1
 976 03ea 1A70     		strb	r2, [r3]
 977 03ec 03E0     		b	.L66
 978              	.L65:
 477:main.c        ****                     send_flag = TRUE;
 979              		.loc 1 477 0
 980 03ee 1978     		ldrb	r1, [r3]
 981 03f0 0222     		mov	r2, #2
 982 03f2 0A43     		orr	r2, r1
 983 03f4 1A70     		strb	r2, [r3]
 984              	.L66:
 478:main.c        ****                     break;
 985              		.loc 1 478 0
 986 03f6 0121     		mov	r1, #1
ARM GAS  C:\Users\Administrator\AppData\Local\Temp\ccx3kPmM.s 			page 32


 987 03f8 3023     		mov	r3, #48
 988 03fa 4E4A     		ldr	r2, .L81+4
 989 03fc D154     		strb	r1, [r2, r3]
 479:main.c        ****                 case KEY_ZHI_NENG: 
 990              		.loc 1 479 0
 991 03fe 4AE0     		b	.L19
 992              	.L32:
 481:main.c        ****                     ||(*p_mutex_function == ZHI_NENG_GAN_ZAO)
 993              		.loc 1 481 0
 994 0400 4B4B     		ldr	r3, .L81
 995 0402 5A69     		ldr	r2, [r3, #20]
 996 0404 1378     		ldrb	r3, [r2]
 997 0406 002B     		cmp	r3, #0
 998 0408 05D0     		beq	.L67
 482:main.c        ****                     ||(*p_mutex_function == ZHI_NENG_JING_HUA)
 999              		.loc 1 482 0
 1000 040a 0C2B     		cmp	r3, #12
 1001 040c 03D0     		beq	.L67
 483:main.c        ****                     ||(*p_mutex_function == ZHI_NENG_MU_YU_1))
 1002              		.loc 1 483 0
 1003 040e 0F2B     		cmp	r3, #15
 1004 0410 01D0     		beq	.L67
 484:main.c        ****                     {
 1005              		.loc 1 484 0
 1006 0412 0D2B     		cmp	r3, #13
 1007 0414 36D1     		bne	.L68
 1008              	.L67:
 486:main.c        ****                         {
 1009              		.loc 1 486 0
 1010 0416 3223     		mov	r3, #50
 1011 0418 4649     		ldr	r1, .L81+4
 1012 041a CB5C     		ldrb	r3, [r1, r3]
 1013 041c 012B     		cmp	r3, #1
 1014 041e 0DD0     		beq	.L70
 1015 0420 002B     		cmp	r3, #0
 1016 0422 04D0     		beq	.L71
 1017 0424 022B     		cmp	r3, #2
 1018 0426 18D0     		beq	.L72
 1019 0428 032B     		cmp	r3, #3
 1020 042a 25D0     		beq	.L73
 1021 042c 2FE0     		b	.L69
 1022              	.L71:
 489:main.c        ****                                 *p_mutex_function = ZHI_NENG_GAN_ZAO;
 1023              		.loc 1 489 0
 1024 042e 0120     		mov	r0, #1
 1025 0430 3223     		mov	r3, #50
 1026 0432 4049     		ldr	r1, .L81+4
 1027 0434 C854     		strb	r0, [r1, r3]
 490:main.c        ****                                 break;
 1028              		.loc 1 490 0
 1029 0436 263B     		sub	r3, r3, #38
 1030 0438 1370     		strb	r3, [r2]
 491:main.c        ****                             case ZHI_GAN: 
 1031              		.loc 1 491 0
 1032 043a 28E0     		b	.L69
 1033              	.L70:
 493:main.c        ****                                 (*wendu) = 0;        //æ¸©åº¦
ARM GAS  C:\Users\Administrator\AppData\Local\Temp\ccx3kPmM.s 			page 33


 1034              		.loc 1 493 0
 1035 043c 0221     		mov	r1, #2
 1036 043e 3223     		mov	r3, #50
 1037 0440 3C4A     		ldr	r2, .L81+4
 1038 0442 D154     		strb	r1, [r2, r3]
 494:main.c        ****                                 (*dingshi) = 120;        //æ—¶é—´
 1039              		.loc 1 494 0
 1040 0444 3A4B     		ldr	r3, .L81
 1041 0446 0022     		mov	r2, #0
 1042 0448 D969     		ldr	r1, [r3, #28]
 1043 044a 0A70     		strb	r2, [r1]
 495:main.c        ****                                 *p_mutex_function = ZHI_NENG_JING_HUA;
 1044              		.loc 1 495 0
 1045 044c 7832     		add	r2, r2, #120
 1046 044e 196A     		ldr	r1, [r3, #32]
 1047 0450 0A70     		strb	r2, [r1]
 496:main.c        ****                                 break;
 1048              		.loc 1 496 0
 1049 0452 5B69     		ldr	r3, [r3, #20]
 1050 0454 693A     		sub	r2, r2, #105
 1051 0456 1A70     		strb	r2, [r3]
 497:main.c        ****                             case ZHI_JING:
 1052              		.loc 1 497 0
 1053 0458 19E0     		b	.L69
 1054              	.L72:
 499:main.c        ****                                 (*wendu) = 0;        //æ¸©åº¦
 1055              		.loc 1 499 0
 1056 045a 0321     		mov	r1, #3
 1057 045c 3223     		mov	r3, #50
 1058 045e 354A     		ldr	r2, .L81+4
 1059 0460 D154     		strb	r1, [r2, r3]
 500:main.c        ****                                 (*dingshi) = 90;        //æ—¶é—´
 1060              		.loc 1 500 0
 1061 0462 334B     		ldr	r3, .L81
 1062 0464 0022     		mov	r2, #0
 1063 0466 D969     		ldr	r1, [r3, #28]
 1064 0468 0A70     		strb	r2, [r1]
 501:main.c        ****                                 *p_mutex_function = ZHI_NENG_MU_YU_1;
 1065              		.loc 1 501 0
 1066 046a 5A32     		add	r2, r2, #90
 1067 046c 196A     		ldr	r1, [r3, #32]
 1068 046e 0A70     		strb	r2, [r1]
 502:main.c        ****                                 break;
 1069              		.loc 1 502 0
 1070 0470 5B69     		ldr	r3, [r3, #20]
 1071 0472 4D3A     		sub	r2, r2, #77
 1072 0474 1A70     		strb	r2, [r3]
 503:main.c        ****                             case ZHI_MU: 
 1073              		.loc 1 503 0
 1074 0476 0AE0     		b	.L69
 1075              	.L73:
 505:main.c        ****                                 *p_mutex_function = DAI_JI;
 1076              		.loc 1 505 0
 1077 0478 0023     		mov	r3, #0
 1078 047a 3221     		mov	r1, #50
 1079 047c 2D48     		ldr	r0, .L81+4
 1080 047e 4354     		strb	r3, [r0, r1]
ARM GAS  C:\Users\Administrator\AppData\Local\Temp\ccx3kPmM.s 			page 34


 506:main.c        ****                                 break;
 1081              		.loc 1 506 0
 1082 0480 1370     		strb	r3, [r2]
 507:main.c        ****                         }
 1083              		.loc 1 507 0
 1084 0482 04E0     		b	.L69
 1085              	.L68:
 512:main.c        ****                         zhi_neng_mode = GUAN_JI;
 1086              		.loc 1 512 0
 1087 0484 0023     		mov	r3, #0
 1088 0486 1370     		strb	r3, [r2]
 513:main.c        ****                     }
 1089              		.loc 1 513 0
 1090 0488 3222     		mov	r2, #50
 1091 048a 2A49     		ldr	r1, .L81+4
 1092 048c 8B54     		strb	r3, [r1, r2]
 1093              	.L69:
 515:main.c        ****                     break;
 1094              		.loc 1 515 0
 1095 048e 0121     		mov	r1, #1
 1096 0490 3023     		mov	r3, #48
 1097 0492 284A     		ldr	r2, .L81+4
 1098 0494 D154     		strb	r1, [r2, r3]
 1099              	.L19:
 521:main.c        ****         {
 1100              		.loc 1 521 0
 1101 0496 0020     		mov	r0, #0
 1102 0498 FFF7FEFF 		bl	key_is_long_pressed
 1103              	.LVL29:
 1104 049c 0028     		cmp	r0, #0
 1105 049e 09D0     		beq	.L74
 523:main.c        ****             *command_type = MATCH_CODE;
 1106              		.loc 1 523 0
 1107 04a0 244B     		ldr	r3, .L81+4
 1108 04a2 0122     		mov	r2, #1
 1109 04a4 3321     		mov	r1, #51
 1110 04a6 5A54     		strb	r2, [r3, r1]
 524:main.c        ****             send_flag = TRUE;
 1111              		.loc 1 524 0
 1112 04a8 2149     		ldr	r1, .L81
 1113 04aa 0969     		ldr	r1, [r1, #16]
 1114 04ac 0220     		mov	r0, #2
 1115 04ae 0870     		strb	r0, [r1]
 525:main.c        ****         }
 1116              		.loc 1 525 0
 1117 04b0 3021     		mov	r1, #48
 1118 04b2 5A54     		strb	r2, [r3, r1]
 1119              	.L74:
 528:main.c        ****         {
 1120              		.loc 1 528 0
 1121 04b4 0220     		mov	r0, #2
 1122 04b6 FFF7FEFF 		bl	key_is_long_pressed
 1123              	.LVL30:
 1124 04ba 0028     		cmp	r0, #0
 1125 04bc 07D0     		beq	.L75
 530:main.c        ****             send_flag = TRUE;
 1126              		.loc 1 530 0
ARM GAS  C:\Users\Administrator\AppData\Local\Temp\ccx3kPmM.s 			page 35


 1127 04be 1C4B     		ldr	r3, .L81
 1128 04c0 1B69     		ldr	r3, [r3, #16]
 1129 04c2 0322     		mov	r2, #3
 1130 04c4 1A70     		strb	r2, [r3]
 531:main.c        ****         }
 1131              		.loc 1 531 0
 1132 04c6 0121     		mov	r1, #1
 1133 04c8 3023     		mov	r3, #48
 1134 04ca 1A4A     		ldr	r2, .L81+4
 1135 04cc D154     		strb	r1, [r2, r3]
 1136              	.L75:
 533:main.c        ****         {
 1137              		.loc 1 533 0
 1138 04ce 0320     		mov	r0, #3
 1139 04d0 FFF7FEFF 		bl	key_is_long_pressed
 1140              	.LVL31:
 1141 04d4 0028     		cmp	r0, #0
 1142 04d6 07D0     		beq	.L76
 535:main.c        ****             send_flag = TRUE;
 1143              		.loc 1 535 0
 1144 04d8 154B     		ldr	r3, .L81
 1145 04da 1B69     		ldr	r3, [r3, #16]
 1146 04dc 0422     		mov	r2, #4
 1147 04de 1A70     		strb	r2, [r3]
 536:main.c        ****         }
 1148              		.loc 1 536 0
 1149 04e0 0121     		mov	r1, #1
 1150 04e2 3023     		mov	r3, #48
 1151 04e4 134A     		ldr	r2, .L81+4
 1152 04e6 D154     		strb	r1, [r2, r3]
 1153              	.L76:
 539:main.c        ****         {
 1154              		.loc 1 539 0
 1155 04e8 114B     		ldr	r3, .L81
 1156 04ea 5B69     		ldr	r3, [r3, #20]
 1157 04ec 1B78     		ldrb	r3, [r3]
 1158 04ee 002B     		cmp	r3, #0
 1159 04f0 18D1     		bne	.L77
 541:main.c        ****             p_combine_function->ruo = 0;
 1160              		.loc 1 541 0
 1161 04f2 0F4B     		ldr	r3, .L81
 1162 04f4 9969     		ldr	r1, [r3, #24]
 1163 04f6 0A78     		ldrb	r2, [r1]
 1164 04f8 0420     		mov	r0, #4
 1165 04fa 8243     		bic	r2, r0
 1166 04fc 0A70     		strb	r2, [r1]
 542:main.c        ****             p_combine_function->zidong = 0;
 1167              		.loc 1 542 0
 1168 04fe 9969     		ldr	r1, [r3, #24]
 1169 0500 0A78     		ldrb	r2, [r1]
 1170 0502 0430     		add	r0, r0, #4
 1171 0504 8243     		bic	r2, r0
 1172 0506 0A70     		strb	r2, [r1]
 543:main.c        ****             p_combine_function->baidong = 0;
 1173              		.loc 1 543 0
 1174 0508 9969     		ldr	r1, [r3, #24]
 1175 050a 0A78     		ldrb	r2, [r1]
ARM GAS  C:\Users\Administrator\AppData\Local\Temp\ccx3kPmM.s 			page 36


 1176 050c 0830     		add	r0, r0, #8
 1177 050e 8243     		bic	r2, r0
 1178 0510 0A70     		strb	r2, [r1]
 544:main.c        ****             qiang_ruo_mode = QAING;
 1179              		.loc 1 544 0
 1180 0512 9A69     		ldr	r2, [r3, #24]
 1181 0514 1378     		ldrb	r3, [r2]
 1182 0516 0221     		mov	r1, #2
 1183 0518 8B43     		bic	r3, r1
 1184 051a 1370     		strb	r3, [r2]
 545:main.c        ****         }
 1185              		.loc 1 545 0
 1186 051c 0021     		mov	r1, #0
 1187 051e 3123     		mov	r3, #49
 1188 0520 044A     		ldr	r2, .L81+4
 1189 0522 D154     		strb	r1, [r2, r3]
 1190              	.L77:
 266:main.c        ****     {
 1191              		.loc 1 266 0 discriminator 2
 1192 0524 0134     		add	r4, r4, #1
 1193              	.LVL32:
 1194 0526 E4B2     		uxtb	r4, r4
 1195              	.LVL33:
 1196              	.L18:
 266:main.c        ****     {
 1197              		.loc 1 266 0 is_stmt 0 discriminator 1
 1198 0528 0B2C     		cmp	r4, #11
 1199 052a 00D8     		bhi	.LCB1072
 1200 052c 6BE5     		b	.L78	@long jump
 1201              	.LCB1072:
 548:main.c        **** static void beij_timer(void)
 1202              		.loc 1 548 0 is_stmt 1
 1203              		@ sp needed
 1204              	.LVL34:
 1205 052e 10BD     		pop	{r4, pc}
 1206              	.L82:
 1207              		.align	2
 1208              	.L81:
 1209 0530 00000000 		.word	.LANCHOR1
 1210 0534 00000000 		.word	.LANCHOR0
 1211              		.cfi_endproc
 1212              	.LFE39:
 1213              		.size	key_deal, .-key_deal
 1214              		.section	.text.match_code_mode,"ax",%progbits
 1215              		.align	2
 1216              		.code	16
 1217              		.thumb_func
 1218              		.type	match_code_mode, %function
 1219              	match_code_mode:
 1220              	.LFB41:
 577:main.c        ****  
 1221              		.loc 1 577 0
 1222              		.cfi_startproc
 1223 0000 08B5     		push	{r3, lr}
 1224              		.cfi_def_cfa_offset 8
 1225              		.cfi_offset 3, -8
 1226              		.cfi_offset 14, -4
ARM GAS  C:\Users\Administrator\AppData\Local\Temp\ccx3kPmM.s 			page 37


 580:main.c        ****     {
 1227              		.loc 1 580 0
 1228 0002 3423     		mov	r3, #52
 1229 0004 244A     		ldr	r2, .L91
 1230 0006 D35C     		ldrb	r3, [r2, r3]
 1231 0008 012B     		cmp	r3, #1
 1232 000a 15D0     		beq	.L85
 1233 000c 002B     		cmp	r3, #0
 1234 000e 02D0     		beq	.L86
 1235 0010 022B     		cmp	r3, #2
 1236 0012 19D0     		beq	.L87
 1237 0014 3EE0     		b	.L83
 1238              	.L86:
 583:main.c        ****             {
 1239              		.loc 1 583 0
 1240 0016 3323     		mov	r3, #51
 1241 0018 1F4A     		ldr	r2, .L91
 1242 001a D35C     		ldrb	r3, [r2, r3]
 1243 001c 002B     		cmp	r3, #0
 1244 001e 39D0     		beq	.L83
 585:main.c        ****                 match_code_state = WAIT_SHORT_PRESS;
 1245              		.loc 1 585 0
 1246 0020 131C     		mov	r3, r2
 1247 0022 0021     		mov	r1, #0
 1248 0024 3322     		mov	r2, #51
 1249 0026 9954     		strb	r1, [r3, r2]
 586:main.c        ****                 timing_set_counts(&match_code_wait, 3000);
 1250              		.loc 1 586 0
 1251 0028 0131     		add	r1, r1, #1
 1252 002a 0132     		add	r2, r2, #1
 1253 002c 9954     		strb	r1, [r3, r2]
 587:main.c        ****             }
 1254              		.loc 1 587 0
 1255 002e 1B48     		ldr	r0, .L91+4
 1256 0030 1B49     		ldr	r1, .L91+8
 1257 0032 FFF7FEFF 		bl	timing_set_counts
 1258              	.LVL35:
 1259 0036 2DE0     		b	.L83
 1260              	.L85:
 591:main.c        ****                 match_code_state = WAIT_SHORT_PRESS;
 1261              		.loc 1 591 0
 1262 0038 1848     		ldr	r0, .L91+4
 1263 003a FFF7FEFF 		bl	timing_count_end
 1264              	.LVL36:
 593:main.c        ****             //if(key_is_short_pressed(KEY_QING_RUO)) {}
 1265              		.loc 1 593 0
 1266 003e 0221     		mov	r1, #2
 1267 0040 3423     		mov	r3, #52
 1268 0042 154A     		ldr	r2, .L91
 1269 0044 D154     		strb	r1, [r2, r3]
 595:main.c        ****         case WAIT_MESSAGE:
 1270              		.loc 1 595 0
 1271 0046 25E0     		b	.L83
 1272              	.L87:
 597:main.c        ****                 match_code_state = WAIT_SHORT_PRESS;
 1273              		.loc 1 597 0
 1274 0048 1448     		ldr	r0, .L91+4
ARM GAS  C:\Users\Administrator\AppData\Local\Temp\ccx3kPmM.s 			page 38


 1275 004a FFF7FEFF 		bl	timing_count_end
 1276              	.LVL37:
 1277 004e 0028     		cmp	r0, #0
 1278 0050 03D0     		beq	.L89
 598:main.c        ****             if (receive_data_by_A7105(16, receive_buffer))
 1279              		.loc 1 598 0
 1280 0052 0121     		mov	r1, #1
 1281 0054 3423     		mov	r3, #52
 1282 0056 104A     		ldr	r2, .L91
 1283 0058 D154     		strb	r1, [r2, r3]
 1284              	.L89:
 599:main.c        ****             {
 1285              		.loc 1 599 0
 1286 005a 1020     		mov	r0, #16
 1287 005c 0E49     		ldr	r1, .L91
 1288 005e 3831     		add	r1, r1, #56
 1289 0060 FFF7FEFF 		bl	receive_data_by_A7105
 1290              	.LVL38:
 1291 0064 0028     		cmp	r0, #0
 1292 0066 15D0     		beq	.L83
 601:main.c        ****                 {
 1293              		.loc 1 601 0
 1294 0068 0B48     		ldr	r0, .L91
 1295 006a 3E30     		add	r0, r0, #62
 1296 006c 0D49     		ldr	r1, .L91+12
 1297 006e FFF7FEFF 		bl	ID_check_ok
 1298              	.LVL39:
 1299 0072 0028     		cmp	r0, #0
 1300 0074 0AD0     		beq	.L90
 603:main.c        ****                     dest_ID[1] = receive_buffer[3];
 1301              		.loc 1 603 0
 1302 0076 084B     		ldr	r3, .L91
 1303 0078 1A1C     		mov	r2, r3
 1304 007a 3832     		add	r2, r2, #56
 1305 007c 9178     		ldrb	r1, [r2, #2]
 1306 007e 1976     		strb	r1, [r3, #24]
 604:main.c        ****                     dest_ID[2] = receive_buffer[4];
 1307              		.loc 1 604 0
 1308 0080 D178     		ldrb	r1, [r2, #3]
 1309 0082 5976     		strb	r1, [r3, #25]
 605:main.c        ****                     dest_ID[3] = receive_buffer[5];
 1310              		.loc 1 605 0
 1311 0084 1179     		ldrb	r1, [r2, #4]
 1312 0086 9976     		strb	r1, [r3, #26]
 606:main.c        ****                 }
 1313              		.loc 1 606 0
 1314 0088 5279     		ldrb	r2, [r2, #5]
 1315 008a DA76     		strb	r2, [r3, #27]
 1316              	.L90:
 608:main.c        ****             }
 1317              		.loc 1 608 0
 1318 008c 0121     		mov	r1, #1
 1319 008e 3423     		mov	r3, #52
 1320 0090 014A     		ldr	r2, .L91
 1321 0092 D154     		strb	r1, [r2, r3]
 1322              	.L83:
 612:main.c        **** 
ARM GAS  C:\Users\Administrator\AppData\Local\Temp\ccx3kPmM.s 			page 39


 1323              		.loc 1 612 0
 1324              		@ sp needed
 1325 0094 08BD     		pop	{r3, pc}
 1326              	.L92:
 1327 0096 C046     		.align	2
 1328              	.L91:
 1329 0098 00000000 		.word	.LANCHOR0
 1330 009c 00000000 		.word	match_code_wait
 1331 00a0 B80B0000 		.word	3000
 1332 00a4 00000000 		.word	.LANCHOR1
 1333              		.cfi_endproc
 1334              	.LFE41:
 1335              		.size	match_code_mode, .-match_code_mode
 1336              		.section	.text.time_1ms_Interrupt,"ax",%progbits
 1337              		.align	2
 1338              		.global	time_1ms_Interrupt
 1339              		.code	16
 1340              		.thumb_func
 1341              		.type	time_1ms_Interrupt, %function
 1342              	time_1ms_Interrupt:
 1343              	.LFB36:
 225:main.c        ****     timer_count++;
 1344              		.loc 1 225 0
 1345              		.cfi_startproc
 1346 0000 08B5     		push	{r3, lr}
 1347              		.cfi_def_cfa_offset 8
 1348              		.cfi_offset 3, -8
 1349              		.cfi_offset 14, -4
 226:main.c        ****     timing_count();
 1350              		.loc 1 226 0
 1351 0002 0549     		ldr	r1, .L94
 1352 0004 5022     		mov	r2, #80
 1353 0006 8B5A     		ldrh	r3, [r1, r2]
 1354 0008 0133     		add	r3, r3, #1
 1355 000a 8B52     		strh	r3, [r1, r2]
 227:main.c        ****     Timer_1_ClearInterrupt(Timer_1_INTR_MASK_TC);
 1356              		.loc 1 227 0
 1357 000c FFF7FEFF 		bl	timing_count
 1358              	.LVL40:
 228:main.c        **** }
 1359              		.loc 1 228 0
 1360 0010 0120     		mov	r0, #1
 1361 0012 FFF7FEFF 		bl	Timer_1_ClearInterrupt
 1362              	.LVL41:
 229:main.c        **** 
 1363              		.loc 1 229 0
 1364              		@ sp needed
 1365 0016 08BD     		pop	{r3, pc}
 1366              	.L95:
 1367              		.align	2
 1368              	.L94:
 1369 0018 00000000 		.word	.LANCHOR0
 1370              		.cfi_endproc
 1371              	.LFE36:
 1372              		.size	time_1ms_Interrupt, .-time_1ms_Interrupt
 1373              		.section	.text.gio1_interrupt,"ax",%progbits
 1374              		.align	2
ARM GAS  C:\Users\Administrator\AppData\Local\Temp\ccx3kPmM.s 			page 40


 1375              		.global	gio1_interrupt
 1376              		.code	16
 1377              		.thumb_func
 1378              		.type	gio1_interrupt, %function
 1379              	gio1_interrupt:
 1380              	.LFB37:
 232:main.c        ****     A7105_update_wtr(TRUE);
 1381              		.loc 1 232 0
 1382              		.cfi_startproc
 1383 0000 08B5     		push	{r3, lr}
 1384              		.cfi_def_cfa_offset 8
 1385              		.cfi_offset 3, -8
 1386              		.cfi_offset 14, -4
 233:main.c        ****     GIO1_ClearInterrupt();
 1387              		.loc 1 233 0
 1388 0002 0120     		mov	r0, #1
 1389 0004 FFF7FEFF 		bl	A7105_update_wtr
 1390              	.LVL42:
 234:main.c        **** }
 1391              		.loc 1 234 0
 1392 0008 FFF7FEFF 		bl	GIO1_ClearInterrupt
 1393              	.LVL43:
 235:main.c        **** 
 1394              		.loc 1 235 0
 1395              		@ sp needed
 1396 000c 08BD     		pop	{r3, pc}
 1397              		.cfi_endproc
 1398              	.LFE37:
 1399              		.size	gio1_interrupt, .-gio1_interrupt
 1400 000e C046     		.section	.text.main,"ax",%progbits
 1401              		.align	2
 1402              		.global	main
 1403              		.code	16
 1404              		.thumb_func
 1405              		.type	main, %function
 1406              	main:
 1407              	.LFB35:
 138:main.c        ****     /* Place your initialization/startup code here (e.g. MyInst_Start()) */
 1408              		.loc 1 138 0
 1409              		.cfi_startproc
 1410 0000 10B5     		push	{r4, lr}
 1411              		.cfi_def_cfa_offset 8
 1412              		.cfi_offset 4, -8
 1413              		.cfi_offset 14, -4
 141:main.c        ****     A7105_init();
 1414              		.loc 1 141 0
 1415              	@ 141 "main.c" 1
 1416 0002 62B6     		CPSIE   i
 1417              	@ 0 "" 2
 142:main.c        ****     key_init();
 1418              		.loc 1 142 0
 1419              		.code	16
 1420 0004 FFF7FEFF 		bl	A7105_init
 1421              	.LVL44:
 143:main.c        ****     GIO1_ISR_Disable();         //ç«¯å£é»˜è®¤ç”µå¹³æ˜¯é«˜ç”µå¹³ï¼Œéœ€è¦å¿½ç•¥è¿™ä¸ªä¸‹é™æ²¿
 1422              		.loc 1 143 0
 1423 0008 FFF7FEFF 		bl	key_init
ARM GAS  C:\Users\Administrator\AppData\Local\Temp\ccx3kPmM.s 			page 41


 1424              	.LVL45:
 144:main.c        ****     GIO1_Write(0);
 1425              		.loc 1 144 0
 1426 000c FFF7FEFF 		bl	GIO1_ISR_Disable
 1427              	.LVL46:
 145:main.c        ****     GIO1_ISR_ClearPending();
 1428              		.loc 1 145 0
 1429 0010 0020     		mov	r0, #0
 1430 0012 FFF7FEFF 		bl	GIO1_Write
 1431              	.LVL47:
 146:main.c        ****     GIO1_ISR_Enable();
 1432              		.loc 1 146 0
 1433 0016 FFF7FEFF 		bl	GIO1_ISR_ClearPending
 1434              	.LVL48:
 147:main.c        ****     
 1435              		.loc 1 147 0
 1436 001a FFF7FEFF 		bl	GIO1_ISR_Enable
 1437              	.LVL49:
 152:main.c        ****     /*
 1438              		.loc 1 152 0
 1439 001e FFF7FEFF 		bl	EZI2C_Start
 1440              	.LVL50:
 157:main.c        **** 
 1441              		.loc 1 157 0
 1442 0022 BE21     		mov	r1, #190
 1443 0024 4900     		lsl	r1, r1, #1
 1444 0026 081C     		mov	r0, r1
 1445 0028 314A     		ldr	r2, .L103
 1446 002a FFF7FEFF 		bl	EZI2C_EzI2CSetBuffer1
 1447              	.LVL51:
 160:main.c        ****     
 1448              		.loc 1 160 0
 1449 002e FFF7FEFF 		bl	Timer_1_Start
 1450              	.LVL52:
 162:main.c        ****     GIO1_ISR_StartEx(gio1_interrupt);            //æŒ‡å®šå¤–éƒ¨ä¸­æ–­GIO1ä¸­æ–­å‡½æ•°
 1451              		.loc 1 162 0
 1452 0032 3048     		ldr	r0, .L103+4
 1453 0034 FFF7FEFF 		bl	time_1ms_ISR_StartEx
 1454              	.LVL53:
 163:main.c        ****     key_touch_Start(); /* Initialize Component */
 1455              		.loc 1 163 0
 1456 0038 2F48     		ldr	r0, .L103+8
 1457 003a FFF7FEFF 		bl	GIO1_ISR_StartEx
 1458              	.LVL54:
 164:main.c        ****     key_touch_ScanAllWidgets(); /* Scan all widgets */
 1459              		.loc 1 164 0
 1460 003e FFF7FEFF 		bl	key_touch_Start
 1461              	.LVL55:
 165:main.c        **** #ifdef SEND_TUNE_SWITCH
 1462              		.loc 1 165 0
 1463 0042 FFF7FEFF 		bl	key_touch_ScanAllWidgets
 1464              	.LVL56:
 167:main.c        **** #endif
 1465              		.loc 1 167 0
 1466 0046 FFF7FEFF 		bl	simple_protocol_init
 1467              	.LVL57:
 169:main.c        ****     (*xiaoshi) = beij_h;
ARM GAS  C:\Users\Administrator\AppData\Local\Temp\ccx3kPmM.s 			page 42


 1468              		.loc 1 169 0
 1469 004a 2C4B     		ldr	r3, .L103+12
 1470 004c 2C4A     		ldr	r2, .L103+16
 1471 004e 927F     		ldrb	r2, [r2, #30]
 1472 0050 5968     		ldr	r1, [r3, #4]
 1473 0052 0A70     		strb	r2, [r1]
 170:main.c        ****     for(;;)
 1474              		.loc 1 170 0
 1475 0054 DA68     		ldr	r2, [r3, #12]
 1476 0056 1B7A     		ldrb	r3, [r3, #8]
 1477 0058 1370     		strb	r3, [r2]
 1478              	.L102:
 174:main.c        ****         {   
 1479              		.loc 1 174 0
 1480 005a 5023     		mov	r3, #80
 1481 005c 284A     		ldr	r2, .L103+16
 1482 005e D35A     		ldrh	r3, [r2, r3]
 1483 0060 092B     		cmp	r3, #9
 1484 0062 1DD9     		bls	.L98
 176:main.c        ****             timer_10ms++;
 1485              		.loc 1 176 0
 1486 0064 0021     		mov	r1, #0
 1487 0066 5023     		mov	r3, #80
 1488 0068 D152     		strh	r1, [r2, r3]
 177:main.c        ****             LCD_on_count++;
 1489              		.loc 1 177 0
 1490 006a 137F     		ldrb	r3, [r2, #28]
 1491 006c 0133     		add	r3, r3, #1
 1492 006e 1377     		strb	r3, [r2, #28]
 178:main.c        ****             
 1493              		.loc 1 178 0
 1494 0070 5231     		add	r1, r1, #82
 1495 0072 535A     		ldrh	r3, [r2, r1]
 1496 0074 0133     		add	r3, r3, #1
 1497 0076 9BB2     		uxth	r3, r3
 1498 0078 5352     		strh	r3, [r2, r1]
 180:main.c        ****                 LCD_on_count = 10000;
 1499              		.loc 1 180 0
 1500 007a 224A     		ldr	r2, .L103+20
 1501 007c 9342     		cmp	r3, r2
 1502 007e 03D9     		bls	.L99
 181:main.c        ****             
 1503              		.loc 1 181 0
 1504 0080 2149     		ldr	r1, .L103+24
 1505 0082 5223     		mov	r3, #82
 1506 0084 1E4A     		ldr	r2, .L103+16
 1507 0086 D152     		strh	r1, [r2, r3]
 1508              	.L99:
 183:main.c        ****             {
 1509              		.loc 1 183 0
 1510 0088 FFF7FEFF 		bl	key_touch_IsBusy
 1511              	.LVL58:
 1512 008c 0028     		cmp	r0, #0
 1513 008e 07D1     		bne	.L98
 185:main.c        ****                 
 1514              		.loc 1 185 0
 1515 0090 FFF7FEFF 		bl	key_touch_ProcessAllWidgets
ARM GAS  C:\Users\Administrator\AppData\Local\Temp\ccx3kPmM.s 			page 43


 1516              	.LVL59:
 188:main.c        ****     #endif
 1517              		.loc 1 188 0
 1518 0094 FFF7FEFF 		bl	key_touch_RunTuner
 1519              	.LVL60:
 190:main.c        ****                 
 1520              		.loc 1 190 0
 1521 0098 FFF7FEFF 		bl	key_scan
 1522              	.LVL61:
 192:main.c        ****             }
 1523              		.loc 1 192 0
 1524 009c FFF7FEFF 		bl	key_touch_ScanAllWidgets
 1525              	.LVL62:
 1526              	.L98:
 195:main.c        ****         
 1527              		.loc 1 195 0
 1528 00a0 FFF7FEFF 		bl	beij_timer
 1529              	.LVL63:
 197:main.c        ****         {
 1530              		.loc 1 197 0
 1531 00a4 5223     		mov	r3, #82
 1532 00a6 164A     		ldr	r2, .L103+16
 1533 00a8 D25A     		ldrh	r2, [r2, r3]
 1534 00aa C823     		mov	r3, #200
 1535 00ac 9B00     		lsl	r3, r3, #2
 1536 00ae 9A42     		cmp	r2, r3
 1537 00b0 07D9     		bls	.L100
 199:main.c        ****             {
 1538              		.loc 1 199 0
 1539 00b2 5423     		mov	r3, #84
 1540 00b4 124A     		ldr	r2, .L103+16
 1541 00b6 D35C     		ldrb	r3, [r2, r3]
 1542 00b8 002B     		cmp	r3, #0
 1543 00ba 02D0     		beq	.L100
 201:main.c        ****             }
 1544              		.loc 1 201 0
 1545 00bc 0021     		mov	r1, #0
 1546 00be 5423     		mov	r3, #84
 1547 00c0 D154     		strb	r1, [r2, r3]
 1548              	.L100:
 204:main.c        ****         match_code_mode();
 1549              		.loc 1 204 0
 1550 00c2 FFF7FEFF 		bl	key_deal
 1551              	.LVL64:
 205:main.c        ****         
 1552              		.loc 1 205 0
 1553 00c6 FFF7FEFF 		bl	match_code_mode
 1554              	.LVL65:
 208:main.c        ****         {
 1555              		.loc 1 208 0
 1556 00ca 3023     		mov	r3, #48
 1557 00cc 0C4A     		ldr	r2, .L103+16
 1558 00ce D35C     		ldrb	r3, [r2, r3]
 1559 00d0 002B     		cmp	r3, #0
 1560 00d2 0AD0     		beq	.L101
 210:main.c        ****             make_data(send_show_buffer);
 1561              		.loc 1 210 0
ARM GAS  C:\Users\Administrator\AppData\Local\Temp\ccx3kPmM.s 			page 44


 1562 00d4 141C     		mov	r4, r2
 1563 00d6 0022     		mov	r2, #0
 1564 00d8 3023     		mov	r3, #48
 1565 00da E254     		strb	r2, [r4, r3]
 211:main.c        ****             //simple_protocol_send(send_buffer, DATA_BUFFER_LENGTH); 
 1566              		.loc 1 211 0
 1567 00dc 2034     		add	r4, r4, #32
 1568 00de 201C     		mov	r0, r4
 1569 00e0 FFF7FEFF 		bl	make_data
 1570              	.LVL66:
 213:main.c        ****             //send_data_by_A7105(DATA_BUFFER_LENGTH, send_buffer);
 1571              		.loc 1 213 0
 1572 00e4 201C     		mov	r0, r4
 1573 00e6 FFF7FEFF 		bl	make_data
 1574              	.LVL67:
 1575              	.L101:
 217:main.c        ****         #endif
 1576              		.loc 1 217 0
 1577 00ea FFF7FEFF 		bl	simple_protocol_process
 1578              	.LVL68:
 221:main.c        **** }
 1579              		.loc 1 221 0
 1580 00ee B4E7     		b	.L102
 1581              	.L104:
 1582              		.align	2
 1583              	.L103:
 1584 00f0 00000000 		.word	key_touch_dsRam
 1585 00f4 00000000 		.word	time_1ms_Interrupt
 1586 00f8 00000000 		.word	gio1_interrupt
 1587 00fc 00000000 		.word	.LANCHOR1
 1588 0100 00000000 		.word	.LANCHOR0
 1589 0104 50C30000 		.word	50000
 1590 0108 10270000 		.word	10000
 1591              		.cfi_endproc
 1592              	.LFE35:
 1593              		.size	main, .-main
 1594              		.comm	match_code_wait,6,4
 1595              		.global	match_code
 1596              		.global	match_code_state
 1597              		.global	LCD_on_count
 1598              		.global	lcd_on
 1599              		.global	beij_h
 1600              		.global	beij_m
 1601              		.global	beij_s
 1602              		.global	send_flag
 1603              		.global	qiang_ruo_mode
 1604              		.global	zhi_neng_mode
 1605              		.global	temp_fengnuan
 1606              		.global	temp_xin_feng_qn
 1607              		.global	time_zhi_mu
 1608              		.global	time_zhi_jing
 1609              		.global	time_xin_feng_qu_nuan
 1610              		.global	time_xin_feng
 1611              		.global	time_huan_qi
 1612              		.global	time_feng_nuan
 1613              		.global	fenzhong
 1614              		.global	xiaoshi
ARM GAS  C:\Users\Administrator\AppData\Local\Temp\ccx3kPmM.s 			page 45


 1615              		.global	dingshi
 1616              		.global	wendu
 1617              		.global	p_mutex_function
 1618              		.global	p_combine_function
 1619              		.global	command_type
 1620              		.global	dest_ID
 1621              		.global	src_ID
 1622              		.global	timer_count
 1623              		.global	receive_buffer
 1624              		.global	send_show_buffer
 1625              		.global	send_buffer
 1626              		.global	t
 1627              		.global	mutex_function_mode
 1628              		.data
 1629              		.align	2
 1630              		.set	.LANCHOR1,. + 0
 1631              		.type	src_ID, %object
 1632              		.size	src_ID, 4
 1633              	src_ID:
 1634 0000 01       		.byte	1
 1635 0001 02       		.byte	2
 1636 0002 03       		.byte	3
 1637 0003 04       		.byte	4
 1638              		.type	fenzhong, %object
 1639              		.size	fenzhong, 4
 1640              	fenzhong:
 1641 0004 06000000 		.word	send_show_buffer+6
 1642              		.type	beij_h, %object
 1643              		.size	beij_h, 1
 1644              	beij_h:
 1645 0008 0C       		.byte	12
 1646 0009 000000   		.space	3
 1647              		.type	xiaoshi, %object
 1648              		.size	xiaoshi, 4
 1649              	xiaoshi:
 1650 000c 05000000 		.word	send_show_buffer+5
 1651              		.type	command_type, %object
 1652              		.size	command_type, 4
 1653              	command_type:
 1654 0010 00000000 		.word	send_show_buffer
 1655              		.type	p_mutex_function, %object
 1656              		.size	p_mutex_function, 4
 1657              	p_mutex_function:
 1658 0014 02000000 		.word	send_show_buffer+2
 1659              		.type	p_combine_function, %object
 1660              		.size	p_combine_function, 4
 1661              	p_combine_function:
 1662 0018 01000000 		.word	send_show_buffer+1
 1663              		.type	wendu, %object
 1664              		.size	wendu, 4
 1665              	wendu:
 1666 001c 03000000 		.word	send_show_buffer+3
 1667              		.type	dingshi, %object
 1668              		.size	dingshi, 4
 1669              	dingshi:
 1670 0020 04000000 		.word	send_show_buffer+4
 1671              		.type	temp_fengnuan, %object
ARM GAS  C:\Users\Administrator\AppData\Local\Temp\ccx3kPmM.s 			page 46


 1672              		.size	temp_fengnuan, 1
 1673              	temp_fengnuan:
 1674 0024 23       		.byte	35
 1675              		.type	temp_xin_feng_qn, %object
 1676              		.size	temp_xin_feng_qn, 1
 1677              	temp_xin_feng_qn:
 1678 0025 23       		.byte	35
 1679              		.type	time_zhi_mu, %object
 1680              		.size	time_zhi_mu, 1
 1681              	time_zhi_mu:
 1682 0026 5A       		.byte	90
 1683              		.type	time_zhi_jing, %object
 1684              		.size	time_zhi_jing, 1
 1685              	time_zhi_jing:
 1686 0027 78       		.byte	120
 1687              		.type	time_xin_feng_qu_nuan, %object
 1688              		.size	time_xin_feng_qu_nuan, 1
 1689              	time_xin_feng_qu_nuan:
 1690 0028 5A       		.byte	90
 1691              		.type	time_xin_feng, %object
 1692              		.size	time_xin_feng, 1
 1693              	time_xin_feng:
 1694 0029 1E       		.byte	30
 1695              		.type	time_huan_qi, %object
 1696              		.size	time_huan_qi, 1
 1697              	time_huan_qi:
 1698 002a 1E       		.byte	30
 1699              		.type	time_feng_nuan, %object
 1700              		.size	time_feng_nuan, 1
 1701              	time_feng_nuan:
 1702 002b 5A       		.byte	90
 1703              		.bss
 1704              		.align	2
 1705              		.set	.LANCHOR0,. + 0
 1706              		.type	send_buffer, %object
 1707              		.size	send_buffer, 24
 1708              	send_buffer:
 1709 0000 00000000 		.space	24
 1709      00000000 
 1709      00000000 
 1709      00000000 
 1709      00000000 
 1710              		.type	dest_ID, %object
 1711              		.size	dest_ID, 4
 1712              	dest_ID:
 1713 0018 00000000 		.space	4
 1714              		.type	timer_10ms, %object
 1715              		.size	timer_10ms, 1
 1716              	timer_10ms:
 1717 001c 00       		.space	1
 1718              		.type	beij_s, %object
 1719              		.size	beij_s, 1
 1720              	beij_s:
 1721 001d 00       		.space	1
 1722              		.type	beij_m, %object
 1723              		.size	beij_m, 1
 1724              	beij_m:
ARM GAS  C:\Users\Administrator\AppData\Local\Temp\ccx3kPmM.s 			page 47


 1725 001e 00       		.space	1
 1726 001f 00       		.space	1
 1727              		.type	send_show_buffer, %object
 1728              		.size	send_show_buffer, 16
 1729              	send_show_buffer:
 1730 0020 00000000 		.space	16
 1730      00000000 
 1730      00000000 
 1730      00000000 
 1731              		.type	send_flag, %object
 1732              		.size	send_flag, 1
 1733              	send_flag:
 1734 0030 00       		.space	1
 1735              		.type	qiang_ruo_mode, %object
 1736              		.size	qiang_ruo_mode, 1
 1737              	qiang_ruo_mode:
 1738 0031 00       		.space	1
 1739              		.type	zhi_neng_mode, %object
 1740              		.size	zhi_neng_mode, 1
 1741              	zhi_neng_mode:
 1742 0032 00       		.space	1
 1743              		.type	match_code, %object
 1744              		.size	match_code, 1
 1745              	match_code:
 1746 0033 00       		.space	1
 1747              		.type	match_code_state, %object
 1748              		.size	match_code_state, 1
 1749              	match_code_state:
 1750 0034 00       		.space	1
 1751 0035 000000   		.space	3
 1752              		.type	receive_buffer, %object
 1753              		.size	receive_buffer, 24
 1754              	receive_buffer:
 1755 0038 00000000 		.space	24
 1755      00000000 
 1755      00000000 
 1755      00000000 
 1755      00000000 
 1756              		.type	timer_count, %object
 1757              		.size	timer_count, 2
 1758              	timer_count:
 1759 0050 0000     		.space	2
 1760              		.type	LCD_on_count, %object
 1761              		.size	LCD_on_count, 2
 1762              	LCD_on_count:
 1763 0052 0000     		.space	2
 1764              		.type	lcd_on, %object
 1765              		.size	lcd_on, 1
 1766              	lcd_on:
 1767 0054 00       		.space	1
 1768              		.type	t, %object
 1769              		.size	t, 1
 1770              	t:
 1771 0055 00       		.space	1
 1772              		.type	mutex_function_mode, %object
 1773              		.size	mutex_function_mode, 1
 1774              	mutex_function_mode:
ARM GAS  C:\Users\Administrator\AppData\Local\Temp\ccx3kPmM.s 			page 48


 1775 0056 00       		.space	1
 1776 0057 00       		.text
 1777              	.Letext0:
 1778              		.file 2 "Generated_Source\\PSoC4/cytypes.h"
 1779              		.file 3 "Generated_Source\\PSoC4/key_touch_Configuration.h"
 1780              		.file 4 "Generated_Source\\PSoC4/key_touch_Structure.h"
 1781              		.file 5 "types.h"
 1782              		.file 6 "timing.h"
 1783              		.file 7 "key.h"
 1784              		.file 8 "A7105_driver.h"
 1785              		.file 9 "Generated_Source\\PSoC4/Timer_1.h"
 1786              		.file 10 "A7105_firmware_lib.h"
 1787              		.file 11 "Generated_Source\\PSoC4/GIO1_ISR.h"
 1788              		.file 12 "Generated_Source\\PSoC4/GIO1.h"
 1789              		.file 13 "Generated_Source\\PSoC4/EZI2C.h"
 1790              		.file 14 "Generated_Source\\PSoC4/EZI2C_EZI2C.h"
 1791              		.file 15 "Generated_Source\\PSoC4/time_1ms_ISR.h"
 1792              		.file 16 "Generated_Source\\PSoC4/key_touch_Control.h"
 1793              		.file 17 "Generated_Source\\PSoC4/key_touch_Sensing.h"
 1794              		.file 18 "simple_protocol.h"
 1795              		.file 19 "Generated_Source\\PSoC4/key_touch_Tuner.h"