ARM GAS  C:\Users\Administrator\AppData\Local\Temp\ccfmMU5o.s 			page 1


   1              		.cpu cortex-m0plus
   2              		.fpu softvfp
   3              		.eabi_attribute 20, 1
   4              		.eabi_attribute 21, 1
   5              		.eabi_attribute 23, 3
   6              		.eabi_attribute 24, 1
   7              		.eabi_attribute 25, 1
   8              		.eabi_attribute 26, 1
   9              		.eabi_attribute 30, 1
  10              		.eabi_attribute 34, 0
  11              		.eabi_attribute 18, 4
  12              		.code	16
  13              		.file	"timing.c"
  14              		.text
  15              	.Ltext0:
  16              		.cfi_sections	.debug_frame
  17              		.section	.text.timing_get_count,"ax",%progbits
  18              		.align	2
  19              		.code	16
  20              		.thumb_func
  21              		.type	timing_get_count, %function
  22              	timing_get_count:
  23              	.LFB1:
  24              		.file 1 "timing.c"
   1:timing.c      **** #include "timing.h"
   2:timing.c      **** 
   3:timing.c      **** static uint16 counter = 0;
   4:timing.c      **** static uint16 timing_get_count(void);
   5:timing.c      **** /*
   6:timing.c      **** **1ms增加一次
   7:timing.c      **** */
   8:timing.c      **** inline void timing_count(void)
   9:timing.c      **** {
  10:timing.c      ****     counter++;
  11:timing.c      **** }
  12:timing.c      **** /*
  13:timing.c      **** **获取counter当前值
  14:timing.c      **** */
  15:timing.c      **** static uint16 timing_get_count(void)
  16:timing.c      **** {    
  25              		.loc 1 16 0
  26              		.cfi_startproc
  17:timing.c      ****     return counter;
  27              		.loc 1 17 0
  28 0000 014B     		ldr	r3, .L2
  29 0002 1888     		ldrh	r0, [r3]
  18:timing.c      **** }
  30              		.loc 1 18 0
  31              		@ sp needed
  32 0004 7047     		bx	lr
  33              	.L3:
  34 0006 C046     		.align	2
  35              	.L2:
  36 0008 00000000 		.word	.LANCHOR0
  37              		.cfi_endproc
  38              	.LFE1:
  39              		.size	timing_get_count, .-timing_get_count
ARM GAS  C:\Users\Administrator\AppData\Local\Temp\ccfmMU5o.s 			page 2


  40              		.section	.text.timing_count,"ax",%progbits
  41              		.align	2
  42              		.global	timing_count
  43              		.code	16
  44              		.thumb_func
  45              		.type	timing_count, %function
  46              	timing_count:
  47              	.LFB0:
   9:timing.c      ****     counter++;
  48              		.loc 1 9 0
  49              		.cfi_startproc
  10:timing.c      **** }
  50              		.loc 1 10 0
  51 0000 024A     		ldr	r2, .L5
  52 0002 1388     		ldrh	r3, [r2]
  53 0004 0133     		add	r3, r3, #1
  54 0006 1380     		strh	r3, [r2]
  11:timing.c      **** /*
  55              		.loc 1 11 0
  56              		@ sp needed
  57 0008 7047     		bx	lr
  58              	.L6:
  59 000a C046     		.align	2
  60              	.L5:
  61 000c 00000000 		.word	.LANCHOR0
  62              		.cfi_endproc
  63              	.LFE0:
  64              		.size	timing_count, .-timing_count
  65              		.section	.text.timing_set_counts,"ax",%progbits
  66              		.align	2
  67              		.global	timing_set_counts
  68              		.code	16
  69              		.thumb_func
  70              		.type	timing_set_counts, %function
  71              	timing_set_counts:
  72              	.LFB2:
  19:timing.c      **** 
  20:timing.c      **** /*
  21:timing.c      **** **设置定时长度,
  22:timing.c      **** */
  23:timing.c      **** void timing_set_counts(Timing_type *pdata, uint16 set_count)
  24:timing.c      **** {   
  73              		.loc 1 24 0
  74              		.cfi_startproc
  75              	.LVL0:
  76 0000 38B5     		push	{r3, r4, r5, lr}
  77              		.cfi_def_cfa_offset 16
  78              		.cfi_offset 3, -16
  79              		.cfi_offset 4, -12
  80              		.cfi_offset 5, -8
  81              		.cfi_offset 14, -4
  82 0002 041C     		mov	r4, r0
  83 0004 0D1C     		mov	r5, r1
  25:timing.c      ****     pdata->old_count = timing_get_count();   
  84              		.loc 1 25 0
  85 0006 FFF7FEFF 		bl	timing_get_count
  86              	.LVL1:
ARM GAS  C:\Users\Administrator\AppData\Local\Temp\ccfmMU5o.s 			page 3


  87 000a 6080     		strh	r0, [r4, #2]
  26:timing.c      ****     pdata->set_count = set_count;    
  88              		.loc 1 26 0
  89 000c A580     		strh	r5, [r4, #4]
  27:timing.c      ****     pdata->count_end = FALSE;
  90              		.loc 1 27 0
  91 000e 0023     		mov	r3, #0
  92 0010 2370     		strb	r3, [r4]
  28:timing.c      **** }
  93              		.loc 1 28 0
  94              		@ sp needed
  95              	.LVL2:
  96 0012 38BD     		pop	{r3, r4, r5, pc}
  97              		.cfi_endproc
  98              	.LFE2:
  99              		.size	timing_set_counts, .-timing_set_counts
 100              		.section	.text.timing_count_end,"ax",%progbits
 101              		.align	2
 102              		.global	timing_count_end
 103              		.code	16
 104              		.thumb_func
 105              		.type	timing_count_end, %function
 106              	timing_count_end:
 107              	.LFB3:
  29:timing.c      **** 
  30:timing.c      **** /*
  31:timing.c      **** **定时时间到
  32:timing.c      **** */
  33:timing.c      **** Bool timing_count_end(Timing_type *pdata)
  34:timing.c      **** {   
 108              		.loc 1 34 0
 109              		.cfi_startproc
 110              	.LVL3:
 111 0000 10B5     		push	{r4, lr}
 112              		.cfi_def_cfa_offset 8
 113              		.cfi_offset 4, -8
 114              		.cfi_offset 14, -4
 115 0002 041C     		mov	r4, r0
  35:timing.c      ****     if ((pdata->count_end) == FALSE)    
 116              		.loc 1 35 0
 117 0004 0378     		ldrb	r3, [r0]
 118 0006 002B     		cmp	r3, #0
 119 0008 08D1     		bne	.L9
  36:timing.c      ****     {        
  37:timing.c      ****         if ((timing_get_count() - (pdata->old_count)) > (pdata->set_count))        
 120              		.loc 1 37 0
 121 000a FFF7FEFF 		bl	timing_get_count
 122              	.LVL4:
 123 000e 6388     		ldrh	r3, [r4, #2]
 124 0010 C01A     		sub	r0, r0, r3
 125 0012 A388     		ldrh	r3, [r4, #4]
 126 0014 9842     		cmp	r0, r3
 127 0016 01DD     		ble	.L9
  38:timing.c      ****         {            
  39:timing.c      ****             pdata->count_end  = TRUE;       
 128              		.loc 1 39 0
 129 0018 0123     		mov	r3, #1
ARM GAS  C:\Users\Administrator\AppData\Local\Temp\ccfmMU5o.s 			page 4


 130 001a 2370     		strb	r3, [r4]
 131              	.L9:
  40:timing.c      ****         }          
  41:timing.c      ****     }   
  42:timing.c      ****     return (pdata->count_end);
 132              		.loc 1 42 0
 133 001c 2078     		ldrb	r0, [r4]
  43:timing.c      **** }
 134              		.loc 1 43 0
 135              		@ sp needed
 136              	.LVL5:
 137 001e 10BD     		pop	{r4, pc}
 138              		.cfi_endproc
 139              	.LFE3:
 140              		.size	timing_count_end, .-timing_count_end
 141              		.bss
 142              		.align	1
 143              		.set	.LANCHOR0,. + 0
 144              		.type	counter, %object
 145              		.size	counter, 2
 146              	counter:
 147 0000 0000     		.space	2
 148              		.text
 149              	.Letext0:
 150              		.file 2 "types.h"
 151              		.file 3 "timing.h"