ARM GAS  C:\Users\Administrator\AppData\Local\Temp\ccWUKul3.s 			page 1


   1              		.cpu cortex-m0plus
   2              		.fpu softvfp
   3              		.eabi_attribute 20, 1
   4              		.eabi_attribute 21, 1
   5              		.eabi_attribute 23, 3
   6              		.eabi_attribute 24, 1
   7              		.eabi_attribute 25, 1
   8              		.eabi_attribute 26, 1
   9              		.eabi_attribute 30, 1
  10              		.eabi_attribute 34, 0
  11              		.eabi_attribute 18, 4
  12              		.code	16
  13              		.file	"A7105_firmware_lib.c"
  14              		.text
  15              	.Ltext0:
  16              		.cfi_sections	.debug_frame
  17              		.section	.text.ByteSend,"ax",%progbits
  18              		.align	2
  19              		.code	16
  20              		.thumb_func
  21              		.type	ByteSend, %function
  22              	ByteSend:
  23              	.LFB8:
  24              		.file 1 "A7105_firmware_lib.c"
   1:A7105_firmware_lib.c **** /*********************************************************************
   2:A7105_firmware_lib.c **** **    Device:    A7105_firmware_lib.c                              
   3:A7105_firmware_lib.c **** **    File:    main.c                                                    
   4:A7105_firmware_lib.c **** **                                                                    
   5:A7105_firmware_lib.c **** **    Description:                                                     
   6:A7105_firmware_lib.c **** **    This file is a sample code for your    reference.                    
   7:A7105_firmware_lib.c **** **                                                                    
   8:A7105_firmware_lib.c **** **    Copyright (C) 2008 AMICCOM Corp.                                
   9:A7105_firmware_lib.c **** **                                                                    
  10:A7105_firmware_lib.c **** *********************************************************************/
  11:A7105_firmware_lib.c **** #include "A7105_firmware_lib.h"
  12:A7105_firmware_lib.c **** 
  13:A7105_firmware_lib.c **** /*********************************************************************
  14:A7105_firmware_lib.c **** ** RF ID code
  15:A7105_firmware_lib.c **** *********************************************************************/
  16:A7105_firmware_lib.c **** const uint8 ID_Tab[4] =
  17:A7105_firmware_lib.c **** {
  18:A7105_firmware_lib.c ****     0x54, 0x75, 0xC5, 0x2A
  19:A7105_firmware_lib.c **** };
  20:A7105_firmware_lib.c **** 
  21:A7105_firmware_lib.c **** /*********************************************************************
  22:A7105_firmware_lib.c **** **                                     NOTE                                     
  23:A7105_firmware_lib.c **** **          THIS CONFIG TABLE    ONLY USE ON    RF CRYSTAL = 16MHz                 
  24:A7105_firmware_lib.c **** *********************************************************************/
  25:A7105_firmware_lib.c **** const uint8 parameters_Config[REG_NUMBER] =
  26:A7105_firmware_lib.c **** {
  27:A7105_firmware_lib.c ****     //    value  address    name                    note
  28:A7105_firmware_lib.c ****     //    ----     ----    ----                    ----
  29:A7105_firmware_lib.c ****     0x00, // 0x00    RESET register,            //写零复位,不用初始化            
  30:A7105_firmware_lib.c ****     //各种状态标志,FEC校验,CRC校验 ,芯片使能, 内部晶振使能, 锁相环使能, TRX使能, 收/发标志
  31:A7105_firmware_lib.c ****     0x62, // 0x01    MODE register,        FIFO模式,进入RX模式后(自动检测RSSI, RF本地晶振会自动偏移
  32:A7105_firmware_lib.c ****     0x00, // 0x02    CALIBRATION    register,    only read, not use on config
  33:A7105_firmware_lib.c ****     0x3F, // 0x03    FIFO1 register,           //64KB   FIFO内部缓存
ARM GAS  C:\Users\Administrator\AppData\Local\Temp\ccWUKul3.s 			page 2


  34:A7105_firmware_lib.c ****     0x00, // 0x04    FIFO2 register,          //用easy FIFO, 不使用segment FIFO
  35:A7105_firmware_lib.c ****     0x00, // 0x05    FIFO register,            //不用初始化,用于队列的读写,顺序都是BYTE0 -> BYTE7
  36:A7105_firmware_lib.c ****     0x00, // 0x06    IDDATA register,        //不用初始化,用于向芯片写/读ID号,顺序byte 0 -> byte3
  37:A7105_firmware_lib.c ****     0x00, // 0x07    RCOSC1 register,       //保留内部使用
  38:A7105_firmware_lib.c ****     0x00, // 0x08    RCOSC2 register,       //保留内部使用
  39:A7105_firmware_lib.c ****     0x00, // 0x09    RCOSC3 register,       //BBCKS1 BBCKS0, 建议设置为[00]  , 内部数字线路的频率选
  40:A7105_firmware_lib.c ****     0x00, // 0x0A    CKO    register,         //CKO管脚时钟输出功能
  41:A7105_firmware_lib.c ****     0x01, // 0x0B    GIO1 register            //GIO1脚设为WTR功能,使能GIO1脚的输出
  42:A7105_firmware_lib.c ****     0x01, // 0x0C    GIO2 register            //GIO2脚设为WTR功能,使能GIO2脚的输出
  43:A7105_firmware_lib.c ****     0x05, // 0x0D    CLOCK register,         //外部时钟源,晶振时钟源,Fsyck = Fmclk / 2
  44:A7105_firmware_lib.c ****     0x00, // 0x0E    DATARATE register,        //数据传输速率设置
  45:A7105_firmware_lib.c ****     0x50, // 0x0F    PLL1 register,                 //频率设定= 基频 + 频道间距*频道号
  46:A7105_firmware_lib.c ****     0x9E, // 0x10    PLL2 register,                 //
  47:A7105_firmware_lib.c ****     0x4B, // 0x11    PLL3 register,                 //推荐值,LO 基频整数部分设置
  48:A7105_firmware_lib.c ****     0x00, // 0x12    PLL4 register,                 //频率补偿,支持第精度的石英振荡器
  49:A7105_firmware_lib.c ****     0x02, // 0x13    PLL5 register,                 //频率补偿,读取计算频率漂移,重新设定频率
  50:A7105_firmware_lib.c ****     0x16, // 0x14    TX1    register,               //频率偏差、调制选择、滤波使能
  51:A7105_firmware_lib.c ****     0x2B, // 0x15    TX2    register,                //
  52:A7105_firmware_lib.c ****     0x12, // 0x16    DELAY1 register,             //一些时钟延时设置
  53:A7105_firmware_lib.c ****     0x00, // 0x17    DELAY2 register,                //
  54:A7105_firmware_lib.c ****     0x62, // 0x18    RX register,                       // AIF使能启用自动中频(调制后的频率)偏移,UL
  55:A7105_firmware_lib.c ****     0x80, // 0x19    RXGAIN1    register,           //
  56:A7105_firmware_lib.c ****     0x80, // 0x1A    RXGAIN2    register,           保留内部使用
  57:A7105_firmware_lib.c ****     0x00, // 0x1B    RXGAIN3    register,           保留内部使用
  58:A7105_firmware_lib.c ****     0x0A, // 0x1C    RXGAIN4    register,           保留内部使用,必须设置0x0A
  59:A7105_firmware_lib.c ****     0x32, // 0x1D    RSSI register,                     //载波侦测CD阈值设置,当前频道是否忙碌
  60:A7105_firmware_lib.c ****     0xC3, // 0x1E    ADC    register,                   //接收信号强度RSSI检测
  61:A7105_firmware_lib.c ****     0x07, // 0x1F    CODE1 register,                  //CRC校验,(7,4)海明码编码,PN7数据加密,    FIF
  62:A7105_firmware_lib.c ****     0x16, // 0x20    CODE2 register,                  //FIFO发送相关,ID, preamble检测
  63:A7105_firmware_lib.c ****     0x00, // 0x21    CODE3 register,                  //FIFO发送相关,数据加密种子设置
  64:A7105_firmware_lib.c ****     0x00, // 0x22    IFCAL1 register,                  //IF filter校正相关
  65:A7105_firmware_lib.c ****     0x00, // 0x23    IFCAL2 register,                  only read,  IF filter calibration deviation
  66:A7105_firmware_lib.c ****     0x00, // 0x24    VCOCCAL    register,           //VCO current校正     
  67:A7105_firmware_lib.c ****     0x00, // 0x25    VCOCAL1    register,           //VCO bank校正
  68:A7105_firmware_lib.c ****     0x3B, // 0x26    VCOCAL2    register,           //VCO bank校正
  69:A7105_firmware_lib.c ****     0x00, // 0x27    BATTERY    register,           //电压检测相关
  70:A7105_firmware_lib.c ****     0x17, // 0x28    TXTEST register,                //发送信号增益和电流值设置
  71:A7105_firmware_lib.c ****     0x47, // 0x29    RXDEM1 register,              //preamble后面8位数据的电流平均值
  72:A7105_firmware_lib.c ****     0x80, // 0x2A    RXDEM2 register,              //测试用,解调器修复模式直流电流值设定
  73:A7105_firmware_lib.c ****     0x03, // 0x2B    CPC    register,                 //PLL电荷泵设置
  74:A7105_firmware_lib.c ****     0x01, // 0x2C    CRYSTAL    register,          //内部保留,必须设置为0x01
  75:A7105_firmware_lib.c ****     0x45, // 0x2D    PLLTEST    register,          //内部保留,必须设置为0x45
  76:A7105_firmware_lib.c ****     0x18, // 0x2E    VCOTEST1 register,          //内部保留,必须设置为0x18
  77:A7105_firmware_lib.c ****     0x00, // 0x2F    VCOTEST2 register,          //内部保留,必须设置为0x00
  78:A7105_firmware_lib.c ****     0x01, // 0x30    IFAT register,                  //内部保留,必须设置为0x01
  79:A7105_firmware_lib.c ****     0x0F, // 0x31    RSCALE register,             //内部保留,必须设置为0x0F
  80:A7105_firmware_lib.c ****     0x00, // 0x32    FILTERTEST                   //内部保留,必须设置为0x00
  81:A7105_firmware_lib.c **** };
  82:A7105_firmware_lib.c **** /*从1ms中断中读取wtr的状态*/
  83:A7105_firmware_lib.c **** Bool A7105_wtr_status = FALSE;
  84:A7105_firmware_lib.c **** 
  85:A7105_firmware_lib.c **** /*********************************************************************
  86:A7105_firmware_lib.c **** **    static function Declaration
  87:A7105_firmware_lib.c **** *********************************************************************/
  88:A7105_firmware_lib.c **** static uint8 ByteRead(void);
  89:A7105_firmware_lib.c **** static void ByteSend(uint8 data);
  90:A7105_firmware_lib.c **** static inline void Wait_Bit_n_clear(uint8 reg_data, uint8 nbit);
ARM GAS  C:\Users\Administrator\AppData\Local\Temp\ccWUKul3.s 			page 3


  91:A7105_firmware_lib.c **** static inline void SelVCOBand(uint8 vb1, uint8 vb2);
  92:A7105_firmware_lib.c **** static inline void Error_State(void);
  93:A7105_firmware_lib.c **** 
  94:A7105_firmware_lib.c **** /************************************************************************
  95:A7105_firmware_lib.c **** **    A7105_WriteReg
  96:A7105_firmware_lib.c **** ************************************************************************/
  97:A7105_firmware_lib.c **** void A7105_WriteReg(A7105_REG addr,    uint8 dataByte)
  98:A7105_firmware_lib.c **** {
  99:A7105_firmware_lib.c ****     SCS_PIN_LOW();
 100:A7105_firmware_lib.c **** 
 101:A7105_firmware_lib.c ****     addr |= 0x00; //bit cmd=0,r/w=0寄存器命令, 写
 102:A7105_firmware_lib.c **** 
 103:A7105_firmware_lib.c ****     ByteSend(addr);
 104:A7105_firmware_lib.c **** 
 105:A7105_firmware_lib.c ****     A7105_NOP();
 106:A7105_firmware_lib.c ****     ByteSend(dataByte);
 107:A7105_firmware_lib.c ****     
 108:A7105_firmware_lib.c ****     SCS_PIN_HIGH();
 109:A7105_firmware_lib.c **** }
 110:A7105_firmware_lib.c **** 
 111:A7105_firmware_lib.c **** /************************************************************************
 112:A7105_firmware_lib.c **** **    A7105_ReadReg
 113:A7105_firmware_lib.c **** ************************************************************************/
 114:A7105_firmware_lib.c **** uint8 A7105_ReadReg(uint8 addr)
 115:A7105_firmware_lib.c **** {
 116:A7105_firmware_lib.c ****     uint8 tmp;
 117:A7105_firmware_lib.c **** 
 118:A7105_firmware_lib.c ****     SCS_PIN_LOW();
 119:A7105_firmware_lib.c **** 
 120:A7105_firmware_lib.c ****     addr |= 0x40; //bit cmd=0,r/w=1寄存器命令,读
 121:A7105_firmware_lib.c ****     ByteSend(addr);
 122:A7105_firmware_lib.c ****     A7105_NOP();
 123:A7105_firmware_lib.c ****     //read data
 124:A7105_firmware_lib.c ****     tmp = ByteRead();
 125:A7105_firmware_lib.c ****     
 126:A7105_firmware_lib.c ****     SCS_PIN_HIGH();
 127:A7105_firmware_lib.c ****     return tmp;
 128:A7105_firmware_lib.c **** }
 129:A7105_firmware_lib.c **** 
 130:A7105_firmware_lib.c **** /*********************************************************************
 131:A7105_firmware_lib.c **** ** Strobe Command
 132:A7105_firmware_lib.c **** *********************************************************************/
 133:A7105_firmware_lib.c **** void StrobeCmd(A7105_CMD cmd)
 134:A7105_firmware_lib.c **** {
 135:A7105_firmware_lib.c ****     SCS_PIN_LOW();
 136:A7105_firmware_lib.c ****     
 137:A7105_firmware_lib.c ****     ByteSend(cmd);
 138:A7105_firmware_lib.c ****     
 139:A7105_firmware_lib.c ****     SCS_PIN_HIGH();
 140:A7105_firmware_lib.c **** }
 141:A7105_firmware_lib.c **** 
 142:A7105_firmware_lib.c **** /************************************************************************
 143:A7105_firmware_lib.c **** **    WriteID
 144:A7105_firmware_lib.c **** ************************************************************************/
 145:A7105_firmware_lib.c **** void A7105_WriteID(void)
 146:A7105_firmware_lib.c **** {
 147:A7105_firmware_lib.c ****     uint8 i;
ARM GAS  C:\Users\Administrator\AppData\Local\Temp\ccWUKul3.s 			page 4


 148:A7105_firmware_lib.c ****     uint8 addr;
 149:A7105_firmware_lib.c ****     
 150:A7105_firmware_lib.c ****     //send address 0x06, bit cmd=0, r/w=0
 151:A7105_firmware_lib.c ****     addr = IDCODE_REG; 
 152:A7105_firmware_lib.c ****     SCS_PIN_LOW();
 153:A7105_firmware_lib.c ****     ByteSend(addr);
 154:A7105_firmware_lib.c ****     for (i=0; i < 4; i++)
 155:A7105_firmware_lib.c ****         ByteSend(ID_Tab[i]);
 156:A7105_firmware_lib.c ****     SCS_PIN_HIGH();
 157:A7105_firmware_lib.c **** }
 158:A7105_firmware_lib.c **** 
 159:A7105_firmware_lib.c **** /************************************************************************
 160:A7105_firmware_lib.c **** **    Reset_RF
 161:A7105_firmware_lib.c **** ************************************************************************/
 162:A7105_firmware_lib.c **** void A7105_Reset(void)
 163:A7105_firmware_lib.c **** {
 164:A7105_firmware_lib.c ****     //reset    RF chip
 165:A7105_firmware_lib.c ****     A7105_WriteReg(MODE_REG, 0x00);    
 166:A7105_firmware_lib.c **** }
 167:A7105_firmware_lib.c **** 
 168:A7105_firmware_lib.c **** /*********************************************************************
 169:A7105_firmware_lib.c **** ** A7105_Config
 170:A7105_firmware_lib.c **** *********************************************************************/
 171:A7105_firmware_lib.c **** void A7105_Config(void)
 172:A7105_firmware_lib.c **** {
 173:A7105_firmware_lib.c ****     uint8 i;
 174:A7105_firmware_lib.c ****     //0x00 mode    register, for reset
 175:A7105_firmware_lib.c ****     //0x05 fifo    data register
 176:A7105_firmware_lib.c ****     //0x06 id code register
 177:A7105_firmware_lib.c ****     //0x23 IF calibration II, only read
 178:A7105_firmware_lib.c ****     //0x32 filter test register
 179:A7105_firmware_lib.c **** 
 180:A7105_firmware_lib.c ****     //下面对各寄存器作初始化FIFO模式,四线SPI
 181:A7105_firmware_lib.c ****     //部分不需要初始化的跳过
 182:A7105_firmware_lib.c ****     for (i=0x01; i<=0x04; i++)
 183:A7105_firmware_lib.c ****         A7105_WriteReg(i, parameters_Config[i]);
 184:A7105_firmware_lib.c **** 
 185:A7105_firmware_lib.c ****     for (i=0x07; i<=0x22; i++)
 186:A7105_firmware_lib.c ****         A7105_WriteReg(i, parameters_Config[i]);
 187:A7105_firmware_lib.c **** 
 188:A7105_firmware_lib.c ****     for (i=0x24; i<=0x31; i++)
 189:A7105_firmware_lib.c ****         A7105_WriteReg(i, parameters_Config[i]);
 190:A7105_firmware_lib.c ****     
 191:A7105_firmware_lib.c **** }
 192:A7105_firmware_lib.c **** 
 193:A7105_firmware_lib.c **** 
 194:A7105_firmware_lib.c **** /*********************************************************************
 195:A7105_firmware_lib.c **** ** SelVCOBand
 196:A7105_firmware_lib.c **** *********************************************************************/
 197:A7105_firmware_lib.c **** void SelVCOBand(uint8 vb1, uint8 vb2)
 198:A7105_firmware_lib.c **** {
 199:A7105_firmware_lib.c ****     uint8 diff1,diff2;
 200:A7105_firmware_lib.c **** 
 201:A7105_firmware_lib.c ****     if (vb1>=4)
 202:A7105_firmware_lib.c ****         diff1 = vb1-4;
 203:A7105_firmware_lib.c ****     else
 204:A7105_firmware_lib.c ****         diff1 = 4-vb1;
ARM GAS  C:\Users\Administrator\AppData\Local\Temp\ccWUKul3.s 			page 5


 205:A7105_firmware_lib.c **** 
 206:A7105_firmware_lib.c ****     if (vb2>=4)
 207:A7105_firmware_lib.c ****         diff2 = vb2-4;
 208:A7105_firmware_lib.c ****     else
 209:A7105_firmware_lib.c ****         diff2 = 4-vb2;
 210:A7105_firmware_lib.c **** 
 211:A7105_firmware_lib.c ****     if (diff1 == diff2 || diff1 > diff2)
 212:A7105_firmware_lib.c ****         A7105_WriteReg(VCOCAL1_REG, (vb1 | 0x08));//manual setting vb1 value
 213:A7105_firmware_lib.c ****     else
 214:A7105_firmware_lib.c ****         A7105_WriteReg(VCOCAL1_REG, (vb2 | 0x08));//manual setting vb2 value
 215:A7105_firmware_lib.c **** }
 216:A7105_firmware_lib.c **** 
 217:A7105_firmware_lib.c **** /*********************************************************************
 218:A7105_firmware_lib.c **** ** calibration
 219:A7105_firmware_lib.c **** *********************************************************************/
 220:A7105_firmware_lib.c **** void A7105_Calibration(void)
 221:A7105_firmware_lib.c **** {
 222:A7105_firmware_lib.c ****     uint8 tmp;
 223:A7105_firmware_lib.c ****     uint8 fbcf;
 224:A7105_firmware_lib.c ****     uint8 vb1,vbcf1;
 225:A7105_firmware_lib.c ****     uint8 vb2,vbcf2;
 226:A7105_firmware_lib.c **** 
 227:A7105_firmware_lib.c ****     StrobeCmd(CMD_STBY); //calibration @STB    state
 228:A7105_firmware_lib.c **** 
 229:A7105_firmware_lib.c ****     //calibration IF procedure
 230:A7105_firmware_lib.c ****     A7105_WriteReg(CALIBRATION_REG, 0x01);   
 231:A7105_firmware_lib.c ****     Wait_Bit_n_clear(CALIBRATION_REG, 0x01);
 232:A7105_firmware_lib.c **** 
 233:A7105_firmware_lib.c ****     //for check
 234:A7105_firmware_lib.c ****     tmp = A7105_ReadReg(IFCAL1_REG);
 235:A7105_firmware_lib.c ****     //fb = tmp & 0x0F;   //读寄存器,得AFB的值
 236:A7105_firmware_lib.c ****     
 237:A7105_firmware_lib.c ****     fbcf = (tmp >> 4) & 0x01;   //取得FBCF位
 238:A7105_firmware_lib.c **** 
 239:A7105_firmware_lib.c ****     if (fbcf == SET)
 240:A7105_firmware_lib.c ****     {
 241:A7105_firmware_lib.c ****         Error_State();
 242:A7105_firmware_lib.c ****     }
 243:A7105_firmware_lib.c **** 
 244:A7105_firmware_lib.c ****     //calibration vcoc procedure
 245:A7105_firmware_lib.c ****     A7105_WriteReg(VCOCCAL_REG, 0x13);    //manual    VCOC=3
 246:A7105_firmware_lib.c ****     
 247:A7105_firmware_lib.c **** 
 248:A7105_firmware_lib.c ****     //CALIBRATIOIN VCOB procedure
 249:A7105_firmware_lib.c ****     A7105_WriteReg(VCOCAL2_REG, 0x3B);    //VTL=3,    VTH=7   设置上/下位门坎电压
 250:A7105_firmware_lib.c ****     //在这个频率下进行VCOB校正
 251:A7105_firmware_lib.c ****     A7105_WriteReg(PLL1_REG, 0);        //setting 2400MHz                F_offset = 0M hz
 252:A7105_firmware_lib.c ****     A7105_WriteReg(CALIBRATION_REG, 0x02);   //选择校正VCOB
 253:A7105_firmware_lib.c ****     Wait_Bit_n_clear(CALIBRATION_REG, 0x02);    //等待VCOB校正完毕
 254:A7105_firmware_lib.c **** 
 255:A7105_firmware_lib.c ****     //这个是VCOB的校验结果
 256:A7105_firmware_lib.c ****     tmp = A7105_ReadReg(VCOCAL1_REG);
 257:A7105_firmware_lib.c ****     vb1 = tmp & 0x07;    //自动校正的数值
 258:A7105_firmware_lib.c ****     vbcf1 = (tmp >> 3) & 0x01;    //校正是否成功
 259:A7105_firmware_lib.c ****     //dvt1 = (tmp >> 4) & 0x03;   //digital VCO tuning voltage output
 260:A7105_firmware_lib.c **** 
 261:A7105_firmware_lib.c ****     //换个频率进行VCOC校正
ARM GAS  C:\Users\Administrator\AppData\Local\Temp\ccWUKul3.s 			page 6


 262:A7105_firmware_lib.c ****     A7105_WriteReg(PLL1_REG, 160); //setting 2480MHz     160 * 500K = 80M
 263:A7105_firmware_lib.c ****     A7105_WriteReg(CALIBRATION_REG, 0x02);
 264:A7105_firmware_lib.c ****     Wait_Bit_n_clear(CALIBRATION_REG, 0x02);
 265:A7105_firmware_lib.c **** 
 266:A7105_firmware_lib.c ****     tmp = A7105_ReadReg(VCOCAL1_REG);
 267:A7105_firmware_lib.c ****     vb2 = tmp & 0x07;
 268:A7105_firmware_lib.c ****     vbcf2 = (tmp >> 3) & 0x01;
 269:A7105_firmware_lib.c ****     //dvt2 = (tmp >> 4) & 0x03;
 270:A7105_firmware_lib.c **** 
 271:A7105_firmware_lib.c ****     SelVCOBand(vb1, vb2);
 272:A7105_firmware_lib.c **** 
 273:A7105_firmware_lib.c ****     if (vbcf1 == SET && vbcf2 == SET)   //若两次都失败
 274:A7105_firmware_lib.c ****     {
 275:A7105_firmware_lib.c ****         Error_State();
 276:A7105_firmware_lib.c ****         while(1);
 277:A7105_firmware_lib.c ****     }
 278:A7105_firmware_lib.c **** }
 279:A7105_firmware_lib.c **** 
 280:A7105_firmware_lib.c **** 
 281:A7105_firmware_lib.c **** /************************************************************************
 282:A7105_firmware_lib.c **** **    ByteSend
 283:A7105_firmware_lib.c **** ************************************************************************/
 284:A7105_firmware_lib.c **** static void ByteSend(uint8 data)
 285:A7105_firmware_lib.c **** {
  25              		.loc 1 285 0
  26              		.cfi_startproc
  27              	.LVL0:
  28 0000 38B5     		push	{r3, r4, r5, lr}
  29              		.cfi_def_cfa_offset 16
  30              		.cfi_offset 3, -16
  31              		.cfi_offset 4, -12
  32              		.cfi_offset 5, -8
  33              		.cfi_offset 14, -4
  34 0002 051C     		mov	r5, r0
  35              	.LVL1:
 286:A7105_firmware_lib.c ****     uint8 i;
 287:A7105_firmware_lib.c **** 
 288:A7105_firmware_lib.c ****     for(i = 0; i < 8; i++)
  36              		.loc 1 288 0
  37 0004 0024     		mov	r4, #0
  38 0006 15E0     		b	.L2
  39              	.LVL2:
  40              	.L5:
 289:A7105_firmware_lib.c ****     {
 290:A7105_firmware_lib.c ****         //先发送数据的最高有效位
 291:A7105_firmware_lib.c ****         if(data & 0x80)                 
  41              		.loc 1 291 0
  42 0008 6BB2     		sxtb	r3, r5
  43 000a 002B     		cmp	r3, #0
  44 000c 03DA     		bge	.L3
 292:A7105_firmware_lib.c ****             SDIO_PIN_HIGH();
  45              		.loc 1 292 0
  46 000e 0120     		mov	r0, #1
  47 0010 FFF7FEFF 		bl	SDIO_Write
  48              	.LVL3:
  49 0014 02E0     		b	.L4
  50              	.L3:
ARM GAS  C:\Users\Administrator\AppData\Local\Temp\ccWUKul3.s 			page 7


 293:A7105_firmware_lib.c ****         else
 294:A7105_firmware_lib.c ****             SDIO_PIN_LOW();
  51              		.loc 1 294 0
  52 0016 0020     		mov	r0, #0
  53 0018 FFF7FEFF 		bl	SDIO_Write
  54              	.LVL4:
  55              	.L4:
 295:A7105_firmware_lib.c **** 
 296:A7105_firmware_lib.c ****         A7105_NOP();
  56              		.loc 1 296 0 discriminator 2
  57              	@ 296 "A7105_firmware_lib.c" 1
  58 001c C046     		nop
  59              	@ 0 "" 2
 297:A7105_firmware_lib.c ****         SCK_PIN_HIGH();
  60              		.loc 1 297 0 discriminator 2
  61              		.code	16
  62 001e 0120     		mov	r0, #1
  63 0020 FFF7FEFF 		bl	SCK_Write
  64              	.LVL5:
 298:A7105_firmware_lib.c ****         A7105_NOP();
  65              		.loc 1 298 0 discriminator 2
  66              	@ 298 "A7105_firmware_lib.c" 1
  67 0024 C046     		nop
  68              	@ 0 "" 2
 299:A7105_firmware_lib.c ****         SCK_PIN_LOW();
  69              		.loc 1 299 0 discriminator 2
  70              		.code	16
  71 0026 0020     		mov	r0, #0
  72 0028 FFF7FEFF 		bl	SCK_Write
  73              	.LVL6:
 300:A7105_firmware_lib.c ****         data = data << 1;
  74              		.loc 1 300 0 discriminator 2
  75 002c 6D00     		lsl	r5, r5, #1
  76              	.LVL7:
  77 002e EDB2     		uxtb	r5, r5
  78              	.LVL8:
 288:A7105_firmware_lib.c ****     {
  79              		.loc 1 288 0 discriminator 2
  80 0030 0134     		add	r4, r4, #1
  81              	.LVL9:
  82 0032 E4B2     		uxtb	r4, r4
  83              	.LVL10:
  84              	.L2:
 288:A7105_firmware_lib.c ****     {
  85              		.loc 1 288 0 is_stmt 0 discriminator 1
  86 0034 072C     		cmp	r4, #7
  87 0036 E7D9     		bls	.L5
 301:A7105_firmware_lib.c ****     }
 302:A7105_firmware_lib.c **** }
  88              		.loc 1 302 0 is_stmt 1
  89              		@ sp needed
  90              	.LVL11:
  91              	.LVL12:
  92 0038 38BD     		pop	{r3, r4, r5, pc}
  93              		.cfi_endproc
  94              	.LFE8:
  95              		.size	ByteSend, .-ByteSend
ARM GAS  C:\Users\Administrator\AppData\Local\Temp\ccWUKul3.s 			page 8


  96 003a C046     		.section	.text.ByteRead,"ax",%progbits
  97              		.align	2
  98              		.code	16
  99              		.thumb_func
 100              		.type	ByteRead, %function
 101              	ByteRead:
 102              	.LFB10:
 303:A7105_firmware_lib.c **** //**********************************************************************
 304:A7105_firmware_lib.c **** //    WriteFIFO
 305:A7105_firmware_lib.c **** //**********************************************************************
 306:A7105_firmware_lib.c **** void WriteFIFO(uint8 length, uint8 pbuf[])
 307:A7105_firmware_lib.c **** {
 308:A7105_firmware_lib.c ****     uint8 i;
 309:A7105_firmware_lib.c ****     
 310:A7105_firmware_lib.c ****     A7105_WriteReg( FIFO1_REG, length-1);    // set FIFO length
 311:A7105_firmware_lib.c ****     
 312:A7105_firmware_lib.c ****     SCS_PIN_LOW();
 313:A7105_firmware_lib.c ****     ByteSend(FIFO_REG);  //写0x05h这个地址的data_register
 314:A7105_firmware_lib.c ****     for(i=0; i <length; i++)
 315:A7105_firmware_lib.c ****         ByteSend(pbuf[i]);
 316:A7105_firmware_lib.c ****     SCS_PIN_HIGH();
 317:A7105_firmware_lib.c **** }
 318:A7105_firmware_lib.c **** 
 319:A7105_firmware_lib.c **** //**********************************************************************
 320:A7105_firmware_lib.c **** //    ByteRead
 321:A7105_firmware_lib.c **** //**********************************************************************
 322:A7105_firmware_lib.c **** static uint8 ByteRead(void)
 323:A7105_firmware_lib.c **** {
 103              		.loc 1 323 0
 104              		.cfi_startproc
 105 0000 38B5     		push	{r3, r4, r5, lr}
 106              		.cfi_def_cfa_offset 16
 107              		.cfi_offset 3, -16
 108              		.cfi_offset 4, -12
 109              		.cfi_offset 5, -8
 110              		.cfi_offset 14, -4
 111              	.LVL13:
 324:A7105_firmware_lib.c ****     uint8 i,tmp = 0;
 325:A7105_firmware_lib.c ****     
 326:A7105_firmware_lib.c ****     SDIO_PIN_HIGH(); //sdio pull high
 112              		.loc 1 326 0
 113 0002 0120     		mov	r0, #1
 114 0004 FFF7FEFF 		bl	SDIO_Write
 115              	.LVL14:
 327:A7105_firmware_lib.c **** 
 328:A7105_firmware_lib.c ****     SDIO_DDR_IN();
 116              		.loc 1 328 0
 117              	@ 328 "A7105_firmware_lib.c" 1
 118 0008 C046     		nop
 119              	@ 0 "" 2
 120              	.LVL15:
 324:A7105_firmware_lib.c ****     uint8 i,tmp = 0;
 121              		.loc 1 324 0
 122              		.code	16
 123 000a 0025     		mov	r5, #0
 329:A7105_firmware_lib.c **** 
 330:A7105_firmware_lib.c ****     
ARM GAS  C:\Users\Administrator\AppData\Local\Temp\ccWUKul3.s 			page 9


 331:A7105_firmware_lib.c ****     for(i = 0; i < 8; i++)
 124              		.loc 1 331 0
 125 000c 0024     		mov	r4, #0
 126 000e 13E0     		b	.L7
 127              	.LVL16:
 128              	.L10:
 332:A7105_firmware_lib.c ****     {
 333:A7105_firmware_lib.c ****         if(SDIO_IN())    
 129              		.loc 1 333 0
 130 0010 FFF7FEFF 		bl	SDIO_Read
 131              	.LVL17:
 132 0014 0028     		cmp	r0, #0
 133 0016 04D0     		beq	.L8
 334:A7105_firmware_lib.c ****             tmp = (tmp << 1) | 0x01;
 134              		.loc 1 334 0
 135 0018 6D00     		lsl	r5, r5, #1
 136              	.LVL18:
 137 001a 0123     		mov	r3, #1
 138 001c 1D43     		orr	r5, r3
 139 001e EDB2     		uxtb	r5, r5
 140              	.LVL19:
 141 0020 01E0     		b	.L9
 142              	.L8:
 335:A7105_firmware_lib.c ****         else
 336:A7105_firmware_lib.c ****             tmp = tmp << 1;
 143              		.loc 1 336 0
 144 0022 6D00     		lsl	r5, r5, #1
 145              	.LVL20:
 146 0024 EDB2     		uxtb	r5, r5
 147              	.LVL21:
 148              	.L9:
 337:A7105_firmware_lib.c ****             
 338:A7105_firmware_lib.c ****         SCK_PIN_HIGH();//上升沿读取数据
 149              		.loc 1 338 0 discriminator 2
 150 0026 0120     		mov	r0, #1
 151 0028 FFF7FEFF 		bl	SCK_Write
 152              	.LVL22:
 339:A7105_firmware_lib.c ****         A7105_NOP();
 153              		.loc 1 339 0 discriminator 2
 154              	@ 339 "A7105_firmware_lib.c" 1
 155 002c C046     		nop
 156              	@ 0 "" 2
 340:A7105_firmware_lib.c ****         SCK_PIN_LOW();//RF IC会在SCK下降沿,将数据放到SDIO
 157              		.loc 1 340 0 discriminator 2
 158              		.code	16
 159 002e 0020     		mov	r0, #0
 160 0030 FFF7FEFF 		bl	SCK_Write
 161              	.LVL23:
 331:A7105_firmware_lib.c ****     {
 162              		.loc 1 331 0 discriminator 2
 163 0034 0134     		add	r4, r4, #1
 164              	.LVL24:
 165 0036 E4B2     		uxtb	r4, r4
 166              	.LVL25:
 167              	.L7:
 331:A7105_firmware_lib.c ****     {
 168              		.loc 1 331 0 is_stmt 0 discriminator 1
ARM GAS  C:\Users\Administrator\AppData\Local\Temp\ccWUKul3.s 			page 10


 169 0038 072C     		cmp	r4, #7
 170 003a E9D9     		bls	.L10
 341:A7105_firmware_lib.c ****     }
 342:A7105_firmware_lib.c ****     SDIO_DDR_OUT();
 171              		.loc 1 342 0 is_stmt 1
 172              	@ 342 "A7105_firmware_lib.c" 1
 173 003c C046     		nop
 174              	@ 0 "" 2
 343:A7105_firmware_lib.c ****         
 344:A7105_firmware_lib.c ****     SDIO_PIN_LOW();
 175              		.loc 1 344 0
 176              		.code	16
 177 003e 0020     		mov	r0, #0
 178 0040 FFF7FEFF 		bl	SDIO_Write
 179              	.LVL26:
 345:A7105_firmware_lib.c ****     return tmp;
 346:A7105_firmware_lib.c **** }
 180              		.loc 1 346 0
 181 0044 281C     		mov	r0, r5
 182              		@ sp needed
 183              	.LVL27:
 184              	.LVL28:
 185 0046 38BD     		pop	{r3, r4, r5, pc}
 186              		.cfi_endproc
 187              	.LFE10:
 188              		.size	ByteRead, .-ByteRead
 189              		.section	.text.A7105_WriteReg,"ax",%progbits
 190              		.align	2
 191              		.global	A7105_WriteReg
 192              		.code	16
 193              		.thumb_func
 194              		.type	A7105_WriteReg, %function
 195              	A7105_WriteReg:
 196              	.LFB0:
  98:A7105_firmware_lib.c ****     SCS_PIN_LOW();
 197              		.loc 1 98 0
 198              		.cfi_startproc
 199              	.LVL29:
 200 0000 38B5     		push	{r3, r4, r5, lr}
 201              		.cfi_def_cfa_offset 16
 202              		.cfi_offset 3, -16
 203              		.cfi_offset 4, -12
 204              		.cfi_offset 5, -8
 205              		.cfi_offset 14, -4
 206 0002 051C     		mov	r5, r0
 207 0004 0C1C     		mov	r4, r1
  99:A7105_firmware_lib.c **** 
 208              		.loc 1 99 0
 209 0006 0020     		mov	r0, #0
 210              	.LVL30:
 211 0008 FFF7FEFF 		bl	SCS_Write
 212              	.LVL31:
 103:A7105_firmware_lib.c **** 
 213              		.loc 1 103 0
 214 000c 281C     		mov	r0, r5
 215 000e FFF7FEFF 		bl	ByteSend
 216              	.LVL32:
ARM GAS  C:\Users\Administrator\AppData\Local\Temp\ccWUKul3.s 			page 11


 105:A7105_firmware_lib.c ****     ByteSend(dataByte);
 217              		.loc 1 105 0
 218              	@ 105 "A7105_firmware_lib.c" 1
 219 0012 C046     		nop
 220              	@ 0 "" 2
 106:A7105_firmware_lib.c ****     
 221              		.loc 1 106 0
 222              		.code	16
 223 0014 201C     		mov	r0, r4
 224 0016 FFF7FEFF 		bl	ByteSend
 225              	.LVL33:
 108:A7105_firmware_lib.c **** }
 226              		.loc 1 108 0
 227 001a 0120     		mov	r0, #1
 228 001c FFF7FEFF 		bl	SCS_Write
 229              	.LVL34:
 109:A7105_firmware_lib.c **** 
 230              		.loc 1 109 0
 231              		@ sp needed
 232              	.LVL35:
 233 0020 38BD     		pop	{r3, r4, r5, pc}
 234              		.cfi_endproc
 235              	.LFE0:
 236              		.size	A7105_WriteReg, .-A7105_WriteReg
 237 0022 C046     		.section	.text.A7105_ReadReg,"ax",%progbits
 238              		.align	2
 239              		.global	A7105_ReadReg
 240              		.code	16
 241              		.thumb_func
 242              		.type	A7105_ReadReg, %function
 243              	A7105_ReadReg:
 244              	.LFB1:
 115:A7105_firmware_lib.c ****     uint8 tmp;
 245              		.loc 1 115 0
 246              		.cfi_startproc
 247              	.LVL36:
 248 0000 10B5     		push	{r4, lr}
 249              		.cfi_def_cfa_offset 8
 250              		.cfi_offset 4, -8
 251              		.cfi_offset 14, -4
 252 0002 041C     		mov	r4, r0
 118:A7105_firmware_lib.c **** 
 253              		.loc 1 118 0
 254 0004 0020     		mov	r0, #0
 255              	.LVL37:
 256 0006 FFF7FEFF 		bl	SCS_Write
 257              	.LVL38:
 120:A7105_firmware_lib.c ****     ByteSend(addr);
 258              		.loc 1 120 0
 259 000a 4020     		mov	r0, #64
 260 000c 2043     		orr	r0, r4
 261              	.LVL39:
 121:A7105_firmware_lib.c ****     A7105_NOP();
 262              		.loc 1 121 0
 263 000e FFF7FEFF 		bl	ByteSend
 264              	.LVL40:
 122:A7105_firmware_lib.c ****     //read data
ARM GAS  C:\Users\Administrator\AppData\Local\Temp\ccWUKul3.s 			page 12


 265              		.loc 1 122 0
 266              	@ 122 "A7105_firmware_lib.c" 1
 267 0012 C046     		nop
 268              	@ 0 "" 2
 124:A7105_firmware_lib.c ****     
 269              		.loc 1 124 0
 270              		.code	16
 271 0014 FFF7FEFF 		bl	ByteRead
 272              	.LVL41:
 273 0018 041C     		mov	r4, r0
 274              	.LVL42:
 126:A7105_firmware_lib.c ****     return tmp;
 275              		.loc 1 126 0
 276 001a 0120     		mov	r0, #1
 277 001c FFF7FEFF 		bl	SCS_Write
 278              	.LVL43:
 128:A7105_firmware_lib.c **** 
 279              		.loc 1 128 0
 280 0020 201C     		mov	r0, r4
 281              		@ sp needed
 282              	.LVL44:
 283 0022 10BD     		pop	{r4, pc}
 284              		.cfi_endproc
 285              	.LFE1:
 286              		.size	A7105_ReadReg, .-A7105_ReadReg
 287              		.section	.text.StrobeCmd,"ax",%progbits
 288              		.align	2
 289              		.global	StrobeCmd
 290              		.code	16
 291              		.thumb_func
 292              		.type	StrobeCmd, %function
 293              	StrobeCmd:
 294              	.LFB2:
 134:A7105_firmware_lib.c ****     SCS_PIN_LOW();
 295              		.loc 1 134 0
 296              		.cfi_startproc
 297              	.LVL45:
 298 0000 10B5     		push	{r4, lr}
 299              		.cfi_def_cfa_offset 8
 300              		.cfi_offset 4, -8
 301              		.cfi_offset 14, -4
 302 0002 041C     		mov	r4, r0
 135:A7105_firmware_lib.c ****     
 303              		.loc 1 135 0
 304 0004 0020     		mov	r0, #0
 305              	.LVL46:
 306 0006 FFF7FEFF 		bl	SCS_Write
 307              	.LVL47:
 137:A7105_firmware_lib.c ****     
 308              		.loc 1 137 0
 309 000a 201C     		mov	r0, r4
 310 000c FFF7FEFF 		bl	ByteSend
 311              	.LVL48:
 139:A7105_firmware_lib.c **** }
 312              		.loc 1 139 0
 313 0010 0120     		mov	r0, #1
 314 0012 FFF7FEFF 		bl	SCS_Write
ARM GAS  C:\Users\Administrator\AppData\Local\Temp\ccWUKul3.s 			page 13


 315              	.LVL49:
 140:A7105_firmware_lib.c **** 
 316              		.loc 1 140 0
 317              		@ sp needed
 318 0016 10BD     		pop	{r4, pc}
 319              		.cfi_endproc
 320              	.LFE2:
 321              		.size	StrobeCmd, .-StrobeCmd
 322              		.section	.text.A7105_WriteID,"ax",%progbits
 323              		.align	2
 324              		.global	A7105_WriteID
 325              		.code	16
 326              		.thumb_func
 327              		.type	A7105_WriteID, %function
 328              	A7105_WriteID:
 329              	.LFB3:
 146:A7105_firmware_lib.c ****     uint8 i;
 330              		.loc 1 146 0
 331              		.cfi_startproc
 332 0000 10B5     		push	{r4, lr}
 333              		.cfi_def_cfa_offset 8
 334              		.cfi_offset 4, -8
 335              		.cfi_offset 14, -4
 336              	.LVL50:
 152:A7105_firmware_lib.c ****     ByteSend(addr);
 337              		.loc 1 152 0
 338 0002 0020     		mov	r0, #0
 339 0004 FFF7FEFF 		bl	SCS_Write
 340              	.LVL51:
 153:A7105_firmware_lib.c ****     for (i=0; i < 4; i++)
 341              		.loc 1 153 0
 342 0008 0620     		mov	r0, #6
 343 000a FFF7FEFF 		bl	ByteSend
 344              	.LVL52:
 154:A7105_firmware_lib.c ****         ByteSend(ID_Tab[i]);
 345              		.loc 1 154 0
 346 000e 0024     		mov	r4, #0
 347 0010 05E0     		b	.L15
 348              	.LVL53:
 349              	.L16:
 155:A7105_firmware_lib.c ****     SCS_PIN_HIGH();
 350              		.loc 1 155 0 discriminator 3
 351 0012 064B     		ldr	r3, .L17
 352 0014 185D     		ldrb	r0, [r3, r4]
 353 0016 FFF7FEFF 		bl	ByteSend
 354              	.LVL54:
 154:A7105_firmware_lib.c ****         ByteSend(ID_Tab[i]);
 355              		.loc 1 154 0 discriminator 3
 356 001a 0134     		add	r4, r4, #1
 357              	.LVL55:
 358 001c E4B2     		uxtb	r4, r4
 359              	.LVL56:
 360              	.L15:
 154:A7105_firmware_lib.c ****         ByteSend(ID_Tab[i]);
 361              		.loc 1 154 0 is_stmt 0 discriminator 1
 362 001e 032C     		cmp	r4, #3
 363 0020 F7D9     		bls	.L16
ARM GAS  C:\Users\Administrator\AppData\Local\Temp\ccWUKul3.s 			page 14


 156:A7105_firmware_lib.c **** }
 364              		.loc 1 156 0 is_stmt 1
 365 0022 0120     		mov	r0, #1
 366 0024 FFF7FEFF 		bl	SCS_Write
 367              	.LVL57:
 157:A7105_firmware_lib.c **** 
 368              		.loc 1 157 0
 369              		@ sp needed
 370              	.LVL58:
 371 0028 10BD     		pop	{r4, pc}
 372              	.L18:
 373 002a C046     		.align	2
 374              	.L17:
 375 002c 00000000 		.word	.LANCHOR0
 376              		.cfi_endproc
 377              	.LFE3:
 378              		.size	A7105_WriteID, .-A7105_WriteID
 379              		.section	.text.A7105_Reset,"ax",%progbits
 380              		.align	2
 381              		.global	A7105_Reset
 382              		.code	16
 383              		.thumb_func
 384              		.type	A7105_Reset, %function
 385              	A7105_Reset:
 386              	.LFB4:
 163:A7105_firmware_lib.c ****     //reset    RF chip
 387              		.loc 1 163 0
 388              		.cfi_startproc
 389 0000 08B5     		push	{r3, lr}
 390              		.cfi_def_cfa_offset 8
 391              		.cfi_offset 3, -8
 392              		.cfi_offset 14, -4
 165:A7105_firmware_lib.c **** }
 393              		.loc 1 165 0
 394 0002 0020     		mov	r0, #0
 395 0004 0021     		mov	r1, #0
 396 0006 FFF7FEFF 		bl	A7105_WriteReg
 397              	.LVL59:
 166:A7105_firmware_lib.c **** 
 398              		.loc 1 166 0
 399              		@ sp needed
 400 000a 08BD     		pop	{r3, pc}
 401              		.cfi_endproc
 402              	.LFE4:
 403              		.size	A7105_Reset, .-A7105_Reset
 404              		.section	.text.A7105_Config,"ax",%progbits
 405              		.align	2
 406              		.global	A7105_Config
 407              		.code	16
 408              		.thumb_func
 409              		.type	A7105_Config, %function
 410              	A7105_Config:
 411              	.LFB5:
 172:A7105_firmware_lib.c ****     uint8 i;
 412              		.loc 1 172 0
 413              		.cfi_startproc
 414 0000 10B5     		push	{r4, lr}
ARM GAS  C:\Users\Administrator\AppData\Local\Temp\ccWUKul3.s 			page 15


 415              		.cfi_def_cfa_offset 8
 416              		.cfi_offset 4, -8
 417              		.cfi_offset 14, -4
 418              	.LVL60:
 182:A7105_firmware_lib.c ****         A7105_WriteReg(i, parameters_Config[i]);
 419              		.loc 1 182 0
 420 0002 0124     		mov	r4, #1
 421 0004 07E0     		b	.L21
 422              	.LVL61:
 423              	.L22:
 183:A7105_firmware_lib.c **** 
 424              		.loc 1 183 0 discriminator 3
 425 0006 114B     		ldr	r3, .L27
 426 0008 1B19     		add	r3, r3, r4
 427 000a 1979     		ldrb	r1, [r3, #4]
 428 000c 201C     		mov	r0, r4
 429 000e FFF7FEFF 		bl	A7105_WriteReg
 430              	.LVL62:
 182:A7105_firmware_lib.c ****         A7105_WriteReg(i, parameters_Config[i]);
 431              		.loc 1 182 0 discriminator 3
 432 0012 0134     		add	r4, r4, #1
 433              	.LVL63:
 434 0014 E4B2     		uxtb	r4, r4
 435              	.LVL64:
 436              	.L21:
 182:A7105_firmware_lib.c ****         A7105_WriteReg(i, parameters_Config[i]);
 437              		.loc 1 182 0 is_stmt 0 discriminator 1
 438 0016 042C     		cmp	r4, #4
 439 0018 F5D9     		bls	.L22
 440 001a 0724     		mov	r4, #7
 441              	.LVL65:
 442 001c 07E0     		b	.L23
 443              	.LVL66:
 444              	.L24:
 186:A7105_firmware_lib.c **** 
 445              		.loc 1 186 0 is_stmt 1 discriminator 3
 446 001e 0B4B     		ldr	r3, .L27
 447 0020 1B19     		add	r3, r3, r4
 448 0022 1979     		ldrb	r1, [r3, #4]
 449 0024 201C     		mov	r0, r4
 450 0026 FFF7FEFF 		bl	A7105_WriteReg
 451              	.LVL67:
 185:A7105_firmware_lib.c ****         A7105_WriteReg(i, parameters_Config[i]);
 452              		.loc 1 185 0 discriminator 3
 453 002a 0134     		add	r4, r4, #1
 454              	.LVL68:
 455 002c E4B2     		uxtb	r4, r4
 456              	.LVL69:
 457              	.L23:
 185:A7105_firmware_lib.c ****         A7105_WriteReg(i, parameters_Config[i]);
 458              		.loc 1 185 0 is_stmt 0 discriminator 1
 459 002e 222C     		cmp	r4, #34
 460 0030 F5D9     		bls	.L24
 461 0032 2424     		mov	r4, #36
 462              	.LVL70:
 463 0034 07E0     		b	.L25
 464              	.LVL71:
ARM GAS  C:\Users\Administrator\AppData\Local\Temp\ccWUKul3.s 			page 16


 465              	.L26:
 189:A7105_firmware_lib.c ****     
 466              		.loc 1 189 0 is_stmt 1 discriminator 3
 467 0036 054B     		ldr	r3, .L27
 468 0038 1B19     		add	r3, r3, r4
 469 003a 1979     		ldrb	r1, [r3, #4]
 470 003c 201C     		mov	r0, r4
 471 003e FFF7FEFF 		bl	A7105_WriteReg
 472              	.LVL72:
 188:A7105_firmware_lib.c ****         A7105_WriteReg(i, parameters_Config[i]);
 473              		.loc 1 188 0 discriminator 3
 474 0042 0134     		add	r4, r4, #1
 475              	.LVL73:
 476 0044 E4B2     		uxtb	r4, r4
 477              	.LVL74:
 478              	.L25:
 188:A7105_firmware_lib.c ****         A7105_WriteReg(i, parameters_Config[i]);
 479              		.loc 1 188 0 is_stmt 0 discriminator 1
 480 0046 312C     		cmp	r4, #49
 481 0048 F5D9     		bls	.L26
 191:A7105_firmware_lib.c **** 
 482              		.loc 1 191 0 is_stmt 1
 483              		@ sp needed
 484              	.LVL75:
 485 004a 10BD     		pop	{r4, pc}
 486              	.L28:
 487              		.align	2
 488              	.L27:
 489 004c 00000000 		.word	.LANCHOR0
 490              		.cfi_endproc
 491              	.LFE5:
 492              		.size	A7105_Config, .-A7105_Config
 493              		.section	.text.A7105_Calibration,"ax",%progbits
 494              		.align	2
 495              		.global	A7105_Calibration
 496              		.code	16
 497              		.thumb_func
 498              		.type	A7105_Calibration, %function
 499              	A7105_Calibration:
 500              	.LFB7:
 221:A7105_firmware_lib.c ****     uint8 tmp;
 501              		.loc 1 221 0
 502              		.cfi_startproc
 503 0000 70B5     		push	{r4, r5, r6, lr}
 504              		.cfi_def_cfa_offset 16
 505              		.cfi_offset 4, -16
 506              		.cfi_offset 5, -12
 507              		.cfi_offset 6, -8
 508              		.cfi_offset 14, -4
 227:A7105_firmware_lib.c **** 
 509              		.loc 1 227 0
 510 0002 A020     		mov	r0, #160
 511 0004 FFF7FEFF 		bl	StrobeCmd
 512              	.LVL76:
 230:A7105_firmware_lib.c ****     Wait_Bit_n_clear(CALIBRATION_REG, 0x01);
 513              		.loc 1 230 0
 514 0008 0220     		mov	r0, #2
ARM GAS  C:\Users\Administrator\AppData\Local\Temp\ccWUKul3.s 			page 17


 515 000a 0121     		mov	r1, #1
 516 000c FFF7FEFF 		bl	A7105_WriteReg
 517              	.LVL77:
 518              	.L30:
 519              	.LBB20:
 520              	.LBB21:
 347:A7105_firmware_lib.c **** 
 348:A7105_firmware_lib.c **** /**********************************************************************
 349:A7105_firmware_lib.c **** **    ReadFIFO
 350:A7105_firmware_lib.c **** **********************************************************************/
 351:A7105_firmware_lib.c **** void ReadFIFO(uint8 length, uint8 pbuf[])
 352:A7105_firmware_lib.c **** {
 353:A7105_firmware_lib.c ****     uint8 i;
 354:A7105_firmware_lib.c **** 
 355:A7105_firmware_lib.c ****     SCS_PIN_LOW();
 356:A7105_firmware_lib.c ****     
 357:A7105_firmware_lib.c ****     ByteSend(FIFO_REG | 0x40);      //0x40是读取标志
 358:A7105_firmware_lib.c ****     for(i = 0; i <length; i++)
 359:A7105_firmware_lib.c ****         pbuf[i] = ByteRead();
 360:A7105_firmware_lib.c ****         
 361:A7105_firmware_lib.c ****     SCS_PIN_HIGH();
 362:A7105_firmware_lib.c **** }
 363:A7105_firmware_lib.c **** /************************************************************************
 364:A7105_firmware_lib.c **** **   uint8 A7105_read_wtr(void)
 365:A7105_firmware_lib.c **** ************************************************************************/
 366:A7105_firmware_lib.c **** uint8 A7105_read_wtr(void)
 367:A7105_firmware_lib.c **** {
 368:A7105_firmware_lib.c ****     return A7105_wtr_status;
 369:A7105_firmware_lib.c **** }
 370:A7105_firmware_lib.c **** /************************************************************************
 371:A7105_firmware_lib.c **** **   void update_wtr(void)
 372:A7105_firmware_lib.c **** ************************************************************************/
 373:A7105_firmware_lib.c **** void A7105_update_wtr(Bool value)
 374:A7105_firmware_lib.c **** {
 375:A7105_firmware_lib.c ****     A7105_wtr_status = value;
 376:A7105_firmware_lib.c **** }
 377:A7105_firmware_lib.c **** /************************************************************************
 378:A7105_firmware_lib.c **** **    WaitBit_n_clear()
 379:A7105_firmware_lib.c **** ************************************************************************/
 380:A7105_firmware_lib.c **** 
 381:A7105_firmware_lib.c **** 
 382:A7105_firmware_lib.c **** void Wait_Bit_n_clear(uint8 reg, uint8 nbit)
 383:A7105_firmware_lib.c **** {
 384:A7105_firmware_lib.c ****     while(A7105_ReadReg(reg) & nbit) { 
 521              		.loc 1 384 0
 522 0010 0220     		mov	r0, #2
 523 0012 FFF7FEFF 		bl	A7105_ReadReg
 524              	.LVL78:
 525 0016 C307     		lsl	r3, r0, #31
 526 0018 FAD4     		bmi	.L30
 527              	.LBE21:
 528              	.LBE20:
 234:A7105_firmware_lib.c ****     //fb = tmp & 0x0F;   //读寄存器,得AFB的值
 529              		.loc 1 234 0
 530 001a 2220     		mov	r0, #34
 531 001c FFF7FEFF 		bl	A7105_ReadReg
 532              	.LVL79:
ARM GAS  C:\Users\Administrator\AppData\Local\Temp\ccWUKul3.s 			page 18


 239:A7105_firmware_lib.c ****     {
 533              		.loc 1 239 0
 534 0020 C306     		lsl	r3, r0, #27
 535 0022 00D5     		bpl	.L31
 536              	.L32:
 537 0024 FEE7     		b	.L32
 538              	.L31:
 245:A7105_firmware_lib.c ****     
 539              		.loc 1 245 0
 540 0026 2420     		mov	r0, #36
 541              	.LVL80:
 542 0028 1321     		mov	r1, #19
 543 002a FFF7FEFF 		bl	A7105_WriteReg
 544              	.LVL81:
 249:A7105_firmware_lib.c ****     //在这个频率下进行VCOB校正
 545              		.loc 1 249 0
 546 002e 2620     		mov	r0, #38
 547 0030 3B21     		mov	r1, #59
 548 0032 FFF7FEFF 		bl	A7105_WriteReg
 549              	.LVL82:
 251:A7105_firmware_lib.c ****     A7105_WriteReg(CALIBRATION_REG, 0x02);   //选择校正VCOB
 550              		.loc 1 251 0
 551 0036 0F20     		mov	r0, #15
 552 0038 0021     		mov	r1, #0
 553 003a FFF7FEFF 		bl	A7105_WriteReg
 554              	.LVL83:
 252:A7105_firmware_lib.c ****     Wait_Bit_n_clear(CALIBRATION_REG, 0x02);    //等待VCOB校正完毕
 555              		.loc 1 252 0
 556 003e 0220     		mov	r0, #2
 557 0040 0221     		mov	r1, #2
 558 0042 FFF7FEFF 		bl	A7105_WriteReg
 559              	.LVL84:
 560              	.L33:
 561              	.LBB22:
 562              	.LBB23:
 563              		.loc 1 384 0
 564 0046 0220     		mov	r0, #2
 565 0048 FFF7FEFF 		bl	A7105_ReadReg
 566              	.LVL85:
 567 004c 8307     		lsl	r3, r0, #30
 568 004e FAD4     		bmi	.L33
 569              	.LBE23:
 570              	.LBE22:
 256:A7105_firmware_lib.c ****     vb1 = tmp & 0x07;    //自动校正的数值
 571              		.loc 1 256 0
 572 0050 2520     		mov	r0, #37
 573 0052 FFF7FEFF 		bl	A7105_ReadReg
 574              	.LVL86:
 257:A7105_firmware_lib.c ****     vbcf1 = (tmp >> 3) & 0x01;    //校正是否成功
 575              		.loc 1 257 0
 576 0056 0726     		mov	r6, #7
 577 0058 0640     		and	r6, r0
 578              	.LVL87:
 258:A7105_firmware_lib.c ****     //dvt1 = (tmp >> 4) & 0x03;   //digital VCO tuning voltage output
 579              		.loc 1 258 0
 580 005a 0007     		lsl	r0, r0, #28
 581              	.LVL88:
ARM GAS  C:\Users\Administrator\AppData\Local\Temp\ccWUKul3.s 			page 19


 582 005c C50F     		lsr	r5, r0, #31
 583              	.LVL89:
 262:A7105_firmware_lib.c ****     A7105_WriteReg(CALIBRATION_REG, 0x02);
 584              		.loc 1 262 0
 585 005e 0F20     		mov	r0, #15
 586 0060 A021     		mov	r1, #160
 587 0062 FFF7FEFF 		bl	A7105_WriteReg
 588              	.LVL90:
 263:A7105_firmware_lib.c ****     Wait_Bit_n_clear(CALIBRATION_REG, 0x02);
 589              		.loc 1 263 0
 590 0066 0220     		mov	r0, #2
 591 0068 0221     		mov	r1, #2
 592 006a FFF7FEFF 		bl	A7105_WriteReg
 593              	.LVL91:
 594              	.L34:
 595              	.LBB24:
 596              	.LBB25:
 597              		.loc 1 384 0
 598 006e 0220     		mov	r0, #2
 599 0070 FFF7FEFF 		bl	A7105_ReadReg
 600              	.LVL92:
 601 0074 8307     		lsl	r3, r0, #30
 602 0076 FAD4     		bmi	.L34
 603              	.LBE25:
 604              	.LBE24:
 266:A7105_firmware_lib.c ****     vb2 = tmp & 0x07;
 605              		.loc 1 266 0
 606 0078 2520     		mov	r0, #37
 607 007a FFF7FEFF 		bl	A7105_ReadReg
 608              	.LVL93:
 267:A7105_firmware_lib.c ****     vbcf2 = (tmp >> 3) & 0x01;
 609              		.loc 1 267 0
 610 007e 0721     		mov	r1, #7
 611 0080 0140     		and	r1, r0
 612              	.LVL94:
 268:A7105_firmware_lib.c ****     //dvt2 = (tmp >> 4) & 0x03;
 613              		.loc 1 268 0
 614 0082 0007     		lsl	r0, r0, #28
 615              	.LVL95:
 616 0084 C40F     		lsr	r4, r0, #31
 617              	.LVL96:
 618              	.LBB26:
 619              	.LBB27:
 201:A7105_firmware_lib.c ****         diff1 = vb1-4;
 620              		.loc 1 201 0
 621 0086 032E     		cmp	r6, #3
 622 0088 02D9     		bls	.L35
 202:A7105_firmware_lib.c ****     else
 623              		.loc 1 202 0
 624 008a 321F     		sub	r2, r6, #4
 625 008c D2B2     		uxtb	r2, r2
 626              	.LVL97:
 627 008e 02E0     		b	.L36
 628              	.LVL98:
 629              	.L35:
 204:A7105_firmware_lib.c **** 
 630              		.loc 1 204 0
ARM GAS  C:\Users\Administrator\AppData\Local\Temp\ccWUKul3.s 			page 20


 631 0090 0422     		mov	r2, #4
 632 0092 921B     		sub	r2, r2, r6
 633 0094 D2B2     		uxtb	r2, r2
 634              	.LVL99:
 635              	.L36:
 206:A7105_firmware_lib.c ****         diff2 = vb2-4;
 636              		.loc 1 206 0
 637 0096 0329     		cmp	r1, #3
 638 0098 02D9     		bls	.L37
 207:A7105_firmware_lib.c ****     else
 639              		.loc 1 207 0
 640 009a 0B1F     		sub	r3, r1, #4
 641 009c DBB2     		uxtb	r3, r3
 642              	.LVL100:
 643 009e 02E0     		b	.L38
 644              	.LVL101:
 645              	.L37:
 209:A7105_firmware_lib.c **** 
 646              		.loc 1 209 0
 647 00a0 0423     		mov	r3, #4
 648 00a2 5B1A     		sub	r3, r3, r1
 649 00a4 DBB2     		uxtb	r3, r3
 650              	.LVL102:
 651              	.L38:
 211:A7105_firmware_lib.c ****         A7105_WriteReg(VCOCAL1_REG, (vb1 | 0x08));//manual setting vb1 value
 652              		.loc 1 211 0
 653 00a6 9A42     		cmp	r2, r3
 654 00a8 05D3     		bcc	.L39
 212:A7105_firmware_lib.c ****     else
 655              		.loc 1 212 0
 656 00aa 0821     		mov	r1, #8
 657              	.LVL103:
 658 00ac 3143     		orr	r1, r6
 659 00ae 2520     		mov	r0, #37
 660 00b0 FFF7FEFF 		bl	A7105_WriteReg
 661              	.LVL104:
 662 00b4 04E0     		b	.L40
 663              	.LVL105:
 664              	.L39:
 214:A7105_firmware_lib.c **** }
 665              		.loc 1 214 0
 666 00b6 0823     		mov	r3, #8
 667              	.LVL106:
 668 00b8 1943     		orr	r1, r3
 669              	.LVL107:
 670 00ba 2520     		mov	r0, #37
 671 00bc FFF7FEFF 		bl	A7105_WriteReg
 672              	.LVL108:
 673              	.L40:
 674              	.LBE27:
 675              	.LBE26:
 273:A7105_firmware_lib.c ****     {
 676              		.loc 1 273 0
 677 00c0 012D     		cmp	r5, #1
 678 00c2 02D1     		bne	.L29
 273:A7105_firmware_lib.c ****     {
 679              		.loc 1 273 0 is_stmt 0 discriminator 1
ARM GAS  C:\Users\Administrator\AppData\Local\Temp\ccWUKul3.s 			page 21


 680 00c4 012C     		cmp	r4, #1
 681 00c6 00D1     		bne	.L29
 682              	.L42:
 683 00c8 FEE7     		b	.L42
 684              	.L29:
 278:A7105_firmware_lib.c **** 
 685              		.loc 1 278 0 is_stmt 1
 686              		@ sp needed
 687              	.LVL109:
 688              	.LVL110:
 689              	.LVL111:
 690 00ca 70BD     		pop	{r4, r5, r6, pc}
 691              		.cfi_endproc
 692              	.LFE7:
 693              		.size	A7105_Calibration, .-A7105_Calibration
 694              		.section	.text.WriteFIFO,"ax",%progbits
 695              		.align	2
 696              		.global	WriteFIFO
 697              		.code	16
 698              		.thumb_func
 699              		.type	WriteFIFO, %function
 700              	WriteFIFO:
 701              	.LFB9:
 307:A7105_firmware_lib.c ****     uint8 i;
 702              		.loc 1 307 0
 703              		.cfi_startproc
 704              	.LVL112:
 705 0000 70B5     		push	{r4, r5, r6, lr}
 706              		.cfi_def_cfa_offset 16
 707              		.cfi_offset 4, -16
 708              		.cfi_offset 5, -12
 709              		.cfi_offset 6, -8
 710              		.cfi_offset 14, -4
 711 0002 051C     		mov	r5, r0
 712 0004 0E1C     		mov	r6, r1
 310:A7105_firmware_lib.c ****     
 713              		.loc 1 310 0
 714 0006 411E     		sub	r1, r0, #1
 715              	.LVL113:
 716 0008 C9B2     		uxtb	r1, r1
 717 000a 0320     		mov	r0, #3
 718              	.LVL114:
 719 000c FFF7FEFF 		bl	A7105_WriteReg
 720              	.LVL115:
 312:A7105_firmware_lib.c ****     ByteSend(FIFO_REG);  //写0x05h这个地址的data_register
 721              		.loc 1 312 0
 722 0010 0020     		mov	r0, #0
 723 0012 FFF7FEFF 		bl	SCS_Write
 724              	.LVL116:
 313:A7105_firmware_lib.c ****     for(i=0; i <length; i++)
 725              		.loc 1 313 0
 726 0016 0520     		mov	r0, #5
 727 0018 FFF7FEFF 		bl	ByteSend
 728              	.LVL117:
 314:A7105_firmware_lib.c ****         ByteSend(pbuf[i]);
 729              		.loc 1 314 0
 730 001c 0024     		mov	r4, #0
ARM GAS  C:\Users\Administrator\AppData\Local\Temp\ccWUKul3.s 			page 22


 731 001e 04E0     		b	.L44
 732              	.LVL118:
 733              	.L45:
 315:A7105_firmware_lib.c ****     SCS_PIN_HIGH();
 734              		.loc 1 315 0 discriminator 3
 735 0020 305D     		ldrb	r0, [r6, r4]
 736 0022 FFF7FEFF 		bl	ByteSend
 737              	.LVL119:
 314:A7105_firmware_lib.c ****         ByteSend(pbuf[i]);
 738              		.loc 1 314 0 discriminator 3
 739 0026 0134     		add	r4, r4, #1
 740              	.LVL120:
 741 0028 E4B2     		uxtb	r4, r4
 742              	.LVL121:
 743              	.L44:
 314:A7105_firmware_lib.c ****         ByteSend(pbuf[i]);
 744              		.loc 1 314 0 is_stmt 0 discriminator 1
 745 002a AC42     		cmp	r4, r5
 746 002c F8D3     		bcc	.L45
 316:A7105_firmware_lib.c **** }
 747              		.loc 1 316 0 is_stmt 1
 748 002e 0120     		mov	r0, #1
 749 0030 FFF7FEFF 		bl	SCS_Write
 750              	.LVL122:
 317:A7105_firmware_lib.c **** 
 751              		.loc 1 317 0
 752              		@ sp needed
 753              	.LVL123:
 754              	.LVL124:
 755 0034 70BD     		pop	{r4, r5, r6, pc}
 756              		.cfi_endproc
 757              	.LFE9:
 758              		.size	WriteFIFO, .-WriteFIFO
 759 0036 C046     		.section	.text.ReadFIFO,"ax",%progbits
 760              		.align	2
 761              		.global	ReadFIFO
 762              		.code	16
 763              		.thumb_func
 764              		.type	ReadFIFO, %function
 765              	ReadFIFO:
 766              	.LFB11:
 352:A7105_firmware_lib.c ****     uint8 i;
 767              		.loc 1 352 0
 768              		.cfi_startproc
 769              	.LVL125:
 770 0000 F8B5     		push	{r3, r4, r5, r6, r7, lr}
 771              		.cfi_def_cfa_offset 24
 772              		.cfi_offset 3, -24
 773              		.cfi_offset 4, -20
 774              		.cfi_offset 5, -16
 775              		.cfi_offset 6, -12
 776              		.cfi_offset 7, -8
 777              		.cfi_offset 14, -4
 778 0002 061C     		mov	r6, r0
 779 0004 0F1C     		mov	r7, r1
 355:A7105_firmware_lib.c ****     
 780              		.loc 1 355 0
ARM GAS  C:\Users\Administrator\AppData\Local\Temp\ccWUKul3.s 			page 23


 781 0006 0020     		mov	r0, #0
 782              	.LVL126:
 783 0008 FFF7FEFF 		bl	SCS_Write
 784              	.LVL127:
 357:A7105_firmware_lib.c ****     for(i = 0; i <length; i++)
 785              		.loc 1 357 0
 786 000c 4520     		mov	r0, #69
 787 000e FFF7FEFF 		bl	ByteSend
 788              	.LVL128:
 358:A7105_firmware_lib.c ****         pbuf[i] = ByteRead();
 789              		.loc 1 358 0
 790 0012 0024     		mov	r4, #0
 791 0014 05E0     		b	.L47
 792              	.LVL129:
 793              	.L48:
 359:A7105_firmware_lib.c ****         
 794              		.loc 1 359 0 discriminator 3
 795 0016 3D19     		add	r5, r7, r4
 796 0018 FFF7FEFF 		bl	ByteRead
 797              	.LVL130:
 798 001c 2870     		strb	r0, [r5]
 358:A7105_firmware_lib.c ****         pbuf[i] = ByteRead();
 799              		.loc 1 358 0 discriminator 3
 800 001e 0134     		add	r4, r4, #1
 801              	.LVL131:
 802 0020 E4B2     		uxtb	r4, r4
 803              	.LVL132:
 804              	.L47:
 358:A7105_firmware_lib.c ****         pbuf[i] = ByteRead();
 805              		.loc 1 358 0 is_stmt 0 discriminator 1
 806 0022 B442     		cmp	r4, r6
 807 0024 F7D3     		bcc	.L48
 361:A7105_firmware_lib.c **** }
 808              		.loc 1 361 0 is_stmt 1
 809 0026 0120     		mov	r0, #1
 810 0028 FFF7FEFF 		bl	SCS_Write
 811              	.LVL133:
 362:A7105_firmware_lib.c **** /************************************************************************
 812              		.loc 1 362 0
 813              		@ sp needed
 814              	.LVL134:
 815              	.LVL135:
 816 002c F8BD     		pop	{r3, r4, r5, r6, r7, pc}
 817              		.cfi_endproc
 818              	.LFE11:
 819              		.size	ReadFIFO, .-ReadFIFO
 820 002e C046     		.section	.text.A7105_read_wtr,"ax",%progbits
 821              		.align	2
 822              		.global	A7105_read_wtr
 823              		.code	16
 824              		.thumb_func
 825              		.type	A7105_read_wtr, %function
 826              	A7105_read_wtr:
 827              	.LFB12:
 367:A7105_firmware_lib.c ****     return A7105_wtr_status;
 828              		.loc 1 367 0
 829              		.cfi_startproc
ARM GAS  C:\Users\Administrator\AppData\Local\Temp\ccWUKul3.s 			page 24


 368:A7105_firmware_lib.c **** }
 830              		.loc 1 368 0
 831 0000 014B     		ldr	r3, .L50
 832 0002 1878     		ldrb	r0, [r3]
 369:A7105_firmware_lib.c **** /************************************************************************
 833              		.loc 1 369 0
 834              		@ sp needed
 835 0004 7047     		bx	lr
 836              	.L51:
 837 0006 C046     		.align	2
 838              	.L50:
 839 0008 00000000 		.word	.LANCHOR1
 840              		.cfi_endproc
 841              	.LFE12:
 842              		.size	A7105_read_wtr, .-A7105_read_wtr
 843              		.section	.text.A7105_update_wtr,"ax",%progbits
 844              		.align	2
 845              		.global	A7105_update_wtr
 846              		.code	16
 847              		.thumb_func
 848              		.type	A7105_update_wtr, %function
 849              	A7105_update_wtr:
 850              	.LFB13:
 374:A7105_firmware_lib.c ****     A7105_wtr_status = value;
 851              		.loc 1 374 0
 852              		.cfi_startproc
 853              	.LVL136:
 375:A7105_firmware_lib.c **** }
 854              		.loc 1 375 0
 855 0000 014B     		ldr	r3, .L53
 856 0002 1870     		strb	r0, [r3]
 376:A7105_firmware_lib.c **** /************************************************************************
 857              		.loc 1 376 0
 858              		@ sp needed
 859 0004 7047     		bx	lr
 860              	.L54:
 861 0006 C046     		.align	2
 862              	.L53:
 863 0008 00000000 		.word	.LANCHOR1
 864              		.cfi_endproc
 865              	.LFE13:
 866              		.size	A7105_update_wtr, .-A7105_update_wtr
 867              		.global	A7105_wtr_status
 868              		.global	parameters_Config
 869              		.global	ID_Tab
 870              		.section	.rodata
 871              		.align	2
 872              		.set	.LANCHOR0,. + 0
 873              		.type	ID_Tab, %object
 874              		.size	ID_Tab, 4
 875              	ID_Tab:
 876 0000 54       		.byte	84
 877 0001 75       		.byte	117
 878 0002 C5       		.byte	-59
 879 0003 2A       		.byte	42
 880              		.type	parameters_Config, %object
 881              		.size	parameters_Config, 51
ARM GAS  C:\Users\Administrator\AppData\Local\Temp\ccWUKul3.s 			page 25


 882              	parameters_Config:
 883 0004 00       		.byte	0
 884 0005 62       		.byte	98
 885 0006 00       		.byte	0
 886 0007 3F       		.byte	63
 887 0008 00       		.byte	0
 888 0009 00       		.byte	0
 889 000a 00       		.byte	0
 890 000b 00       		.byte	0
 891 000c 00       		.byte	0
 892 000d 00       		.byte	0
 893 000e 00       		.byte	0
 894 000f 01       		.byte	1
 895 0010 01       		.byte	1
 896 0011 05       		.byte	5
 897 0012 00       		.byte	0
 898 0013 50       		.byte	80
 899 0014 9E       		.byte	-98
 900 0015 4B       		.byte	75
 901 0016 00       		.byte	0
 902 0017 02       		.byte	2
 903 0018 16       		.byte	22
 904 0019 2B       		.byte	43
 905 001a 12       		.byte	18
 906 001b 00       		.byte	0
 907 001c 62       		.byte	98
 908 001d 80       		.byte	-128
 909 001e 80       		.byte	-128
 910 001f 00       		.byte	0
 911 0020 0A       		.byte	10
 912 0021 32       		.byte	50
 913 0022 C3       		.byte	-61
 914 0023 07       		.byte	7
 915 0024 16       		.byte	22
 916 0025 00       		.byte	0
 917 0026 00       		.byte	0
 918 0027 00       		.byte	0
 919 0028 00       		.byte	0
 920 0029 00       		.byte	0
 921 002a 3B       		.byte	59
 922 002b 00       		.byte	0
 923 002c 17       		.byte	23
 924 002d 47       		.byte	71
 925 002e 80       		.byte	-128
 926 002f 03       		.byte	3
 927 0030 01       		.byte	1
 928 0031 45       		.byte	69
 929 0032 18       		.byte	24
 930 0033 00       		.byte	0
 931 0034 01       		.byte	1
 932 0035 0F       		.byte	15
 933 0036 00       		.byte	0
 934 0037 00       		.bss
 935              		.set	.LANCHOR1,. + 0
 936              		.type	A7105_wtr_status, %object
 937              		.size	A7105_wtr_status, 1
 938              	A7105_wtr_status:
ARM GAS  C:\Users\Administrator\AppData\Local\Temp\ccWUKul3.s 			page 26


 939 0000 00       		.space	1
 940              		.text
 941              	.Letext0:
 942              		.file 2 "types.h"
 943              		.file 3 "A7105_firmware_lib.h"
 944              		.file 4 "Generated_Source\\PSoC4/SDIO.h"
 945              		.file 5 "Generated_Source\\PSoC4/SCK.h"
 946              		.file 6 "Generated_Source\\PSoC4/SCS.h"