ARM GAS  C:\Users\Administrator\AppData\Local\Temp\ccYqBY2O.s 			page 1


   1              		.cpu cortex-m0plus
   2              		.fpu softvfp
   3              		.eabi_attribute 20, 1
   4              		.eabi_attribute 21, 1
   5              		.eabi_attribute 23, 3
   6              		.eabi_attribute 24, 1
   7              		.eabi_attribute 25, 1
   8              		.eabi_attribute 26, 1
   9              		.eabi_attribute 30, 1
  10              		.eabi_attribute 34, 0
  11              		.eabi_attribute 18, 4
  12              		.code	16
  13              		.file	"app.c"
  14              		.text
  15              	.Ltext0:
  16              		.cfi_sections	.debug_frame
  17              		.section	.text.app_key_short_press_dian_yuan_handler,"ax",%progbits
  18              		.align	2
  19              		.global	app_key_short_press_dian_yuan_handler
  20              		.code	16
  21              		.thumb_func
  22              		.type	app_key_short_press_dian_yuan_handler, %function
  23              	app_key_short_press_dian_yuan_handler:
  24              	.LFB35:
  25              		.file 1 "app.c"
   1:app.c         **** /* ========================================
   2:app.c         ****  *
   3:app.c         ****  * Copyright YOUR COMPANY, THE YEAR
   4:app.c         ****  * All Rights Reserved
   5:app.c         ****  * UNPUBLISHED, LICENSED SOFTWARE.
   6:app.c         ****  *
   7:app.c         ****  * CONFIDENTIAL AND PROPRIETARY INFORMATION
   8:app.c         ****  * WHICH IS THE PROPERTY OF your company.
   9:app.c         ****  *
  10:app.c         ****  * ========================================
  11:app.c         **** */
  12:app.c         **** #include "app.h"
  13:app.c         **** #include "key.h"
  14:app.c         **** uint8 app_send_buffer[10];
  15:app.c         **** 
  16:app.c         **** APP_KEY_HANDLER_DEFINE(short_press_dian_yuan, VALUE_SHORT_PRESS_DIAN_YUAN);
  26              		.loc 1 16 0
  27              		.cfi_startproc
  28 0000 08B5     		push	{r3, lr}
  29              		.cfi_def_cfa_offset 8
  30              		.cfi_offset 3, -8
  31              		.cfi_offset 14, -4
  32              		.loc 1 16 0
  33 0002 0348     		ldr	r0, .L2
  34 0004 0023     		mov	r3, #0
  35 0006 C370     		strb	r3, [r0, #3]
  36 0008 0321     		mov	r1, #3
  37 000a FFF7FEFF 		bl	simple_protocol_send
  38              	.LVL0:
  39              		@ sp needed
  40 000e 08BD     		pop	{r3, pc}
  41              	.L3:
ARM GAS  C:\Users\Administrator\AppData\Local\Temp\ccYqBY2O.s 			page 2


  42              		.align	2
  43              	.L2:
  44 0010 00000000 		.word	app_send_buffer
  45              		.cfi_endproc
  46              	.LFE35:
  47              		.size	app_key_short_press_dian_yuan_handler, .-app_key_short_press_dian_yuan_handler
  48              		.section	.text.app_key_short_press_feng_nuan_handler,"ax",%progbits
  49              		.align	2
  50              		.global	app_key_short_press_feng_nuan_handler
  51              		.code	16
  52              		.thumb_func
  53              		.type	app_key_short_press_feng_nuan_handler, %function
  54              	app_key_short_press_feng_nuan_handler:
  55              	.LFB36:
  17:app.c         **** APP_KEY_HANDLER_DEFINE(short_press_feng_nuan, VALUE_SHORT_PRESS_FENG_NUAN);
  56              		.loc 1 17 0
  57              		.cfi_startproc
  58 0000 08B5     		push	{r3, lr}
  59              		.cfi_def_cfa_offset 8
  60              		.cfi_offset 3, -8
  61              		.cfi_offset 14, -4
  62              		.loc 1 17 0
  63 0002 0348     		ldr	r0, .L5
  64 0004 0123     		mov	r3, #1
  65 0006 C370     		strb	r3, [r0, #3]
  66 0008 0321     		mov	r1, #3
  67 000a FFF7FEFF 		bl	simple_protocol_send
  68              	.LVL1:
  69              		@ sp needed
  70 000e 08BD     		pop	{r3, pc}
  71              	.L6:
  72              		.align	2
  73              	.L5:
  74 0010 00000000 		.word	app_send_buffer
  75              		.cfi_endproc
  76              	.LFE36:
  77              		.size	app_key_short_press_feng_nuan_handler, .-app_key_short_press_feng_nuan_handler
  78              		.section	.text.app_key_short_press_wen_du_jia_handler,"ax",%progbits
  79              		.align	2
  80              		.global	app_key_short_press_wen_du_jia_handler
  81              		.code	16
  82              		.thumb_func
  83              		.type	app_key_short_press_wen_du_jia_handler, %function
  84              	app_key_short_press_wen_du_jia_handler:
  85              	.LFB37:
  18:app.c         **** APP_KEY_HANDLER_DEFINE(short_press_wen_du_jia, VALUE_SHORT_PRESS_WENDU_JIA);
  86              		.loc 1 18 0
  87              		.cfi_startproc
  88 0000 08B5     		push	{r3, lr}
  89              		.cfi_def_cfa_offset 8
  90              		.cfi_offset 3, -8
  91              		.cfi_offset 14, -4
  92              		.loc 1 18 0
  93 0002 0348     		ldr	r0, .L8
  94 0004 0223     		mov	r3, #2
  95 0006 C370     		strb	r3, [r0, #3]
  96 0008 0321     		mov	r1, #3
ARM GAS  C:\Users\Administrator\AppData\Local\Temp\ccYqBY2O.s 			page 3


  97 000a FFF7FEFF 		bl	simple_protocol_send
  98              	.LVL2:
  99              		@ sp needed
 100 000e 08BD     		pop	{r3, pc}
 101              	.L9:
 102              		.align	2
 103              	.L8:
 104 0010 00000000 		.word	app_send_buffer
 105              		.cfi_endproc
 106              	.LFE37:
 107              		.size	app_key_short_press_wen_du_jia_handler, .-app_key_short_press_wen_du_jia_handler
 108              		.section	.text.app_key_short_press_wen_du_jian_handler,"ax",%progbits
 109              		.align	2
 110              		.global	app_key_short_press_wen_du_jian_handler
 111              		.code	16
 112              		.thumb_func
 113              		.type	app_key_short_press_wen_du_jian_handler, %function
 114              	app_key_short_press_wen_du_jian_handler:
 115              	.LFB38:
  19:app.c         **** APP_KEY_HANDLER_DEFINE(short_press_wen_du_jian, VALUE_SHORT_PRESS_WENDU_JIAN);
 116              		.loc 1 19 0
 117              		.cfi_startproc
 118 0000 08B5     		push	{r3, lr}
 119              		.cfi_def_cfa_offset 8
 120              		.cfi_offset 3, -8
 121              		.cfi_offset 14, -4
 122              		.loc 1 19 0
 123 0002 0348     		ldr	r0, .L11
 124 0004 0323     		mov	r3, #3
 125 0006 C370     		strb	r3, [r0, #3]
 126 0008 0321     		mov	r1, #3
 127 000a FFF7FEFF 		bl	simple_protocol_send
 128              	.LVL3:
 129              		@ sp needed
 130 000e 08BD     		pop	{r3, pc}
 131              	.L12:
 132              		.align	2
 133              	.L11:
 134 0010 00000000 		.word	app_send_buffer
 135              		.cfi_endproc
 136              	.LFE38:
 137              		.size	app_key_short_press_wen_du_jian_handler, .-app_key_short_press_wen_du_jian_handler
 138              		.section	.text.app_key_short_press_xin_feng_handler,"ax",%progbits
 139              		.align	2
 140              		.global	app_key_short_press_xin_feng_handler
 141              		.code	16
 142              		.thumb_func
 143              		.type	app_key_short_press_xin_feng_handler, %function
 144              	app_key_short_press_xin_feng_handler:
 145              	.LFB39:
  20:app.c         **** APP_KEY_HANDLER_DEFINE(short_press_xin_feng, VALUE_SHORT_PRESS_XIN_FENG);
 146              		.loc 1 20 0
 147              		.cfi_startproc
 148 0000 08B5     		push	{r3, lr}
 149              		.cfi_def_cfa_offset 8
 150              		.cfi_offset 3, -8
 151              		.cfi_offset 14, -4
ARM GAS  C:\Users\Administrator\AppData\Local\Temp\ccYqBY2O.s 			page 4


 152              		.loc 1 20 0
 153 0002 0348     		ldr	r0, .L14
 154 0004 0423     		mov	r3, #4
 155 0006 C370     		strb	r3, [r0, #3]
 156 0008 0321     		mov	r1, #3
 157 000a FFF7FEFF 		bl	simple_protocol_send
 158              	.LVL4:
 159              		@ sp needed
 160 000e 08BD     		pop	{r3, pc}
 161              	.L15:
 162              		.align	2
 163              	.L14:
 164 0010 00000000 		.word	app_send_buffer
 165              		.cfi_endproc
 166              	.LFE39:
 167              		.size	app_key_short_press_xin_feng_handler, .-app_key_short_press_xin_feng_handler
 168              		.section	.text.app_key_short_press_qiang_ruo_handler,"ax",%progbits
 169              		.align	2
 170              		.global	app_key_short_press_qiang_ruo_handler
 171              		.code	16
 172              		.thumb_func
 173              		.type	app_key_short_press_qiang_ruo_handler, %function
 174              	app_key_short_press_qiang_ruo_handler:
 175              	.LFB40:
  21:app.c         **** APP_KEY_HANDLER_DEFINE(short_press_qiang_ruo, VALUE_SHORT_PRESS_QING_RUO);
 176              		.loc 1 21 0
 177              		.cfi_startproc
 178 0000 08B5     		push	{r3, lr}
 179              		.cfi_def_cfa_offset 8
 180              		.cfi_offset 3, -8
 181              		.cfi_offset 14, -4
 182              		.loc 1 21 0
 183 0002 0348     		ldr	r0, .L17
 184 0004 0523     		mov	r3, #5
 185 0006 C370     		strb	r3, [r0, #3]
 186 0008 0321     		mov	r1, #3
 187 000a FFF7FEFF 		bl	simple_protocol_send
 188              	.LVL5:
 189              		@ sp needed
 190 000e 08BD     		pop	{r3, pc}
 191              	.L18:
 192              		.align	2
 193              	.L17:
 194 0010 00000000 		.word	app_send_buffer
 195              		.cfi_endproc
 196              	.LFE40:
 197              		.size	app_key_short_press_qiang_ruo_handler, .-app_key_short_press_qiang_ruo_handler
 198              		.section	.text.app_key_short_press_huan_qi_handler,"ax",%progbits
 199              		.align	2
 200              		.global	app_key_short_press_huan_qi_handler
 201              		.code	16
 202              		.thumb_func
 203              		.type	app_key_short_press_huan_qi_handler, %function
 204              	app_key_short_press_huan_qi_handler:
 205              	.LFB41:
  22:app.c         **** APP_KEY_HANDLER_DEFINE(short_press_huan_qi, VALUE_SHORT_PRESS_HUAN_QI);
 206              		.loc 1 22 0
ARM GAS  C:\Users\Administrator\AppData\Local\Temp\ccYqBY2O.s 			page 5


 207              		.cfi_startproc
 208 0000 08B5     		push	{r3, lr}
 209              		.cfi_def_cfa_offset 8
 210              		.cfi_offset 3, -8
 211              		.cfi_offset 14, -4
 212              		.loc 1 22 0
 213 0002 0348     		ldr	r0, .L20
 214 0004 0623     		mov	r3, #6
 215 0006 C370     		strb	r3, [r0, #3]
 216 0008 0321     		mov	r1, #3
 217 000a FFF7FEFF 		bl	simple_protocol_send
 218              	.LVL6:
 219              		@ sp needed
 220 000e 08BD     		pop	{r3, pc}
 221              	.L21:
 222              		.align	2
 223              	.L20:
 224 0010 00000000 		.word	app_send_buffer
 225              		.cfi_endproc
 226              	.LFE41:
 227              		.size	app_key_short_press_huan_qi_handler, .-app_key_short_press_huan_qi_handler
 228              		.section	.text.app_key_short_press_xin_feng_qu_nuan_handler,"ax",%progbits
 229              		.align	2
 230              		.global	app_key_short_press_xin_feng_qu_nuan_handler
 231              		.code	16
 232              		.thumb_func
 233              		.type	app_key_short_press_xin_feng_qu_nuan_handler, %function
 234              	app_key_short_press_xin_feng_qu_nuan_handler:
 235              	.LFB42:
  23:app.c         **** APP_KEY_HANDLER_DEFINE(short_press_xin_feng_qu_nuan, VALUE_SHORT_PRESS_XIN_FENG_QU_NUAN);
 236              		.loc 1 23 0
 237              		.cfi_startproc
 238 0000 08B5     		push	{r3, lr}
 239              		.cfi_def_cfa_offset 8
 240              		.cfi_offset 3, -8
 241              		.cfi_offset 14, -4
 242              		.loc 1 23 0
 243 0002 0348     		ldr	r0, .L23
 244 0004 0723     		mov	r3, #7
 245 0006 C370     		strb	r3, [r0, #3]
 246 0008 0321     		mov	r1, #3
 247 000a FFF7FEFF 		bl	simple_protocol_send
 248              	.LVL7:
 249              		@ sp needed
 250 000e 08BD     		pop	{r3, pc}
 251              	.L24:
 252              		.align	2
 253              	.L23:
 254 0010 00000000 		.word	app_send_buffer
 255              		.cfi_endproc
 256              	.LFE42:
 257              		.size	app_key_short_press_xin_feng_qu_nuan_handler, .-app_key_short_press_xin_feng_qu_nuan_handler
 258              		.section	.text.app_key_short_press_ding_shi_jia_handler,"ax",%progbits
 259              		.align	2
 260              		.global	app_key_short_press_ding_shi_jia_handler
 261              		.code	16
 262              		.thumb_func
ARM GAS  C:\Users\Administrator\AppData\Local\Temp\ccYqBY2O.s 			page 6


 263              		.type	app_key_short_press_ding_shi_jia_handler, %function
 264              	app_key_short_press_ding_shi_jia_handler:
 265              	.LFB43:
  24:app.c         **** APP_KEY_HANDLER_DEFINE(short_press_ding_shi_jia, VALUE_SHORT_PRESS_DINGSHI_JIA);
 266              		.loc 1 24 0
 267              		.cfi_startproc
 268 0000 08B5     		push	{r3, lr}
 269              		.cfi_def_cfa_offset 8
 270              		.cfi_offset 3, -8
 271              		.cfi_offset 14, -4
 272              		.loc 1 24 0
 273 0002 0348     		ldr	r0, .L26
 274 0004 0823     		mov	r3, #8
 275 0006 C370     		strb	r3, [r0, #3]
 276 0008 0321     		mov	r1, #3
 277 000a FFF7FEFF 		bl	simple_protocol_send
 278              	.LVL8:
 279              		@ sp needed
 280 000e 08BD     		pop	{r3, pc}
 281              	.L27:
 282              		.align	2
 283              	.L26:
 284 0010 00000000 		.word	app_send_buffer
 285              		.cfi_endproc
 286              	.LFE43:
 287              		.size	app_key_short_press_ding_shi_jia_handler, .-app_key_short_press_ding_shi_jia_handler
 288              		.section	.text.app_key_short_press_ding_shi_jian_handler,"ax",%progbits
 289              		.align	2
 290              		.global	app_key_short_press_ding_shi_jian_handler
 291              		.code	16
 292              		.thumb_func
 293              		.type	app_key_short_press_ding_shi_jian_handler, %function
 294              	app_key_short_press_ding_shi_jian_handler:
 295              	.LFB44:
  25:app.c         **** APP_KEY_HANDLER_DEFINE(short_press_ding_shi_jian, VALUE_SHORT_PRESS_DINGSHI_JIAN);
 296              		.loc 1 25 0
 297              		.cfi_startproc
 298 0000 08B5     		push	{r3, lr}
 299              		.cfi_def_cfa_offset 8
 300              		.cfi_offset 3, -8
 301              		.cfi_offset 14, -4
 302              		.loc 1 25 0
 303 0002 0348     		ldr	r0, .L29
 304 0004 0923     		mov	r3, #9
 305 0006 C370     		strb	r3, [r0, #3]
 306 0008 0321     		mov	r1, #3
 307 000a FFF7FEFF 		bl	simple_protocol_send
 308              	.LVL9:
 309              		@ sp needed
 310 000e 08BD     		pop	{r3, pc}
 311              	.L30:
 312              		.align	2
 313              	.L29:
 314 0010 00000000 		.word	app_send_buffer
 315              		.cfi_endproc
 316              	.LFE44:
 317              		.size	app_key_short_press_ding_shi_jian_handler, .-app_key_short_press_ding_shi_jian_handler
ARM GAS  C:\Users\Administrator\AppData\Local\Temp\ccYqBY2O.s 			page 7


 318              		.section	.text.app_key_short_press_bai_dong_handler,"ax",%progbits
 319              		.align	2
 320              		.global	app_key_short_press_bai_dong_handler
 321              		.code	16
 322              		.thumb_func
 323              		.type	app_key_short_press_bai_dong_handler, %function
 324              	app_key_short_press_bai_dong_handler:
 325              	.LFB45:
  26:app.c         **** APP_KEY_HANDLER_DEFINE(short_press_bai_dong, VALUE_SHORT_PRESS_BAI_DONG);
 326              		.loc 1 26 0
 327              		.cfi_startproc
 328 0000 08B5     		push	{r3, lr}
 329              		.cfi_def_cfa_offset 8
 330              		.cfi_offset 3, -8
 331              		.cfi_offset 14, -4
 332              		.loc 1 26 0
 333 0002 0348     		ldr	r0, .L32
 334 0004 0A23     		mov	r3, #10
 335 0006 C370     		strb	r3, [r0, #3]
 336 0008 0321     		mov	r1, #3
 337 000a FFF7FEFF 		bl	simple_protocol_send
 338              	.LVL10:
 339              		@ sp needed
 340 000e 08BD     		pop	{r3, pc}
 341              	.L33:
 342              		.align	2
 343              	.L32:
 344 0010 00000000 		.word	app_send_buffer
 345              		.cfi_endproc
 346              	.LFE45:
 347              		.size	app_key_short_press_bai_dong_handler, .-app_key_short_press_bai_dong_handler
 348              		.section	.text.app_key_short_press_zhi_neng_handler,"ax",%progbits
 349              		.align	2
 350              		.global	app_key_short_press_zhi_neng_handler
 351              		.code	16
 352              		.thumb_func
 353              		.type	app_key_short_press_zhi_neng_handler, %function
 354              	app_key_short_press_zhi_neng_handler:
 355              	.LFB46:
  27:app.c         **** APP_KEY_HANDLER_DEFINE(short_press_zhi_neng, VALUE_SHORT_PRESS_ZHI_NENG);
 356              		.loc 1 27 0
 357              		.cfi_startproc
 358 0000 08B5     		push	{r3, lr}
 359              		.cfi_def_cfa_offset 8
 360              		.cfi_offset 3, -8
 361              		.cfi_offset 14, -4
 362              		.loc 1 27 0
 363 0002 0348     		ldr	r0, .L35
 364 0004 0B23     		mov	r3, #11
 365 0006 C370     		strb	r3, [r0, #3]
 366 0008 0321     		mov	r1, #3
 367 000a FFF7FEFF 		bl	simple_protocol_send
 368              	.LVL11:
 369              		@ sp needed
 370 000e 08BD     		pop	{r3, pc}
 371              	.L36:
 372              		.align	2
ARM GAS  C:\Users\Administrator\AppData\Local\Temp\ccYqBY2O.s 			page 8


 373              	.L35:
 374 0010 00000000 		.word	app_send_buffer
 375              		.cfi_endproc
 376              	.LFE46:
 377              		.size	app_key_short_press_zhi_neng_handler, .-app_key_short_press_zhi_neng_handler
 378              		.section	.text.app_key_long_press_wen_du_jia_handler,"ax",%progbits
 379              		.align	2
 380              		.global	app_key_long_press_wen_du_jia_handler
 381              		.code	16
 382              		.thumb_func
 383              		.type	app_key_long_press_wen_du_jia_handler, %function
 384              	app_key_long_press_wen_du_jia_handler:
 385              	.LFB47:
  28:app.c         **** 
  29:app.c         **** APP_KEY_HANDLER_DEFINE(long_press_wen_du_jia, VALUE_LONG_PRESS_WEN_DU_JIA);
 386              		.loc 1 29 0
 387              		.cfi_startproc
 388 0000 08B5     		push	{r3, lr}
 389              		.cfi_def_cfa_offset 8
 390              		.cfi_offset 3, -8
 391              		.cfi_offset 14, -4
 392              		.loc 1 29 0
 393 0002 0348     		ldr	r0, .L38
 394 0004 0C23     		mov	r3, #12
 395 0006 C370     		strb	r3, [r0, #3]
 396 0008 0321     		mov	r1, #3
 397 000a FFF7FEFF 		bl	simple_protocol_send
 398              	.LVL12:
 399              		@ sp needed
 400 000e 08BD     		pop	{r3, pc}
 401              	.L39:
 402              		.align	2
 403              	.L38:
 404 0010 00000000 		.word	app_send_buffer
 405              		.cfi_endproc
 406              	.LFE47:
 407              		.size	app_key_long_press_wen_du_jia_handler, .-app_key_long_press_wen_du_jia_handler
 408              		.section	.text.app_key_long_press_ding_shi_jia_handler,"ax",%progbits
 409              		.align	2
 410              		.global	app_key_long_press_ding_shi_jia_handler
 411              		.code	16
 412              		.thumb_func
 413              		.type	app_key_long_press_ding_shi_jia_handler, %function
 414              	app_key_long_press_ding_shi_jia_handler:
 415              	.LFB48:
  30:app.c         **** APP_KEY_HANDLER_DEFINE(long_press_ding_shi_jia, VALUE_LONG_PRESS_DING_SHI_JIA);
 416              		.loc 1 30 0
 417              		.cfi_startproc
 418 0000 08B5     		push	{r3, lr}
 419              		.cfi_def_cfa_offset 8
 420              		.cfi_offset 3, -8
 421              		.cfi_offset 14, -4
 422              		.loc 1 30 0
 423 0002 0348     		ldr	r0, .L41
 424 0004 0D23     		mov	r3, #13
 425 0006 C370     		strb	r3, [r0, #3]
 426 0008 0321     		mov	r1, #3
ARM GAS  C:\Users\Administrator\AppData\Local\Temp\ccYqBY2O.s 			page 9


 427 000a FFF7FEFF 		bl	simple_protocol_send
 428              	.LVL13:
 429              		@ sp needed
 430 000e 08BD     		pop	{r3, pc}
 431              	.L42:
 432              		.align	2
 433              	.L41:
 434 0010 00000000 		.word	app_send_buffer
 435              		.cfi_endproc
 436              	.LFE48:
 437              		.size	app_key_long_press_ding_shi_jia_handler, .-app_key_long_press_ding_shi_jia_handler
 438              		.section	.text.app_key_long_press_ding_shi_jian_handler,"ax",%progbits
 439              		.align	2
 440              		.global	app_key_long_press_ding_shi_jian_handler
 441              		.code	16
 442              		.thumb_func
 443              		.type	app_key_long_press_ding_shi_jian_handler, %function
 444              	app_key_long_press_ding_shi_jian_handler:
 445              	.LFB49:
  31:app.c         **** APP_KEY_HANDLER_DEFINE(long_press_ding_shi_jian, VALUE_LONG_PRESS_DING_SHI_JIAN);
 446              		.loc 1 31 0
 447              		.cfi_startproc
 448 0000 08B5     		push	{r3, lr}
 449              		.cfi_def_cfa_offset 8
 450              		.cfi_offset 3, -8
 451              		.cfi_offset 14, -4
 452              		.loc 1 31 0
 453 0002 0348     		ldr	r0, .L44
 454 0004 0E23     		mov	r3, #14
 455 0006 C370     		strb	r3, [r0, #3]
 456 0008 0321     		mov	r1, #3
 457 000a FFF7FEFF 		bl	simple_protocol_send
 458              	.LVL14:
 459              		@ sp needed
 460 000e 08BD     		pop	{r3, pc}
 461              	.L45:
 462              		.align	2
 463              	.L44:
 464 0010 00000000 		.word	app_send_buffer
 465              		.cfi_endproc
 466              	.LFE49:
 467              		.size	app_key_long_press_ding_shi_jian_handler, .-app_key_long_press_ding_shi_jian_handler
 468              		.section	.text.app_key_long_release_ding_shi_jia_handler,"ax",%progbits
 469              		.align	2
 470              		.global	app_key_long_release_ding_shi_jia_handler
 471              		.code	16
 472              		.thumb_func
 473              		.type	app_key_long_release_ding_shi_jia_handler, %function
 474              	app_key_long_release_ding_shi_jia_handler:
 475              	.LFB50:
  32:app.c         **** 
  33:app.c         **** APP_KEY_HANDLER_DEFINE(long_release_ding_shi_jia,  VALUE_LONG_RELEASE_DING_SHI_JIA);
 476              		.loc 1 33 0
 477              		.cfi_startproc
 478 0000 08B5     		push	{r3, lr}
 479              		.cfi_def_cfa_offset 8
 480              		.cfi_offset 3, -8
ARM GAS  C:\Users\Administrator\AppData\Local\Temp\ccYqBY2O.s 			page 10


 481              		.cfi_offset 14, -4
 482              		.loc 1 33 0
 483 0002 0348     		ldr	r0, .L47
 484 0004 0F23     		mov	r3, #15
 485 0006 C370     		strb	r3, [r0, #3]
 486 0008 0321     		mov	r1, #3
 487 000a FFF7FEFF 		bl	simple_protocol_send
 488              	.LVL15:
 489              		@ sp needed
 490 000e 08BD     		pop	{r3, pc}
 491              	.L48:
 492              		.align	2
 493              	.L47:
 494 0010 00000000 		.word	app_send_buffer
 495              		.cfi_endproc
 496              	.LFE50:
 497              		.size	app_key_long_release_ding_shi_jia_handler, .-app_key_long_release_ding_shi_jia_handler
 498              		.section	.text.app_key_long_release_ding_shi_jian_handler,"ax",%progbits
 499              		.align	2
 500              		.global	app_key_long_release_ding_shi_jian_handler
 501              		.code	16
 502              		.thumb_func
 503              		.type	app_key_long_release_ding_shi_jian_handler, %function
 504              	app_key_long_release_ding_shi_jian_handler:
 505              	.LFB51:
  34:app.c         **** APP_KEY_HANDLER_DEFINE(long_release_ding_shi_jian, VALUE_LONG_RELEASE_DING_SHI_JIAN);
 506              		.loc 1 34 0
 507              		.cfi_startproc
 508 0000 08B5     		push	{r3, lr}
 509              		.cfi_def_cfa_offset 8
 510              		.cfi_offset 3, -8
 511              		.cfi_offset 14, -4
 512              		.loc 1 34 0
 513 0002 0348     		ldr	r0, .L50
 514 0004 1023     		mov	r3, #16
 515 0006 C370     		strb	r3, [r0, #3]
 516 0008 0321     		mov	r1, #3
 517 000a FFF7FEFF 		bl	simple_protocol_send
 518              	.LVL16:
 519              		@ sp needed
 520 000e 08BD     		pop	{r3, pc}
 521              	.L51:
 522              		.align	2
 523              	.L50:
 524 0010 00000000 		.word	app_send_buffer
 525              		.cfi_endproc
 526              	.LFE51:
 527              		.size	app_key_long_release_ding_shi_jian_handler, .-app_key_long_release_ding_shi_jian_handler
 528              		.section	.text.app_key_combine_wen_jia_ding_jia_handler,"ax",%progbits
 529              		.align	2
 530              		.global	app_key_combine_wen_jia_ding_jia_handler
 531              		.code	16
 532              		.thumb_func
 533              		.type	app_key_combine_wen_jia_ding_jia_handler, %function
 534              	app_key_combine_wen_jia_ding_jia_handler:
 535              	.LFB52:
  35:app.c         **** 
ARM GAS  C:\Users\Administrator\AppData\Local\Temp\ccYqBY2O.s 			page 11


  36:app.c         **** APP_KEY_HANDLER_DEFINE(combine_wen_jia_ding_jia, VALUE_COMBINE_WA_DA);
 536              		.loc 1 36 0
 537              		.cfi_startproc
 538 0000 08B5     		push	{r3, lr}
 539              		.cfi_def_cfa_offset 8
 540              		.cfi_offset 3, -8
 541              		.cfi_offset 14, -4
 542              		.loc 1 36 0
 543 0002 0348     		ldr	r0, .L53
 544 0004 1123     		mov	r3, #17
 545 0006 C370     		strb	r3, [r0, #3]
 546 0008 0321     		mov	r1, #3
 547 000a FFF7FEFF 		bl	simple_protocol_send
 548              	.LVL17:
 549              		@ sp needed
 550 000e 08BD     		pop	{r3, pc}
 551              	.L54:
 552              		.align	2
 553              	.L53:
 554 0010 00000000 		.word	app_send_buffer
 555              		.cfi_endproc
 556              	.LFE52:
 557              		.size	app_key_combine_wen_jia_ding_jia_handler, .-app_key_combine_wen_jia_ding_jia_handler
 558              		.section	.text.app_key_combine_wen_jian_ding_jian_handler,"ax",%progbits
 559              		.align	2
 560              		.global	app_key_combine_wen_jian_ding_jian_handler
 561              		.code	16
 562              		.thumb_func
 563              		.type	app_key_combine_wen_jian_ding_jian_handler, %function
 564              	app_key_combine_wen_jian_ding_jian_handler:
 565              	.LFB53:
  37:app.c         **** APP_KEY_HANDLER_DEFINE(combine_wen_jian_ding_jian, VALUE_COMBINE_WM_DM);
 566              		.loc 1 37 0
 567              		.cfi_startproc
 568 0000 08B5     		push	{r3, lr}
 569              		.cfi_def_cfa_offset 8
 570              		.cfi_offset 3, -8
 571              		.cfi_offset 14, -4
 572              		.loc 1 37 0
 573 0002 0348     		ldr	r0, .L56
 574 0004 1223     		mov	r3, #18
 575 0006 C370     		strb	r3, [r0, #3]
 576 0008 0321     		mov	r1, #3
 577 000a FFF7FEFF 		bl	simple_protocol_send
 578              	.LVL18:
 579              		@ sp needed
 580 000e 08BD     		pop	{r3, pc}
 581              	.L57:
 582              		.align	2
 583              	.L56:
 584 0010 00000000 		.word	app_send_buffer
 585              		.cfi_endproc
 586              	.LFE53:
 587              		.size	app_key_combine_wen_jian_ding_jian_handler, .-app_key_combine_wen_jian_ding_jian_handler
 588              		.section	.text.app_key_combine_ding_jian_dian_yuan_handler,"ax",%progbits
 589              		.align	2
 590              		.global	app_key_combine_ding_jian_dian_yuan_handler
ARM GAS  C:\Users\Administrator\AppData\Local\Temp\ccYqBY2O.s 			page 12


 591              		.code	16
 592              		.thumb_func
 593              		.type	app_key_combine_ding_jian_dian_yuan_handler, %function
 594              	app_key_combine_ding_jian_dian_yuan_handler:
 595              	.LFB54:
  38:app.c         **** APP_KEY_HANDLER_DEFINE(combine_ding_jian_dian_yuan, VALUE_COMBINE_DM_DIAN_YUAN);
 596              		.loc 1 38 0
 597              		.cfi_startproc
 598 0000 08B5     		push	{r3, lr}
 599              		.cfi_def_cfa_offset 8
 600              		.cfi_offset 3, -8
 601              		.cfi_offset 14, -4
 602              		.loc 1 38 0
 603 0002 0348     		ldr	r0, .L59
 604 0004 1323     		mov	r3, #19
 605 0006 C370     		strb	r3, [r0, #3]
 606 0008 0321     		mov	r1, #3
 607 000a FFF7FEFF 		bl	simple_protocol_send
 608              	.LVL19:
 609              		@ sp needed
 610 000e 08BD     		pop	{r3, pc}
 611              	.L60:
 612              		.align	2
 613              	.L59:
 614 0010 00000000 		.word	app_send_buffer
 615              		.cfi_endproc
 616              	.LFE54:
 617              		.size	app_key_combine_ding_jian_dian_yuan_handler, .-app_key_combine_ding_jian_dian_yuan_handler
 618              		.section	.text.app_init,"ax",%progbits
 619              		.align	2
 620              		.global	app_init
 621              		.code	16
 622              		.thumb_func
 623              		.type	app_init, %function
 624              	app_init:
 625              	.LFB55:
  39:app.c         **** 
  40:app.c         **** void app_init(void)
  41:app.c         **** {
 626              		.loc 1 41 0
 627              		.cfi_startproc
 628 0000 08B5     		push	{r3, lr}
 629              		.cfi_def_cfa_offset 8
 630              		.cfi_offset 3, -8
 631              		.cfi_offset 14, -4
  42:app.c         ****     key_add_event_handler(KEY_DIAN_YUAN, KEY_EVENT_SHORT_PRESS, APP_KEY_HANDlER(short_press_dian_yu
 632              		.loc 1 42 0
 633 0002 0020     		mov	r0, #0
 634 0004 0021     		mov	r1, #0
 635 0006 314A     		ldr	r2, .L62
 636 0008 FFF7FEFF 		bl	key_add_event_handler
 637              	.LVL20:
  43:app.c         ****     key_add_event_handler(KEY_FENG_NUAN, KEY_EVENT_SHORT_PRESS, APP_KEY_HANDlER(short_press_feng_nu
 638              		.loc 1 43 0
 639 000c 0120     		mov	r0, #1
 640 000e 0021     		mov	r1, #0
 641 0010 2F4A     		ldr	r2, .L62+4
ARM GAS  C:\Users\Administrator\AppData\Local\Temp\ccYqBY2O.s 			page 13


 642 0012 FFF7FEFF 		bl	key_add_event_handler
 643              	.LVL21:
  44:app.c         ****     key_add_event_handler(KEY_WENDU_JIA, KEY_EVENT_SHORT_PRESS, APP_KEY_HANDlER(short_press_wen_du_
 644              		.loc 1 44 0
 645 0016 0220     		mov	r0, #2
 646 0018 0021     		mov	r1, #0
 647 001a 2E4A     		ldr	r2, .L62+8
 648 001c FFF7FEFF 		bl	key_add_event_handler
 649              	.LVL22:
  45:app.c         ****     key_add_event_handler(KEY_WENDU_JIAN, KEY_EVENT_SHORT_PRESS, APP_KEY_HANDlER(short_press_wen_du
 650              		.loc 1 45 0
 651 0020 0320     		mov	r0, #3
 652 0022 0021     		mov	r1, #0
 653 0024 2C4A     		ldr	r2, .L62+12
 654 0026 FFF7FEFF 		bl	key_add_event_handler
 655              	.LVL23:
  46:app.c         ****     key_add_event_handler(KEY_XIN_FENG, KEY_EVENT_SHORT_PRESS, APP_KEY_HANDlER(short_press_xin_feng
 656              		.loc 1 46 0
 657 002a 0420     		mov	r0, #4
 658 002c 0021     		mov	r1, #0
 659 002e 2B4A     		ldr	r2, .L62+16
 660 0030 FFF7FEFF 		bl	key_add_event_handler
 661              	.LVL24:
  47:app.c         ****     key_add_event_handler(KEY_QING_RUO, KEY_EVENT_SHORT_PRESS, APP_KEY_HANDlER(short_press_qiang_ru
 662              		.loc 1 47 0
 663 0034 0520     		mov	r0, #5
 664 0036 0021     		mov	r1, #0
 665 0038 294A     		ldr	r2, .L62+20
 666 003a FFF7FEFF 		bl	key_add_event_handler
 667              	.LVL25:
  48:app.c         ****     key_add_event_handler(KEY_HUAN_QI, KEY_EVENT_SHORT_PRESS, APP_KEY_HANDlER(short_press_huan_qi))
 668              		.loc 1 48 0
 669 003e 0620     		mov	r0, #6
 670 0040 0021     		mov	r1, #0
 671 0042 284A     		ldr	r2, .L62+24
 672 0044 FFF7FEFF 		bl	key_add_event_handler
 673              	.LVL26:
  49:app.c         ****     key_add_event_handler(KEY_XIN_FENG_QU_NUAN, KEY_EVENT_SHORT_PRESS, APP_KEY_HANDlER(short_press_
 674              		.loc 1 49 0
 675 0048 0720     		mov	r0, #7
 676 004a 0021     		mov	r1, #0
 677 004c 264A     		ldr	r2, .L62+28
 678 004e FFF7FEFF 		bl	key_add_event_handler
 679              	.LVL27:
  50:app.c         ****     key_add_event_handler(KEY_DINGSHI_JIA, KEY_EVENT_SHORT_PRESS, APP_KEY_HANDlER(short_press_ding_
 680              		.loc 1 50 0
 681 0052 0820     		mov	r0, #8
 682 0054 0021     		mov	r1, #0
 683 0056 254A     		ldr	r2, .L62+32
 684 0058 FFF7FEFF 		bl	key_add_event_handler
 685              	.LVL28:
  51:app.c         ****     key_add_event_handler(KEY_DINGSHI_JIAN, KEY_EVENT_SHORT_PRESS, APP_KEY_HANDlER(short_press_ding
 686              		.loc 1 51 0
 687 005c 0920     		mov	r0, #9
 688 005e 0021     		mov	r1, #0
 689 0060 234A     		ldr	r2, .L62+36
 690 0062 FFF7FEFF 		bl	key_add_event_handler
ARM GAS  C:\Users\Administrator\AppData\Local\Temp\ccYqBY2O.s 			page 14


 691              	.LVL29:
  52:app.c         ****     key_add_event_handler(KEY_BAI_DONG, KEY_EVENT_SHORT_PRESS, APP_KEY_HANDlER(short_press_bai_dong
 692              		.loc 1 52 0
 693 0066 0A20     		mov	r0, #10
 694 0068 0021     		mov	r1, #0
 695 006a 224A     		ldr	r2, .L62+40
 696 006c FFF7FEFF 		bl	key_add_event_handler
 697              	.LVL30:
  53:app.c         ****     key_add_event_handler(KEY_ZHI_NENG, KEY_EVENT_SHORT_PRESS, APP_KEY_HANDlER(short_press_zhi_neng
 698              		.loc 1 53 0
 699 0070 0B20     		mov	r0, #11
 700 0072 0021     		mov	r1, #0
 701 0074 204A     		ldr	r2, .L62+44
 702 0076 FFF7FEFF 		bl	key_add_event_handler
 703              	.LVL31:
  54:app.c         ****     
  55:app.c         ****     key_add_event_handler(KEY_WENDU_JIA, KEY_EVENT_LONG_PRESS, APP_KEY_HANDlER(long_press_wen_du_ji
 704              		.loc 1 55 0
 705 007a 0220     		mov	r0, #2
 706 007c 0121     		mov	r1, #1
 707 007e 1F4A     		ldr	r2, .L62+48
 708 0080 FFF7FEFF 		bl	key_add_event_handler
 709              	.LVL32:
  56:app.c         ****     key_add_event_handler(KEY_DINGSHI_JIA, KEY_EVENT_LONG_PRESS, APP_KEY_HANDlER(long_press_ding_sh
 710              		.loc 1 56 0
 711 0084 0820     		mov	r0, #8
 712 0086 0121     		mov	r1, #1
 713 0088 1D4A     		ldr	r2, .L62+52
 714 008a FFF7FEFF 		bl	key_add_event_handler
 715              	.LVL33:
  57:app.c         ****     key_add_event_handler(KEY_DINGSHI_JIAN, KEY_EVENT_LONG_PRESS, APP_KEY_HANDlER(long_press_ding_s
 716              		.loc 1 57 0
 717 008e 0920     		mov	r0, #9
 718 0090 0121     		mov	r1, #1
 719 0092 1C4A     		ldr	r2, .L62+56
 720 0094 FFF7FEFF 		bl	key_add_event_handler
 721              	.LVL34:
  58:app.c         ****     
  59:app.c         ****     key_add_event_handler(KEY_DINGSHI_JIA, KEY_EVENT_LONG_RELEASE, APP_KEY_HANDlER(long_release_din
 722              		.loc 1 59 0
 723 0098 0820     		mov	r0, #8
 724 009a 0221     		mov	r1, #2
 725 009c 1A4A     		ldr	r2, .L62+60
 726 009e FFF7FEFF 		bl	key_add_event_handler
 727              	.LVL35:
  60:app.c         ****     key_add_event_handler(KEY_DINGSHI_JIAN, KEY_EVENT_LONG_RELEASE, APP_KEY_HANDlER(long_release_di
 728              		.loc 1 60 0
 729 00a2 0920     		mov	r0, #9
 730 00a4 0221     		mov	r1, #2
 731 00a6 194A     		ldr	r2, .L62+64
 732 00a8 FFF7FEFF 		bl	key_add_event_handler
 733              	.LVL36:
  61:app.c         ****     
  62:app.c         ****     key_add_combine_handler(KEY_WENDU_JIA, KEY_DINGSHI_JIA, APP_KEY_HANDlER(combine_wen_jia_ding_ji
 734              		.loc 1 62 0
 735 00ac 0220     		mov	r0, #2
 736 00ae 0821     		mov	r1, #8
ARM GAS  C:\Users\Administrator\AppData\Local\Temp\ccYqBY2O.s 			page 15


 737 00b0 174A     		ldr	r2, .L62+68
 738 00b2 FFF7FEFF 		bl	key_add_combine_handler
 739              	.LVL37:
  63:app.c         ****     key_add_combine_handler(KEY_WENDU_JIAN, KEY_DINGSHI_JIAN, APP_KEY_HANDlER(combine_wen_jian_ding
 740              		.loc 1 63 0
 741 00b6 0320     		mov	r0, #3
 742 00b8 0921     		mov	r1, #9
 743 00ba 164A     		ldr	r2, .L62+72
 744 00bc FFF7FEFF 		bl	key_add_combine_handler
 745              	.LVL38:
  64:app.c         ****     key_add_combine_handler(KEY_DINGSHI_JIAN, KEY_DIAN_YUAN, APP_KEY_HANDlER(combine_ding_jian_dian
 746              		.loc 1 64 0
 747 00c0 0920     		mov	r0, #9
 748 00c2 0021     		mov	r1, #0
 749 00c4 144A     		ldr	r2, .L62+76
 750 00c6 FFF7FEFF 		bl	key_add_combine_handler
 751              	.LVL39:
  65:app.c         **** }
 752              		.loc 1 65 0
 753              		@ sp needed
 754 00ca 08BD     		pop	{r3, pc}
 755              	.L63:
 756              		.align	2
 757              	.L62:
 758 00cc 00000000 		.word	app_key_short_press_dian_yuan_handler
 759 00d0 00000000 		.word	app_key_short_press_feng_nuan_handler
 760 00d4 00000000 		.word	app_key_short_press_wen_du_jia_handler
 761 00d8 00000000 		.word	app_key_short_press_wen_du_jian_handler
 762 00dc 00000000 		.word	app_key_short_press_xin_feng_handler
 763 00e0 00000000 		.word	app_key_short_press_qiang_ruo_handler
 764 00e4 00000000 		.word	app_key_short_press_huan_qi_handler
 765 00e8 00000000 		.word	app_key_short_press_xin_feng_qu_nuan_handler
 766 00ec 00000000 		.word	app_key_short_press_ding_shi_jia_handler
 767 00f0 00000000 		.word	app_key_short_press_ding_shi_jian_handler
 768 00f4 00000000 		.word	app_key_short_press_bai_dong_handler
 769 00f8 00000000 		.word	app_key_short_press_zhi_neng_handler
 770 00fc 00000000 		.word	app_key_long_press_wen_du_jia_handler
 771 0100 00000000 		.word	app_key_long_press_ding_shi_jia_handler
 772 0104 00000000 		.word	app_key_long_press_ding_shi_jian_handler
 773 0108 00000000 		.word	app_key_long_release_ding_shi_jia_handler
 774 010c 00000000 		.word	app_key_long_release_ding_shi_jian_handler
 775 0110 00000000 		.word	app_key_combine_wen_jia_ding_jia_handler
 776 0114 00000000 		.word	app_key_combine_wen_jian_ding_jian_handler
 777 0118 00000000 		.word	app_key_combine_ding_jian_dian_yuan_handler
 778              		.cfi_endproc
 779              	.LFE55:
 780              		.size	app_init, .-app_init
 781              		.comm	app_send_buffer,10,4
 782              		.text
 783              	.Letext0:
 784              		.file 2 "types.h"
 785              		.file 3 "app.h"
 786              		.file 4 "key_config.h"
 787              		.file 5 "key.h"
 788              		.file 6 "simple_protocol.h"