ARM GAS  C:\Users\Administrator\AppData\Local\Temp\ccmrfSYd.s 			page 1


   1              		.cpu cortex-m0plus
   2              		.fpu softvfp
   3              		.eabi_attribute 20, 1
   4              		.eabi_attribute 21, 1
   5              		.eabi_attribute 23, 3
   6              		.eabi_attribute 24, 1
   7              		.eabi_attribute 25, 1
   8              		.eabi_attribute 26, 1
   9              		.eabi_attribute 30, 1
  10              		.eabi_attribute 34, 0
  11              		.eabi_attribute 18, 4
  12              		.code	16
  13              		.file	"key.c"
  14              		.text
  15              	.Ltext0:
  16              		.cfi_sections	.debug_frame
  17              		.section	.text.key_event_deal,"ax",%progbits
  18              		.align	2
  19              		.code	16
  20              		.thumb_func
  21              		.type	key_event_deal, %function
  22              	key_event_deal:
  23              	.LFB39:
  24              		.file 1 "key.c"
   1:key.c         **** /* ========================================
   2:key.c         ****  *
   3:key.c         ****  * Copyright YOUR COMPANY, THE YEAR
   4:key.c         ****  * All Rights Reserved
   5:key.c         ****  * UNPUBLISHED, LICENSED SOFTWARE.
   6:key.c         ****  *
   7:key.c         ****  * CONFIDENTIAL AND PROPRIETARY INFORMATION
   8:key.c         ****  * WHICH IS THE PROPERTY OF your company.
   9:key.c         ****  *
  10:key.c         ****  * ========================================
  11:key.c         **** */
  12:key.c         **** #include "key.h"
  13:key.c         **** 
  14:key.c         **** 
  15:key.c         **** static Key_event_handler event_handlers[KEY_NUMBER][KEY_EVENT_NUMBER - 1];     //KEY_STUCK不需要
  16:key.c         **** 
  17:key.c         **** #define  KEY_COMBINE_MAX_NUMBER 3u
  18:key.c         **** static uint8 combine_key_number = 0;
  19:key.c         **** static Key_combine combine_keys[KEY_COMBINE_MAX_NUMBER];
  20:key.c         **** 
  21:key.c         **** static void key_event_deal(Key_Index i, Key_event e);
  22:key.c         **** static void key_combine_deal(Key_Index i, Key_Index j);
  23:key.c         **** static void key_conbine_check(void);
  24:key.c         **** 
  25:key.c         **** Key keys[KEY_NUMBER];
  26:key.c         **** Key_state state[KEY_NUMBER];
  27:key.c         **** 
  28:key.c         **** const uint8 key_debounce_time = 40 / KEY_MODULE_SCHEDULE_PERIOD;
  29:key.c         **** const uint16 key_long_press_time = 3000 / KEY_MODULE_SCHEDULE_PERIOD;
  30:key.c         **** const uint16 key_stuck_time = 10000 / KEY_MODULE_SCHEDULE_PERIOD;
  31:key.c         **** 
  32:key.c         **** void key_init(void)
  33:key.c         **** {
ARM GAS  C:\Users\Administrator\AppData\Local\Temp\ccmrfSYd.s 			page 2


  34:key.c         ****     Key_Index i;
  35:key.c         ****     
  36:key.c         ****     memset(keys, 0, sizeof (Key) * KEY_NUMBER);
  37:key.c         ****     for (i = 0; i < KEY_NUMBER; i++)
  38:key.c         ****     {
  39:key.c         ****         keys[i].pin = input_pins[i];
  40:key.c         ****         keys[i].active_level = LEVEL_HIGH;
  41:key.c         ****         keys[i].level_time = 0;
  42:key.c         ****         state[i] = KEY_RELEASE;
  43:key.c         ****     }
  44:key.c         **** }
  45:key.c         **** 
  46:key.c         **** void key_main(void)
  47:key.c         **** {
  48:key.c         ****     Key_Index i;
  49:key.c         ****     
  50:key.c         ****     for (i = 0; i < KEY_NUMBER; i++)
  51:key.c         ****     {
  52:key.c         ****         keys[i].current_level = keys[i].pin();
  53:key.c         **** 
  54:key.c         ****         if (keys[i].current_level == keys[i].previous_level)
  55:key.c         ****         {
  56:key.c         ****             keys[i].level_time++;
  57:key.c         ****             if (keys[i].level_time < key_debounce_time)
  58:key.c         ****                 continue;
  59:key.c         ****             
  60:key.c         ****             //此时keys[i].level_time >= 消抖时间
  61:key.c         ****             switch(state[i])
  62:key.c         ****             {
  63:key.c         ****                 case KEY_RELEASE: 
  64:key.c         ****                     if (keys[i].current_level == keys[i].active_level)
  65:key.c         ****                     {
  66:key.c         ****                         state[i] = KEY_PRESS;
  67:key.c         ****                         key_conbine_check();
  68:key.c         ****                     }
  69:key.c         ****                     break;
  70:key.c         ****                 case KEY_PRESS: 
  71:key.c         ****                     if (keys[i].current_level != keys[i].active_level)
  72:key.c         ****                     {
  73:key.c         ****                         state[i] = KEY_RELEASE;
  74:key.c         ****                         key_event_deal(i, KEY_EVENT_SHORT_PRESS);
  75:key.c         ****                     }
  76:key.c         ****                     else
  77:key.c         ****                     {
  78:key.c         ****                         if (keys[i].level_time > key_long_press_time)
  79:key.c         ****                         {
  80:key.c         ****                             state[i] = KEY_LONG_PRESS;
  81:key.c         ****                             key_event_deal(i, KEY_EVENT_LONG_PRESS);
  82:key.c         ****                         }
  83:key.c         ****                     }
  84:key.c         ****                     break;
  85:key.c         ****                 case KEY_LONG_PRESS:
  86:key.c         ****                     if (keys[i].current_level != keys[i].active_level)
  87:key.c         ****                     {
  88:key.c         ****                         state[i] = KEY_RELEASE;
  89:key.c         ****                         key_event_deal(i, KEY_EVENT_LONG_RELEASE);
  90:key.c         ****                     }
ARM GAS  C:\Users\Administrator\AppData\Local\Temp\ccmrfSYd.s 			page 3


  91:key.c         ****                     else
  92:key.c         ****                     {
  93:key.c         ****                         if (keys[i].level_time > key_stuck_time)
  94:key.c         ****                         {
  95:key.c         ****                             state[i] = KEY_STUCK;
  96:key.c         ****                         }
  97:key.c         ****                     }
  98:key.c         ****                     break;
  99:key.c         ****                 case KEY_STUCK:
 100:key.c         ****                     if (keys[i].current_level != keys[i].active_level)
 101:key.c         ****                         state[i] = KEY_RELEASE;
 102:key.c         ****                     //防止level_time变量发生上溢
 103:key.c         ****                     if (keys[i].level_time > 50000u)
 104:key.c         ****                         keys[i].level_time = 15000;
 105:key.c         ****                     break;
 106:key.c         ****             }
 107:key.c         ****         }
 108:key.c         ****         else
 109:key.c         ****         {
 110:key.c         ****             keys[i].level_time = 0;
 111:key.c         ****             keys[i].previous_level = keys[i].current_level;
 112:key.c         ****         }
 113:key.c         ****     }
 114:key.c         ****     
 115:key.c         **** }
 116:key.c         **** 
 117:key.c         **** Bool key_add_event_handler(Key_Index i, Key_event e, Key_event_handler h)
 118:key.c         **** {
 119:key.c         ****     if (i >= KEY_NUMBER || e >= KEY_EVENT_NUMBER)
 120:key.c         ****         return FALSE;
 121:key.c         ****     else
 122:key.c         ****     {
 123:key.c         ****         event_handlers[i][e] = h;
 124:key.c         ****         return TRUE;
 125:key.c         ****     }
 126:key.c         **** }
 127:key.c         **** 
 128:key.c         **** Bool key_add_combine_handler(Key_Index i, Key_Index j, Key_conbine_handler h)
 129:key.c         **** {
 130:key.c         ****     Key_Index key1, key2;
 131:key.c         ****     
 132:key.c         ****     if (combine_key_number >= KEY_COMBINE_MAX_NUMBER)
 133:key.c         ****         return FALSE;
 134:key.c         ****     if (i == j)
 135:key.c         ****         return FALSE;
 136:key.c         ****     if (h == NULL)
 137:key.c         ****         return FALSE;
 138:key.c         ****     
 139:key.c         ****     key1 = MIN(i, j);
 140:key.c         ****     key2 = MAX(i, j);
 141:key.c         ****     combine_keys[combine_key_number].key1 = key1;
 142:key.c         ****     combine_keys[combine_key_number].key2 = key2;
 143:key.c         ****     combine_keys[combine_key_number].handler = h;
 144:key.c         ****     combine_key_number++;
 145:key.c         ****     
 146:key.c         ****     return TRUE;
 147:key.c         **** }
ARM GAS  C:\Users\Administrator\AppData\Local\Temp\ccmrfSYd.s 			page 4


 148:key.c         **** 
 149:key.c         **** static void key_event_deal(Key_Index i, Key_event e)
 150:key.c         **** {
  25              		.loc 1 150 0
  26              		.cfi_startproc
  27              	.LVL0:
  28 0000 08B5     		push	{r3, lr}
  29              		.cfi_def_cfa_offset 8
  30              		.cfi_offset 3, -8
  31              		.cfi_offset 14, -4
 151:key.c         ****     if (i >= KEY_NUMBER || e >= KEY_EVENT_NUMBER)
  32              		.loc 1 151 0
  33 0002 0B28     		cmp	r0, #11
  34 0004 0AD8     		bhi	.L1
  35              		.loc 1 151 0 is_stmt 0 discriminator 1
  36 0006 0329     		cmp	r1, #3
  37 0008 08D8     		bhi	.L1
 152:key.c         ****         return;
 153:key.c         ****     if (event_handlers[i][e] != NULL)
  38              		.loc 1 153 0 is_stmt 1
  39 000a 4300     		lsl	r3, r0, #1
  40 000c 1818     		add	r0, r3, r0
  41              	.LVL1:
  42 000e 4018     		add	r0, r0, r1
  43 0010 8000     		lsl	r0, r0, #2
  44 0012 034B     		ldr	r3, .L3
  45 0014 C358     		ldr	r3, [r0, r3]
  46 0016 002B     		cmp	r3, #0
  47 0018 00D0     		beq	.L1
 154:key.c         ****         event_handlers[i][e]();
  48              		.loc 1 154 0
  49 001a 9847     		blx	r3
  50              	.LVL2:
  51              	.L1:
 155:key.c         **** }
  52              		.loc 1 155 0
  53              		@ sp needed
  54 001c 08BD     		pop	{r3, pc}
  55              	.L4:
  56 001e C046     		.align	2
  57              	.L3:
  58 0020 00000000 		.word	.LANCHOR0
  59              		.cfi_endproc
  60              	.LFE39:
  61              		.size	key_event_deal, .-key_event_deal
  62              		.section	.text.key_combine_deal,"ax",%progbits
  63              		.align	2
  64              		.code	16
  65              		.thumb_func
  66              		.type	key_combine_deal, %function
  67              	key_combine_deal:
  68              	.LFB40:
 156:key.c         **** 
 157:key.c         **** static void key_combine_deal(Key_Index i, Key_Index j)
 158:key.c         **** {
  69              		.loc 1 158 0
  70              		.cfi_startproc
ARM GAS  C:\Users\Administrator\AppData\Local\Temp\ccmrfSYd.s 			page 5


  71              	.LVL3:
  72 0000 70B5     		push	{r4, r5, r6, lr}
  73              		.cfi_def_cfa_offset 16
  74              		.cfi_offset 4, -16
  75              		.cfi_offset 5, -12
  76              		.cfi_offset 6, -8
  77              		.cfi_offset 14, -4
 159:key.c         ****     uint8 n;
 160:key.c         ****     Key_Index key1, key2;
 161:key.c         ****     
 162:key.c         ****     if (i == j)
  78              		.loc 1 162 0
  79 0002 8842     		cmp	r0, r1
  80 0004 24D0     		beq	.L5
 163:key.c         ****         return;
 164:key.c         ****     
 165:key.c         ****     key1 = MIN(i, j);
  81              		.loc 1 165 0
  82 0006 0D1C     		add	r5, r1, #0
  83 0008 8142     		cmp	r1, r0
  84 000a 00D9     		bls	.L7
  85 000c 051C     		add	r5, r0, #0
  86              	.L7:
  87 000e EDB2     		uxtb	r5, r5
  88              	.LVL4:
 166:key.c         ****     key2 = MAX(i, j);
  89              		.loc 1 166 0
  90 0010 0E1C     		add	r6, r1, #0
  91 0012 8142     		cmp	r1, r0
  92 0014 00D2     		bcs	.L8
  93 0016 061C     		add	r6, r0, #0
  94              	.L8:
  95 0018 F6B2     		uxtb	r6, r6
  96              	.LVL5:
 167:key.c         ****     for (n = 0; n < combine_key_number; n++)
  97              		.loc 1 167 0
  98 001a 0024     		mov	r4, #0
  99 001c 13E0     		b	.L9
 100              	.LVL6:
 101              	.L11:
 168:key.c         ****     {
 169:key.c         ****         if (combine_keys[n].handler == NULL)
 102              		.loc 1 169 0
 103 001e E300     		lsl	r3, r4, #3
 104 0020 0C49     		ldr	r1, .L12
 105 0022 CB18     		add	r3, r1, r3
 106 0024 5969     		ldr	r1, [r3, #20]
 107 0026 0029     		cmp	r1, #0
 108 0028 0BD0     		beq	.L10
 170:key.c         ****             continue;
 171:key.c         ****         if (combine_keys[n].key1 == key1 && combine_keys[n].key2 == key2)
 109              		.loc 1 171 0
 110 002a E300     		lsl	r3, r4, #3
 111 002c 0948     		ldr	r0, .L12
 112 002e C318     		add	r3, r0, r3
 113 0030 1B7C     		ldrb	r3, [r3, #16]
 114 0032 AB42     		cmp	r3, r5
ARM GAS  C:\Users\Administrator\AppData\Local\Temp\ccmrfSYd.s 			page 6


 115 0034 05D1     		bne	.L10
 116              		.loc 1 171 0 is_stmt 0 discriminator 1
 117 0036 E200     		lsl	r2, r4, #3
 118 0038 8218     		add	r2, r0, r2
 119 003a 537C     		ldrb	r3, [r2, #17]
 120 003c B342     		cmp	r3, r6
 121 003e 00D1     		bne	.L10
 172:key.c         ****             combine_keys[n].handler();
 122              		.loc 1 172 0 is_stmt 1
 123 0040 8847     		blx	r1
 124              	.LVL7:
 125              	.L10:
 167:key.c         ****     {
 126              		.loc 1 167 0 discriminator 2
 127 0042 0134     		add	r4, r4, #1
 128              	.LVL8:
 129 0044 E4B2     		uxtb	r4, r4
 130              	.LVL9:
 131              	.L9:
 167:key.c         ****     {
 132              		.loc 1 167 0 is_stmt 0 discriminator 1
 133 0046 2823     		mov	r3, #40
 134 0048 024A     		ldr	r2, .L12
 135 004a D35C     		ldrb	r3, [r2, r3]
 136 004c 9C42     		cmp	r4, r3
 137 004e E6D3     		bcc	.L11
 138              	.LVL10:
 139              	.L5:
 173:key.c         ****     }
 174:key.c         ****    
 175:key.c         **** }
 140              		.loc 1 175 0 is_stmt 1
 141              		@ sp needed
 142 0050 70BD     		pop	{r4, r5, r6, pc}
 143              	.L13:
 144 0052 C046     		.align	2
 145              	.L12:
 146 0054 80000000 		.word	.LANCHOR1
 147              		.cfi_endproc
 148              	.LFE40:
 149              		.size	key_combine_deal, .-key_combine_deal
 150              		.section	.text.key_conbine_check,"ax",%progbits
 151              		.align	2
 152              		.code	16
 153              		.thumb_func
 154              		.type	key_conbine_check, %function
 155              	key_conbine_check:
 156              	.LFB41:
 176:key.c         **** 
 177:key.c         **** static void key_conbine_check(void)
 178:key.c         **** {
 157              		.loc 1 178 0
 158              		.cfi_startproc
 159 0000 10B5     		push	{r4, lr}
 160              		.cfi_def_cfa_offset 8
 161              		.cfi_offset 4, -8
 162              		.cfi_offset 14, -4
ARM GAS  C:\Users\Administrator\AppData\Local\Temp\ccmrfSYd.s 			page 7


 163              	.LVL11:
 179:key.c         ****     Key_Index i, key1, key2;
 180:key.c         ****     uint8 key_count;
 181:key.c         ****     
 182:key.c         ****     for (i = 0, key_count = 0; i < KEY_NUMBER; i++)
 164              		.loc 1 182 0
 165 0002 0024     		mov	r4, #0
 166 0004 0023     		mov	r3, #0
 167 0006 0EE0     		b	.L15
 168              	.LVL12:
 169              	.L18:
 183:key.c         ****     {
 184:key.c         ****         if (state[i] != KEY_PRESS && state[i] != KEY_LONG_PRESS)
 170              		.loc 1 184 0
 171 0008 0A4A     		ldr	r2, .L22
 172 000a D25C     		ldrb	r2, [r2, r3]
 173 000c 013A     		sub	r2, r2, #1
 174 000e 012A     		cmp	r2, #1
 175 0010 07D8     		bhi	.L16
 185:key.c         ****            continue;
 186:key.c         ****         key_count++;
 176              		.loc 1 186 0
 177 0012 0134     		add	r4, r4, #1
 178              	.LVL13:
 179 0014 E4B2     		uxtb	r4, r4
 180              	.LVL14:
 187:key.c         ****         if (key_count == 1)
 181              		.loc 1 187 0
 182 0016 012C     		cmp	r4, #1
 183 0018 00D1     		bne	.L17
 188:key.c         ****             key1 = i;
 184              		.loc 1 188 0
 185 001a 181C     		mov	r0, r3
 186              	.LVL15:
 187              	.L17:
 189:key.c         ****         if (key_count == 2)
 188              		.loc 1 189 0
 189 001c 022C     		cmp	r4, #2
 190 001e 00D1     		bne	.L16
 190:key.c         ****             key2 = i;
 191              		.loc 1 190 0
 192 0020 191C     		mov	r1, r3
 193              	.LVL16:
 194              	.L16:
 182:key.c         ****     {
 195              		.loc 1 182 0 discriminator 2
 196 0022 0133     		add	r3, r3, #1
 197              	.LVL17:
 198 0024 DBB2     		uxtb	r3, r3
 199              	.LVL18:
 200              	.L15:
 182:key.c         ****     {
 201              		.loc 1 182 0 is_stmt 0 discriminator 1
 202 0026 0B2B     		cmp	r3, #11
 203 0028 EED9     		bls	.L18
 191:key.c         ****     }
 192:key.c         **** 
ARM GAS  C:\Users\Administrator\AppData\Local\Temp\ccmrfSYd.s 			page 8


 193:key.c         ****     if (key_count == 2)
 204              		.loc 1 193 0 is_stmt 1
 205 002a 022C     		cmp	r4, #2
 206 002c 01D1     		bne	.L14
 194:key.c         ****         key_combine_deal(key1, key2);
 207              		.loc 1 194 0
 208 002e FFF7FEFF 		bl	key_combine_deal
 209              	.LVL19:
 210              	.L14:
 195:key.c         **** }
 211              		.loc 1 195 0
 212              		@ sp needed
 213              	.LVL20:
 214 0032 10BD     		pop	{r4, pc}
 215              	.L23:
 216              		.align	2
 217              	.L22:
 218 0034 00000000 		.word	state
 219              		.cfi_endproc
 220              	.LFE41:
 221              		.size	key_conbine_check, .-key_conbine_check
 222              		.section	.text.key_init,"ax",%progbits
 223              		.align	2
 224              		.global	key_init
 225              		.code	16
 226              		.thumb_func
 227              		.type	key_init, %function
 228              	key_init:
 229              	.LFB35:
  33:key.c         ****     Key_Index i;
 230              		.loc 1 33 0
 231              		.cfi_startproc
 232 0000 38B5     		push	{r3, r4, r5, lr}
 233              		.cfi_def_cfa_offset 16
 234              		.cfi_offset 3, -16
 235              		.cfi_offset 4, -12
 236              		.cfi_offset 5, -8
 237              		.cfi_offset 14, -4
  36:key.c         ****     for (i = 0; i < KEY_NUMBER; i++)
 238              		.loc 1 36 0
 239 0002 0E48     		ldr	r0, .L27
 240 0004 0021     		mov	r1, #0
 241 0006 6022     		mov	r2, #96
 242 0008 FFF7FEFF 		bl	memset
 243              	.LVL21:
  37:key.c         ****     {
 244              		.loc 1 37 0
 245 000c 0023     		mov	r3, #0
 246 000e 11E0     		b	.L25
 247              	.LVL22:
 248              	.L26:
  39:key.c         ****         keys[i].active_level = LEVEL_HIGH;
 249              		.loc 1 39 0 discriminator 3
 250 0010 9900     		lsl	r1, r3, #2
 251 0012 0B4A     		ldr	r2, .L27+4
 252 0014 8858     		ldr	r0, [r1, r2]
 253 0016 094A     		ldr	r2, .L27
ARM GAS  C:\Users\Administrator\AppData\Local\Temp\ccmrfSYd.s 			page 9


 254 0018 D900     		lsl	r1, r3, #3
 255 001a 5418     		add	r4, r2, r1
 256 001c 6060     		str	r0, [r4, #4]
  40:key.c         ****         keys[i].level_time = 0;
 257              		.loc 1 40 0 discriminator 3
 258 001e 8D5C     		ldrb	r5, [r1, r2]
 259 0020 0420     		mov	r0, #4
 260 0022 2843     		orr	r0, r5
 261 0024 8854     		strb	r0, [r1, r2]
  41:key.c         ****         state[i] = KEY_RELEASE;
 262              		.loc 1 41 0 discriminator 3
 263 0026 0022     		mov	r2, #0
 264 0028 6280     		strh	r2, [r4, #2]
  42:key.c         ****     }
 265              		.loc 1 42 0 discriminator 3
 266 002a 064A     		ldr	r2, .L27+8
 267 002c 0021     		mov	r1, #0
 268 002e D154     		strb	r1, [r2, r3]
  37:key.c         ****     {
 269              		.loc 1 37 0 discriminator 3
 270 0030 0133     		add	r3, r3, #1
 271              	.LVL23:
 272 0032 DBB2     		uxtb	r3, r3
 273              	.LVL24:
 274              	.L25:
  37:key.c         ****     {
 275              		.loc 1 37 0 is_stmt 0 discriminator 1
 276 0034 0B2B     		cmp	r3, #11
 277 0036 EBD9     		bls	.L26
  44:key.c         **** 
 278              		.loc 1 44 0 is_stmt 1
 279              		@ sp needed
 280 0038 38BD     		pop	{r3, r4, r5, pc}
 281              	.L28:
 282 003a C046     		.align	2
 283              	.L27:
 284 003c 00000000 		.word	keys
 285 0040 00000000 		.word	input_pins
 286 0044 00000000 		.word	state
 287              		.cfi_endproc
 288              	.LFE35:
 289              		.size	key_init, .-key_init
 290              		.section	.text.key_main,"ax",%progbits
 291              		.align	2
 292              		.global	key_main
 293              		.code	16
 294              		.thumb_func
 295              		.type	key_main, %function
 296              	key_main:
 297              	.LFB36:
  47:key.c         ****     Key_Index i;
 298              		.loc 1 47 0
 299              		.cfi_startproc
 300 0000 F8B5     		push	{r3, r4, r5, r6, r7, lr}
 301              		.cfi_def_cfa_offset 24
 302              		.cfi_offset 3, -24
 303              		.cfi_offset 4, -20
ARM GAS  C:\Users\Administrator\AppData\Local\Temp\ccmrfSYd.s 			page 10


 304              		.cfi_offset 5, -16
 305              		.cfi_offset 6, -12
 306              		.cfi_offset 7, -8
 307              		.cfi_offset 14, -4
 308              	.LVL25:
  50:key.c         ****     {
 309              		.loc 1 50 0
 310 0002 0025     		mov	r5, #0
 311 0004 8FE0     		b	.L30
 312              	.LVL26:
 313              	.L40:
  52:key.c         **** 
 314              		.loc 1 52 0
 315 0006 2C1C     		mov	r4, r5
 316 0008 494E     		ldr	r6, .L41
 317 000a EF00     		lsl	r7, r5, #3
 318 000c F319     		add	r3, r6, r7
 319 000e 5B68     		ldr	r3, [r3, #4]
 320 0010 9847     		blx	r3
 321              	.LVL27:
 322 0012 0123     		mov	r3, #1
 323 0014 1840     		and	r0, r3
 324 0016 0340     		and	r3, r0
 325 0018 5B00     		lsl	r3, r3, #1
 326 001a BA5D     		ldrb	r2, [r7, r6]
 327 001c 0221     		mov	r1, #2
 328 001e 8A43     		bic	r2, r1
 329 0020 1343     		orr	r3, r2
 330 0022 BB55     		strb	r3, [r7, r6]
  54:key.c         ****         {
 331              		.loc 1 54 0
 332 0024 DB07     		lsl	r3, r3, #31
 333 0026 DB0F     		lsr	r3, r3, #31
 334 0028 DBB2     		uxtb	r3, r3
 335 002a 9842     		cmp	r0, r3
 336 002c 6DD1     		bne	.L31
  56:key.c         ****             if (keys[i].level_time < key_debounce_time)
 337              		.loc 1 56 0
 338 002e 404B     		ldr	r3, .L41
 339 0030 DA19     		add	r2, r3, r7
 340 0032 5388     		ldrh	r3, [r2, #2]
 341 0034 0133     		add	r3, r3, #1
 342 0036 9BB2     		uxth	r3, r3
 343 0038 5380     		strh	r3, [r2, #2]
  57:key.c         ****                 continue;
 344              		.loc 1 57 0
 345 003a 032B     		cmp	r3, #3
 346 003c 71D9     		bls	.L32
  61:key.c         ****             {
 347              		.loc 1 61 0
 348 003e 3D4A     		ldr	r2, .L41+4
 349 0040 525D     		ldrb	r2, [r2, r5]
 350 0042 012A     		cmp	r2, #1
 351 0044 15D0     		beq	.L33
 352 0046 002A     		cmp	r2, #0
 353 0048 04D0     		beq	.L34
 354 004a 022A     		cmp	r2, #2
ARM GAS  C:\Users\Administrator\AppData\Local\Temp\ccmrfSYd.s 			page 11


 355 004c 2FD0     		beq	.L35
 356 004e 032A     		cmp	r2, #3
 357 0050 46D0     		beq	.L36
 358 0052 66E0     		b	.L32
 359              	.L34:
  64:key.c         ****                     {
 360              		.loc 1 64 0
 361 0054 EB00     		lsl	r3, r5, #3
 362 0056 364A     		ldr	r2, .L41
 363 0058 9B5C     		ldrb	r3, [r3, r2]
 364 005a 9A07     		lsl	r2, r3, #30
 365 005c D20F     		lsr	r2, r2, #31
 366 005e 5B07     		lsl	r3, r3, #29
 367 0060 DB0F     		lsr	r3, r3, #31
 368 0062 9A42     		cmp	r2, r3
 369 0064 5DD1     		bne	.L32
  66:key.c         ****                         key_conbine_check();
 370              		.loc 1 66 0
 371 0066 0122     		mov	r2, #1
 372 0068 324B     		ldr	r3, .L41+4
 373 006a 5A55     		strb	r2, [r3, r5]
  67:key.c         ****                     }
 374              		.loc 1 67 0
 375 006c FFF7FEFF 		bl	key_conbine_check
 376              	.LVL28:
 377 0070 57E0     		b	.L32
 378              	.L33:
  71:key.c         ****                     {
 379              		.loc 1 71 0
 380 0072 EA00     		lsl	r2, r5, #3
 381 0074 2E49     		ldr	r1, .L41
 382 0076 525C     		ldrb	r2, [r2, r1]
 383 0078 9107     		lsl	r1, r2, #30
 384 007a C90F     		lsr	r1, r1, #31
 385 007c 5207     		lsl	r2, r2, #29
 386 007e D20F     		lsr	r2, r2, #31
 387 0080 9142     		cmp	r1, r2
 388 0082 07D0     		beq	.L37
  73:key.c         ****                         key_event_deal(i, KEY_EVENT_SHORT_PRESS);
 389              		.loc 1 73 0
 390 0084 0022     		mov	r2, #0
 391 0086 2B4B     		ldr	r3, .L41+4
 392 0088 5A55     		strb	r2, [r3, r5]
  74:key.c         ****                     }
 393              		.loc 1 74 0
 394 008a 281C     		mov	r0, r5
 395 008c 0021     		mov	r1, #0
 396 008e FFF7FEFF 		bl	key_event_deal
 397              	.LVL29:
 398 0092 46E0     		b	.L32
 399              	.L37:
  78:key.c         ****                         {
 400              		.loc 1 78 0
 401 0094 9622     		mov	r2, #150
 402 0096 5200     		lsl	r2, r2, #1
 403 0098 9342     		cmp	r3, r2
 404 009a 42D9     		bls	.L32
ARM GAS  C:\Users\Administrator\AppData\Local\Temp\ccmrfSYd.s 			page 12


  80:key.c         ****                             key_event_deal(i, KEY_EVENT_LONG_PRESS);
 405              		.loc 1 80 0
 406 009c 2B3A     		sub	r2, r2, #43
 407 009e FF3A     		sub	r2, r2, #255
 408 00a0 244B     		ldr	r3, .L41+4
 409 00a2 5A55     		strb	r2, [r3, r5]
  81:key.c         ****                         }
 410              		.loc 1 81 0
 411 00a4 281C     		mov	r0, r5
 412 00a6 0121     		mov	r1, #1
 413 00a8 FFF7FEFF 		bl	key_event_deal
 414              	.LVL30:
 415 00ac 39E0     		b	.L32
 416              	.L35:
  86:key.c         ****                     {
 417              		.loc 1 86 0
 418 00ae EA00     		lsl	r2, r5, #3
 419 00b0 1F49     		ldr	r1, .L41
 420 00b2 525C     		ldrb	r2, [r2, r1]
 421 00b4 9107     		lsl	r1, r2, #30
 422 00b6 C90F     		lsr	r1, r1, #31
 423 00b8 5207     		lsl	r2, r2, #29
 424 00ba D20F     		lsr	r2, r2, #31
 425 00bc 9142     		cmp	r1, r2
 426 00be 07D0     		beq	.L38
  88:key.c         ****                         key_event_deal(i, KEY_EVENT_LONG_RELEASE);
 427              		.loc 1 88 0
 428 00c0 0022     		mov	r2, #0
 429 00c2 1C4B     		ldr	r3, .L41+4
 430 00c4 5A55     		strb	r2, [r3, r5]
  89:key.c         ****                     }
 431              		.loc 1 89 0
 432 00c6 281C     		mov	r0, r5
 433 00c8 0221     		mov	r1, #2
 434 00ca FFF7FEFF 		bl	key_event_deal
 435              	.LVL31:
 436 00ce 28E0     		b	.L32
 437              	.L38:
  93:key.c         ****                         {
 438              		.loc 1 93 0
 439 00d0 FA22     		mov	r2, #250
 440 00d2 9200     		lsl	r2, r2, #2
 441 00d4 9342     		cmp	r3, r2
 442 00d6 24D9     		bls	.L32
  95:key.c         ****                         }
 443              		.loc 1 95 0
 444 00d8 0322     		mov	r2, #3
 445 00da 164B     		ldr	r3, .L41+4
 446 00dc 5A55     		strb	r2, [r3, r5]
 447 00de 20E0     		b	.L32
 448              	.L36:
 100:key.c         ****                         state[i] = KEY_RELEASE;
 449              		.loc 1 100 0
 450 00e0 EA00     		lsl	r2, r5, #3
 451 00e2 1349     		ldr	r1, .L41
 452 00e4 525C     		ldrb	r2, [r2, r1]
 453 00e6 9107     		lsl	r1, r2, #30
ARM GAS  C:\Users\Administrator\AppData\Local\Temp\ccmrfSYd.s 			page 13


 454 00e8 C90F     		lsr	r1, r1, #31
 455 00ea 5207     		lsl	r2, r2, #29
 456 00ec D20F     		lsr	r2, r2, #31
 457 00ee 9142     		cmp	r1, r2
 458 00f0 02D0     		beq	.L39
 101:key.c         ****                     //防止level_time变量发生上溢
 459              		.loc 1 101 0
 460 00f2 0021     		mov	r1, #0
 461 00f4 0F4A     		ldr	r2, .L41+4
 462 00f6 5155     		strb	r1, [r2, r5]
 463              	.L39:
 103:key.c         ****                         keys[i].level_time = 15000;
 464              		.loc 1 103 0
 465 00f8 0F4A     		ldr	r2, .L41+8
 466 00fa 9342     		cmp	r3, r2
 467 00fc 11D9     		bls	.L32
 104:key.c         ****                     break;
 468              		.loc 1 104 0
 469 00fe E400     		lsl	r4, r4, #3
 470 0100 0B4B     		ldr	r3, .L41
 471 0102 1C19     		add	r4, r3, r4
 472 0104 0D4B     		ldr	r3, .L41+12
 473 0106 6380     		strh	r3, [r4, #2]
 474 0108 0BE0     		b	.L32
 475              	.L31:
 110:key.c         ****             keys[i].previous_level = keys[i].current_level;
 476              		.loc 1 110 0
 477 010a 0949     		ldr	r1, .L41
 478 010c E800     		lsl	r0, r5, #3
 479 010e 0B18     		add	r3, r1, r0
 480 0110 0022     		mov	r2, #0
 481 0112 5A80     		strh	r2, [r3, #2]
 111:key.c         ****         }
 482              		.loc 1 111 0
 483 0114 435C     		ldrb	r3, [r0, r1]
 484 0116 9A07     		lsl	r2, r3, #30
 485 0118 D20F     		lsr	r2, r2, #31
 486 011a 0124     		mov	r4, #1
 487 011c A343     		bic	r3, r4
 488 011e 1343     		orr	r3, r2
 489 0120 4354     		strb	r3, [r0, r1]
 490              	.L32:
  50:key.c         ****     {
 491              		.loc 1 50 0 discriminator 2
 492 0122 0135     		add	r5, r5, #1
 493              	.LVL32:
 494 0124 EDB2     		uxtb	r5, r5
 495              	.LVL33:
 496              	.L30:
  50:key.c         ****     {
 497              		.loc 1 50 0 is_stmt 0 discriminator 1
 498 0126 0B2D     		cmp	r5, #11
 499 0128 00D8     		bhi	.LCB499
 500 012a 6CE7     		b	.L40	@long jump
 501              	.LCB499:
 115:key.c         **** 
 502              		.loc 1 115 0 is_stmt 1
ARM GAS  C:\Users\Administrator\AppData\Local\Temp\ccmrfSYd.s 			page 14


 503              		@ sp needed
 504              	.LVL34:
 505 012c F8BD     		pop	{r3, r4, r5, r6, r7, pc}
 506              	.L42:
 507 012e C046     		.align	2
 508              	.L41:
 509 0130 00000000 		.word	keys
 510 0134 00000000 		.word	state
 511 0138 50C30000 		.word	50000
 512 013c 983A0000 		.word	15000
 513              		.cfi_endproc
 514              	.LFE36:
 515              		.size	key_main, .-key_main
 516              		.section	.text.key_add_event_handler,"ax",%progbits
 517              		.align	2
 518              		.global	key_add_event_handler
 519              		.code	16
 520              		.thumb_func
 521              		.type	key_add_event_handler, %function
 522              	key_add_event_handler:
 523              	.LFB37:
 118:key.c         ****     if (i >= KEY_NUMBER || e >= KEY_EVENT_NUMBER)
 524              		.loc 1 118 0
 525              		.cfi_startproc
 526              	.LVL35:
 119:key.c         ****         return FALSE;
 527              		.loc 1 119 0
 528 0000 0B28     		cmp	r0, #11
 529 0002 09D8     		bhi	.L45
 119:key.c         ****         return FALSE;
 530              		.loc 1 119 0 is_stmt 0 discriminator 1
 531 0004 0329     		cmp	r1, #3
 532 0006 09D8     		bhi	.L46
 123:key.c         ****         return TRUE;
 533              		.loc 1 123 0 is_stmt 1
 534 0008 4300     		lsl	r3, r0, #1
 535 000a 1818     		add	r0, r3, r0
 536              	.LVL36:
 537 000c 4018     		add	r0, r0, r1
 538 000e 8000     		lsl	r0, r0, #2
 539 0010 034B     		ldr	r3, .L47
 540 0012 C250     		str	r2, [r0, r3]
 124:key.c         ****     }
 541              		.loc 1 124 0
 542 0014 0120     		mov	r0, #1
 543 0016 02E0     		b	.L44
 544              	.LVL37:
 545              	.L45:
 120:key.c         ****     else
 546              		.loc 1 120 0
 547 0018 0020     		mov	r0, #0
 548              	.LVL38:
 549 001a 00E0     		b	.L44
 550              	.LVL39:
 551              	.L46:
 552 001c 0020     		mov	r0, #0
 553              	.LVL40:
ARM GAS  C:\Users\Administrator\AppData\Local\Temp\ccmrfSYd.s 			page 15


 554              	.L44:
 126:key.c         **** 
 555              		.loc 1 126 0
 556              		@ sp needed
 557 001e 7047     		bx	lr
 558              	.L48:
 559              		.align	2
 560              	.L47:
 561 0020 00000000 		.word	.LANCHOR0
 562              		.cfi_endproc
 563              	.LFE37:
 564              		.size	key_add_event_handler, .-key_add_event_handler
 565              		.section	.text.key_add_combine_handler,"ax",%progbits
 566              		.align	2
 567              		.global	key_add_combine_handler
 568              		.code	16
 569              		.thumb_func
 570              		.type	key_add_combine_handler, %function
 571              	key_add_combine_handler:
 572              	.LFB38:
 129:key.c         ****     Key_Index key1, key2;
 573              		.loc 1 129 0
 574              		.cfi_startproc
 575              	.LVL41:
 576 0000 70B5     		push	{r4, r5, r6, lr}
 577              		.cfi_def_cfa_offset 16
 578              		.cfi_offset 4, -16
 579              		.cfi_offset 5, -12
 580              		.cfi_offset 6, -8
 581              		.cfi_offset 14, -4
 132:key.c         ****         return FALSE;
 582              		.loc 1 132 0
 583 0002 2823     		mov	r3, #40
 584 0004 104C     		ldr	r4, .L56
 585 0006 E35C     		ldrb	r3, [r4, r3]
 586 0008 022B     		cmp	r3, #2
 587 000a 17D8     		bhi	.L53
 134:key.c         ****         return FALSE;
 588              		.loc 1 134 0
 589 000c 8842     		cmp	r0, r1
 590 000e 17D0     		beq	.L54
 136:key.c         ****         return FALSE;
 591              		.loc 1 136 0
 592 0010 002A     		cmp	r2, #0
 593 0012 17D0     		beq	.L55
 139:key.c         ****     key2 = MAX(i, j);
 594              		.loc 1 139 0
 595 0014 0C1C     		add	r4, r1, #0
 596 0016 8142     		cmp	r1, r0
 597 0018 00D9     		bls	.L51
 598 001a 041C     		add	r4, r0, #0
 599              	.L51:
 600 001c E4B2     		uxtb	r4, r4
 601              	.LVL42:
 140:key.c         ****     combine_keys[combine_key_number].key1 = key1;
 602              		.loc 1 140 0
 603 001e 0D1C     		add	r5, r1, #0
ARM GAS  C:\Users\Administrator\AppData\Local\Temp\ccmrfSYd.s 			page 16


 604 0020 8142     		cmp	r1, r0
 605 0022 00D2     		bcs	.L52
 606 0024 051C     		add	r5, r0, #0
 607              	.L52:
 608              	.LVL43:
 141:key.c         ****     combine_keys[combine_key_number].key2 = key2;
 609              		.loc 1 141 0
 610 0026 0848     		ldr	r0, .L56
 611              	.LVL44:
 612 0028 D900     		lsl	r1, r3, #3
 613              	.LVL45:
 614 002a 4118     		add	r1, r0, r1
 615 002c 0C74     		strb	r4, [r1, #16]
 142:key.c         ****     combine_keys[combine_key_number].handler = h;
 616              		.loc 1 142 0
 617 002e 4D74     		strb	r5, [r1, #17]
 143:key.c         ****     combine_key_number++;
 618              		.loc 1 143 0
 619 0030 4A61     		str	r2, [r1, #20]
 144:key.c         ****     
 620              		.loc 1 144 0
 621 0032 0133     		add	r3, r3, #1
 622 0034 2822     		mov	r2, #40
 623              	.LVL46:
 624 0036 8354     		strb	r3, [r0, r2]
 146:key.c         **** }
 625              		.loc 1 146 0
 626 0038 0120     		mov	r0, #1
 627 003a 04E0     		b	.L50
 628              	.LVL47:
 629              	.L53:
 133:key.c         ****     if (i == j)
 630              		.loc 1 133 0
 631 003c 0020     		mov	r0, #0
 632              	.LVL48:
 633 003e 02E0     		b	.L50
 634              	.LVL49:
 635              	.L54:
 135:key.c         ****     if (h == NULL)
 636              		.loc 1 135 0
 637 0040 0020     		mov	r0, #0
 638              	.LVL50:
 639 0042 00E0     		b	.L50
 640              	.LVL51:
 641              	.L55:
 137:key.c         ****     
 642              		.loc 1 137 0
 643 0044 0020     		mov	r0, #0
 644              	.LVL52:
 645              	.L50:
 147:key.c         **** 
 646              		.loc 1 147 0
 647              		@ sp needed
 648 0046 70BD     		pop	{r4, r5, r6, pc}
 649              	.L57:
 650              		.align	2
 651              	.L56:
ARM GAS  C:\Users\Administrator\AppData\Local\Temp\ccmrfSYd.s 			page 17


 652 0048 80000000 		.word	.LANCHOR1
 653              		.cfi_endproc
 654              	.LFE38:
 655              		.size	key_add_combine_handler, .-key_add_combine_handler
 656              		.global	key_stuck_time
 657              		.global	key_long_press_time
 658              		.global	key_debounce_time
 659              		.comm	state,12,4
 660              		.comm	keys,96,4
 661              		.section	.rodata
 662              		.align	1
 663              		.type	key_stuck_time, %object
 664              		.size	key_stuck_time, 2
 665              	key_stuck_time:
 666 0000 E803     		.short	1000
 667              		.type	key_long_press_time, %object
 668              		.size	key_long_press_time, 2
 669              	key_long_press_time:
 670 0002 2C01     		.short	300
 671              		.type	key_debounce_time, %object
 672              		.size	key_debounce_time, 1
 673              	key_debounce_time:
 674 0004 04       		.byte	4
 675 0005 00       		.bss
 676              		.align	2
 677              		.set	.LANCHOR0,. + 0
 678              		.set	.LANCHOR1,. + 128
 679              		.type	event_handlers, %object
 680              		.size	event_handlers, 144
 681              	event_handlers:
 682 0000 00000000 		.space	144
 682      00000000 
 682      00000000 
 682      00000000 
 682      00000000 
 683              		.type	combine_keys, %object
 684              		.size	combine_keys, 24
 685              	combine_keys:
 686 0090 00000000 		.space	24
 686      00000000 
 686      00000000 
 686      00000000 
 686      00000000 
 687              		.type	combine_key_number, %object
 688              		.size	combine_key_number, 1
 689              	combine_key_number:
 690 00a8 00       		.space	1
 691 00a9 000000   		.text
 692              	.Letext0:
 693              		.file 2 "types.h"
 694              		.file 3 "key_config.h"
 695              		.file 4 "key.h"