ARM GAS  C:\Users\Administrator\AppData\Local\Temp\ccIMoIzk.s 			page 1


   1              		.cpu cortex-m0plus
   2              		.fpu softvfp
   3              		.eabi_attribute 20, 1
   4              		.eabi_attribute 21, 1
   5              		.eabi_attribute 23, 3
   6              		.eabi_attribute 24, 1
   7              		.eabi_attribute 25, 1
   8              		.eabi_attribute 26, 1
   9              		.eabi_attribute 30, 1
  10              		.eabi_attribute 34, 0
  11              		.eabi_attribute 18, 4
  12              		.code	16
  13              		.file	"key1.c"
  14              		.text
  15              	.Ltext0:
  16              		.cfi_sections	.debug_frame
  17              		.section	.text.key_event_deal,"ax",%progbits
  18              		.align	2
  19              		.code	16
  20              		.thumb_func
  21              		.type	key_event_deal, %function
  22              	key_event_deal:
  23              	.LFB39:
  24              		.file 1 "key1.c"
   1:key1.c        **** /* ========================================
   2:key1.c        ****  *
   3:key1.c        ****  * Copyright YOUR COMPANY, THE YEAR
   4:key1.c        ****  * All Rights Reserved
   5:key1.c        ****  * UNPUBLISHED, LICENSED SOFTWARE.
   6:key1.c        ****  *
   7:key1.c        ****  * CONFIDENTIAL AND PROPRIETARY INFORMATION
   8:key1.c        ****  * WHICH IS THE PROPERTY OF your company.
   9:key1.c        ****  *
  10:key1.c        ****  * ========================================
  11:key1.c        **** */
  12:key1.c        **** #include "key1.h"
  13:key1.c        **** #include <string.h>
  14:key1.c        **** #include <math.h>
  15:key1.c        **** 
  16:key1.c        **** static Key_event_handler event_handlers[KEY_NUMBER][KEY_EVENT_NUMBER];
  17:key1.c        **** static void key_event_deal(Key_Index i, Key_event e);
  18:key1.c        **** 
  19:key1.c        **** static Key_conbine_handler conbine_handler[KEY_NUMBER][KEY_NUMBER];
  20:key1.c        **** static void key_combine_deal(Key_Index i, Key_Index j);
  21:key1.c        **** static void key_conbine_check(void);
  22:key1.c        **** 
  23:key1.c        **** Key keys[KEY_NUMBER];
  24:key1.c        **** Key_state state[KEY_NUMBER];
  25:key1.c        **** Key_parameter key_paras[KEY_NUMBER] = 
  26:key1.c        **** {
  27:key1.c        ****     {40, 3000u, 8000u},
  28:key1.c        ****     {40, 3000u, 8000u},
  29:key1.c        ****     {40, 3000u, 8000u},
  30:key1.c        ****     {40, 3000u, 8000u},
  31:key1.c        ****     {40, 3000u, 8000u},
  32:key1.c        ****     {40, 3000u, 8000u},
  33:key1.c        ****     {40, 3000u, 8000u},
ARM GAS  C:\Users\Administrator\AppData\Local\Temp\ccIMoIzk.s 			page 2


  34:key1.c        ****     {40, 3000u, 8000u},
  35:key1.c        ****     {40, 3000u, 8000u},
  36:key1.c        ****     {40, 3000u, 8000u},
  37:key1.c        ****     {40, 3000u, 8000u},
  38:key1.c        ****     {40, 3000u, 8000u},
  39:key1.c        **** };
  40:key1.c        **** 
  41:key1.c        **** void key_init(void)
  42:key1.c        **** {
  43:key1.c        ****     Key_Index i;
  44:key1.c        ****     
  45:key1.c        ****     memset(keys, 0, sizeof (Key) * KEY_NUMBER);
  46:key1.c        ****     for (i = 0; i < KEY_NUMBER; i++)
  47:key1.c        ****     {
  48:key1.c        ****         keys[i].pin = input_pins[i];
  49:key1.c        ****         state[i] = KEY_RELEASE;
  50:key1.c        ****     }
  51:key1.c        **** }
  52:key1.c        **** 
  53:key1.c        **** void key_main(void)
  54:key1.c        **** {
  55:key1.c        ****     Key_Index i;
  56:key1.c        **** 
  57:key1.c        ****     for (i = 0; i < KEY_NUMBER; i++)
  58:key1.c        ****     {
  59:key1.c        ****         keys[i].current_level = keys[i].pin();
  60:key1.c        ****         
  61:key1.c        ****         if (keys[i].current_level == keys[i].previous_level)
  62:key1.c        ****         {
  63:key1.c        ****             keys[i].level_time++;
  64:key1.c        ****             if (keys[i].level_time < key_paras[i].decounce_time)
  65:key1.c        ****                 continue;
  66:key1.c        ****             
  67:key1.c        ****             //此时keys[i].level_time >= 消抖时间
  68:key1.c        ****             switch(state[i])
  69:key1.c        ****             {
  70:key1.c        ****                 case KEY_RELEASE: 
  71:key1.c        ****                     if (keys[i].current_level == keys[i].active_level)
  72:key1.c        ****                     {
  73:key1.c        ****                         keys[i].level_time = 0;
  74:key1.c        ****                         state[i] = KEY_PRESS;
  75:key1.c        ****                         key_conbine_check();
  76:key1.c        ****                     }
  77:key1.c        ****                     break;
  78:key1.c        ****                 case KEY_PRESS: 
  79:key1.c        ****                     if (keys[i].current_level != keys[i].active_level)
  80:key1.c        ****                     {
  81:key1.c        ****                         state[i] = KEY_RELEASE;
  82:key1.c        ****                         key_event_deal(i, KEY_EVENT_SHORT_PRESS);
  83:key1.c        ****                     }
  84:key1.c        ****                     else
  85:key1.c        ****                     {
  86:key1.c        ****                         if (keys[i].level_time > key_paras[i].long_press_time)
  87:key1.c        ****                         {
  88:key1.c        ****                             state[i] = KEY_LONG_PRESS;
  89:key1.c        ****                             key_event_deal(i, KEY_EVENT_LONG_PRESS);
  90:key1.c        ****                         }
ARM GAS  C:\Users\Administrator\AppData\Local\Temp\ccIMoIzk.s 			page 3


  91:key1.c        ****                     }
  92:key1.c        ****                     break;
  93:key1.c        ****                 case KEY_LONG_PRESS:
  94:key1.c        ****                     if (keys[i].current_level != keys[i].active_level)
  95:key1.c        ****                     {
  96:key1.c        ****                         state[i] = KEY_RELEASE;
  97:key1.c        ****                         key_event_deal(i, KEY_EVENT_LONG_RELEASE);
  98:key1.c        ****                     }
  99:key1.c        ****                     else
 100:key1.c        ****                     {
 101:key1.c        ****                         if (keys[i].level_time > key_paras[i].stuck_time)
 102:key1.c        ****                         {
 103:key1.c        ****                             state[i] = KEY_STUCK;
 104:key1.c        ****                         }
 105:key1.c        ****                     }
 106:key1.c        ****                     break;
 107:key1.c        ****                 case KEY_STUCK:
 108:key1.c        ****                     if (keys[i].current_level != keys[i].active_level)
 109:key1.c        ****                         state[i] = KEY_RELEASE;
 110:key1.c        ****                     //防止level_time变量发生上溢
 111:key1.c        ****                     if (keys[i].level_time > 50000u)
 112:key1.c        ****                         keys[i].level_time = 15000;
 113:key1.c        ****                     break;
 114:key1.c        ****             }
 115:key1.c        ****             
 116:key1.c        ****             
 117:key1.c        ****             
 118:key1.c        ****         }
 119:key1.c        ****         else
 120:key1.c        ****         {
 121:key1.c        ****             keys[i].level_time = 0;
 122:key1.c        ****         }
 123:key1.c        ****     }
 124:key1.c        **** }
 125:key1.c        **** 
 126:key1.c        **** Bool key_add_event_handler(Key_Index i, Key_event e, Key_event_handler h)
 127:key1.c        **** {
 128:key1.c        ****     if (i >= KEY_NUMBER || e >= KEY_EVENT_NUMBER)
 129:key1.c        ****         return FALSE;
 130:key1.c        ****     else
 131:key1.c        ****     {
 132:key1.c        ****         event_handlers[i][e] = h;
 133:key1.c        ****         return TRUE;
 134:key1.c        ****     }
 135:key1.c        ****     
 136:key1.c        **** }
 137:key1.c        **** 
 138:key1.c        **** Bool key_add_combine_handler(Key_Index i, Key_Index j, Key_conbine_handler h)
 139:key1.c        **** {
 140:key1.c        ****     Key_Index key1, key2;
 141:key1.c        ****     if (i == j)
 142:key1.c        ****         return FALSE;
 143:key1.c        ****     if (h == NULL)
 144:key1.c        ****         return FALSE;
 145:key1.c        ****     key1 = MIN(i, j);
 146:key1.c        ****     key2 = MAX(i, j);
 147:key1.c        ****     conbine_handler[key1][key2] = h;
ARM GAS  C:\Users\Administrator\AppData\Local\Temp\ccIMoIzk.s 			page 4


 148:key1.c        ****     return TRUE;
 149:key1.c        **** }
 150:key1.c        **** 
 151:key1.c        **** static void key_event_deal(Key_Index i, Key_event e)
 152:key1.c        **** {
  25              		.loc 1 152 0
  26              		.cfi_startproc
  27              	.LVL0:
  28 0000 08B5     		push	{r3, lr}
  29              		.cfi_def_cfa_offset 8
  30              		.cfi_offset 3, -8
  31              		.cfi_offset 14, -4
 153:key1.c        ****     if (i >= KEY_NUMBER || e >= KEY_EVENT_NUMBER)
  32              		.loc 1 153 0
  33 0002 0B28     		cmp	r0, #11
  34 0004 09D8     		bhi	.L1
  35              		.loc 1 153 0 is_stmt 0 discriminator 1
  36 0006 0329     		cmp	r1, #3
  37 0008 07D8     		bhi	.L1
 154:key1.c        ****         return;
 155:key1.c        ****     
 156:key1.c        ****     if ( event_handlers[i][e] != NULL)
  38              		.loc 1 156 0 is_stmt 1
  39 000a 8000     		lsl	r0, r0, #2
  40              	.LVL1:
  41 000c 4118     		add	r1, r0, r1
  42              	.LVL2:
  43 000e 8900     		lsl	r1, r1, #2
  44 0010 024B     		ldr	r3, .L3
  45 0012 CB58     		ldr	r3, [r1, r3]
  46 0014 002B     		cmp	r3, #0
  47 0016 00D0     		beq	.L1
 157:key1.c        ****         event_handlers[i][e]();
  48              		.loc 1 157 0
  49 0018 9847     		blx	r3
  50              	.LVL3:
  51              	.L1:
 158:key1.c        **** }
  52              		.loc 1 158 0
  53              		@ sp needed
  54 001a 08BD     		pop	{r3, pc}
  55              	.L4:
  56              		.align	2
  57              	.L3:
  58 001c 00000000 		.word	.LANCHOR0
  59              		.cfi_endproc
  60              	.LFE39:
  61              		.size	key_event_deal, .-key_event_deal
  62              		.section	.text.key_combine_deal,"ax",%progbits
  63              		.align	2
  64              		.code	16
  65              		.thumb_func
  66              		.type	key_combine_deal, %function
  67              	key_combine_deal:
  68              	.LFB40:
 159:key1.c        **** 
 160:key1.c        **** static void key_combine_deal(Key_Index i, Key_Index j)
ARM GAS  C:\Users\Administrator\AppData\Local\Temp\ccIMoIzk.s 			page 5


 161:key1.c        **** {
  69              		.loc 1 161 0
  70              		.cfi_startproc
  71              	.LVL4:
  72 0000 08B5     		push	{r3, lr}
  73              		.cfi_def_cfa_offset 8
  74              		.cfi_offset 3, -8
  75              		.cfi_offset 14, -4
 162:key1.c        ****     if (i == j)
  76              		.loc 1 162 0
  77 0002 8842     		cmp	r0, r1
  78 0004 0AD0     		beq	.L5
 163:key1.c        ****         return;
 164:key1.c        ****     if (conbine_handler[i][j] != NULL)
  79              		.loc 1 164 0
  80 0006 4300     		lsl	r3, r0, #1
  81 0008 1818     		add	r0, r3, r0
  82              	.LVL5:
  83 000a 8000     		lsl	r0, r0, #2
  84 000c 4118     		add	r1, r0, r1
  85              	.LVL6:
  86 000e 8900     		lsl	r1, r1, #2
  87 0010 0348     		ldr	r0, .L7
  88 0012 4118     		add	r1, r0, r1
  89 0014 0B6C     		ldr	r3, [r1, #64]
  90 0016 002B     		cmp	r3, #0
  91 0018 00D0     		beq	.L5
 165:key1.c        ****         conbine_handler[i][j]();
  92              		.loc 1 165 0
  93 001a 9847     		blx	r3
  94              	.LVL7:
  95              	.L5:
 166:key1.c        **** }
  96              		.loc 1 166 0
  97              		@ sp needed
  98 001c 08BD     		pop	{r3, pc}
  99              	.L8:
 100 001e C046     		.align	2
 101              	.L7:
 102 0020 80000000 		.word	.LANCHOR1
 103              		.cfi_endproc
 104              	.LFE40:
 105              		.size	key_combine_deal, .-key_combine_deal
 106              		.section	.text.key_conbine_check,"ax",%progbits
 107              		.align	2
 108              		.code	16
 109              		.thumb_func
 110              		.type	key_conbine_check, %function
 111              	key_conbine_check:
 112              	.LFB41:
 167:key1.c        **** 
 168:key1.c        **** static void key_conbine_check(void)
 169:key1.c        **** {
 113              		.loc 1 169 0
 114              		.cfi_startproc
 115 0000 10B5     		push	{r4, lr}
 116              		.cfi_def_cfa_offset 8
ARM GAS  C:\Users\Administrator\AppData\Local\Temp\ccIMoIzk.s 			page 6


 117              		.cfi_offset 4, -8
 118              		.cfi_offset 14, -4
 119              	.LVL8:
 170:key1.c        ****     Key_Index i, key1, key2;
 171:key1.c        ****     uint8 key_count;
 172:key1.c        ****     
 173:key1.c        ****     for (i = 0, key_count = 0; i < KEY_NUMBER; i++)
 120              		.loc 1 173 0
 121 0002 0024     		mov	r4, #0
 122 0004 0023     		mov	r3, #0
 123 0006 0EE0     		b	.L10
 124              	.LVL9:
 125              	.L13:
 174:key1.c        ****     {
 175:key1.c        ****         if (state[i] != KEY_PRESS && state[i] != KEY_LONG_PRESS)
 126              		.loc 1 175 0
 127 0008 0A4A     		ldr	r2, .L17
 128 000a D25C     		ldrb	r2, [r2, r3]
 129 000c 013A     		sub	r2, r2, #1
 130 000e 012A     		cmp	r2, #1
 131 0010 07D8     		bhi	.L11
 176:key1.c        ****            continue;
 177:key1.c        ****         key_count++;
 132              		.loc 1 177 0
 133 0012 0134     		add	r4, r4, #1
 134              	.LVL10:
 135 0014 E4B2     		uxtb	r4, r4
 136              	.LVL11:
 178:key1.c        ****         if (key_count == 1)
 137              		.loc 1 178 0
 138 0016 012C     		cmp	r4, #1
 139 0018 00D1     		bne	.L12
 179:key1.c        ****             key1 = i;
 140              		.loc 1 179 0
 141 001a 181C     		mov	r0, r3
 142              	.LVL12:
 143              	.L12:
 180:key1.c        ****         if (key_count == 2)
 144              		.loc 1 180 0
 145 001c 022C     		cmp	r4, #2
 146 001e 00D1     		bne	.L11
 181:key1.c        ****             key2 = i;
 147              		.loc 1 181 0
 148 0020 191C     		mov	r1, r3
 149              	.LVL13:
 150              	.L11:
 173:key1.c        ****     {
 151              		.loc 1 173 0 discriminator 2
 152 0022 0133     		add	r3, r3, #1
 153              	.LVL14:
 154 0024 DBB2     		uxtb	r3, r3
 155              	.LVL15:
 156              	.L10:
 173:key1.c        ****     {
 157              		.loc 1 173 0 is_stmt 0 discriminator 1
 158 0026 0B2B     		cmp	r3, #11
 159 0028 EED9     		bls	.L13
ARM GAS  C:\Users\Administrator\AppData\Local\Temp\ccIMoIzk.s 			page 7


 182:key1.c        ****     }
 183:key1.c        **** 
 184:key1.c        ****     if (key_count == 2)
 160              		.loc 1 184 0 is_stmt 1
 161 002a 022C     		cmp	r4, #2
 162 002c 01D1     		bne	.L9
 185:key1.c        ****         key_combine_deal(key1, key2);
 163              		.loc 1 185 0
 164 002e FFF7FEFF 		bl	key_combine_deal
 165              	.LVL16:
 166              	.L9:
 186:key1.c        **** }
 167              		.loc 1 186 0
 168              		@ sp needed
 169              	.LVL17:
 170 0032 10BD     		pop	{r4, pc}
 171              	.L18:
 172              		.align	2
 173              	.L17:
 174 0034 00000000 		.word	state
 175              		.cfi_endproc
 176              	.LFE41:
 177              		.size	key_conbine_check, .-key_conbine_check
 178              		.section	.text.key_init,"ax",%progbits
 179              		.align	2
 180              		.global	key_init
 181              		.code	16
 182              		.thumb_func
 183              		.type	key_init, %function
 184              	key_init:
 185              	.LFB35:
  42:key1.c        ****     Key_Index i;
 186              		.loc 1 42 0
 187              		.cfi_startproc
 188 0000 08B5     		push	{r3, lr}
 189              		.cfi_def_cfa_offset 8
 190              		.cfi_offset 3, -8
 191              		.cfi_offset 14, -4
  45:key1.c        ****     for (i = 0; i < KEY_NUMBER; i++)
 192              		.loc 1 45 0
 193 0002 0B48     		ldr	r0, .L22
 194 0004 0021     		mov	r1, #0
 195 0006 6022     		mov	r2, #96
 196 0008 FFF7FEFF 		bl	memset
 197              	.LVL18:
  46:key1.c        ****     {
 198              		.loc 1 46 0
 199 000c 0023     		mov	r3, #0
 200 000e 0BE0     		b	.L20
 201              	.LVL19:
 202              	.L21:
  48:key1.c        ****         state[i] = KEY_RELEASE;
 203              		.loc 1 48 0 discriminator 3
 204 0010 9900     		lsl	r1, r3, #2
 205 0012 084A     		ldr	r2, .L22+4
 206 0014 8958     		ldr	r1, [r1, r2]
 207 0016 DA00     		lsl	r2, r3, #3
ARM GAS  C:\Users\Administrator\AppData\Local\Temp\ccIMoIzk.s 			page 8


 208 0018 0548     		ldr	r0, .L22
 209 001a 8218     		add	r2, r0, r2
 210 001c 5160     		str	r1, [r2, #4]
  49:key1.c        ****     }
 211              		.loc 1 49 0 discriminator 3
 212 001e 0021     		mov	r1, #0
 213 0020 054A     		ldr	r2, .L22+8
 214 0022 D154     		strb	r1, [r2, r3]
  46:key1.c        ****     {
 215              		.loc 1 46 0 discriminator 3
 216 0024 0133     		add	r3, r3, #1
 217              	.LVL20:
 218 0026 DBB2     		uxtb	r3, r3
 219              	.LVL21:
 220              	.L20:
  46:key1.c        ****     {
 221              		.loc 1 46 0 is_stmt 0 discriminator 1
 222 0028 0B2B     		cmp	r3, #11
 223 002a F1D9     		bls	.L21
  51:key1.c        **** 
 224              		.loc 1 51 0 is_stmt 1
 225              		@ sp needed
 226 002c 08BD     		pop	{r3, pc}
 227              	.L23:
 228 002e C046     		.align	2
 229              	.L22:
 230 0030 00000000 		.word	keys
 231 0034 00000000 		.word	input_pins
 232 0038 00000000 		.word	state
 233              		.cfi_endproc
 234              	.LFE35:
 235              		.size	key_init, .-key_init
 236              		.section	.text.key_main,"ax",%progbits
 237              		.align	2
 238              		.global	key_main
 239              		.code	16
 240              		.thumb_func
 241              		.type	key_main, %function
 242              	key_main:
 243              	.LFB36:
  54:key1.c        ****     Key_Index i;
 244              		.loc 1 54 0
 245              		.cfi_startproc
 246 0000 F8B5     		push	{r3, r4, r5, r6, r7, lr}
 247              		.cfi_def_cfa_offset 24
 248              		.cfi_offset 3, -24
 249              		.cfi_offset 4, -20
 250              		.cfi_offset 5, -16
 251              		.cfi_offset 6, -12
 252              		.cfi_offset 7, -8
 253              		.cfi_offset 14, -4
 254              	.LVL22:
  57:key1.c        ****     {
 255              		.loc 1 57 0
 256 0002 0025     		mov	r5, #0
 257 0004 9AE0     		b	.L25
 258              	.LVL23:
ARM GAS  C:\Users\Administrator\AppData\Local\Temp\ccIMoIzk.s 			page 9


 259              	.L35:
  59:key1.c        ****         
 260              		.loc 1 59 0
 261 0006 2C1C     		mov	r4, r5
 262 0008 4E4E     		ldr	r6, .L36
 263 000a EF00     		lsl	r7, r5, #3
 264 000c F319     		add	r3, r6, r7
 265 000e 5B68     		ldr	r3, [r3, #4]
 266 0010 9847     		blx	r3
 267              	.LVL24:
 268 0012 0123     		mov	r3, #1
 269 0014 1840     		and	r0, r3
 270 0016 0340     		and	r3, r0
 271 0018 5B00     		lsl	r3, r3, #1
 272 001a BA5D     		ldrb	r2, [r7, r6]
 273 001c 0221     		mov	r1, #2
 274 001e 8A43     		bic	r2, r1
 275 0020 1343     		orr	r3, r2
 276 0022 BB55     		strb	r3, [r7, r6]
  61:key1.c        ****         {
 277              		.loc 1 61 0
 278 0024 DB07     		lsl	r3, r3, #31
 279 0026 DB0F     		lsr	r3, r3, #31
 280 0028 DBB2     		uxtb	r3, r3
 281 002a 9842     		cmp	r0, r3
 282 002c 00D0     		beq	.LCB259
 283 002e 7EE0     		b	.L26	@long jump
 284              	.LCB259:
  63:key1.c        ****             if (keys[i].level_time < key_paras[i].decounce_time)
 285              		.loc 1 63 0
 286 0030 444B     		ldr	r3, .L36
 287 0032 DA19     		add	r2, r3, r7
 288 0034 5388     		ldrh	r3, [r2, #2]
 289 0036 0133     		add	r3, r3, #1
 290 0038 9BB2     		uxth	r3, r3
 291 003a 5380     		strh	r3, [r2, #2]
  64:key1.c        ****                 continue;
 292              		.loc 1 64 0
 293 003c 6A00     		lsl	r2, r5, #1
 294 003e 5219     		add	r2, r2, r5
 295 0040 5200     		lsl	r2, r2, #1
 296 0042 4149     		ldr	r1, .L36+4
 297 0044 525A     		ldrh	r2, [r2, r1]
 298 0046 9342     		cmp	r3, r2
 299 0048 76D3     		bcc	.L27
  68:key1.c        ****             {
 300              		.loc 1 68 0
 301 004a 404A     		ldr	r2, .L36+8
 302 004c 525D     		ldrb	r2, [r2, r5]
 303 004e 012A     		cmp	r2, #1
 304 0050 1AD0     		beq	.L28
 305 0052 002A     		cmp	r2, #0
 306 0054 04D0     		beq	.L29
 307 0056 022A     		cmp	r2, #2
 308 0058 37D0     		beq	.L30
 309 005a 032A     		cmp	r2, #3
 310 005c 52D0     		beq	.L31
ARM GAS  C:\Users\Administrator\AppData\Local\Temp\ccIMoIzk.s 			page 10


 311 005e 6BE0     		b	.L27
 312              	.L29:
  71:key1.c        ****                     {
 313              		.loc 1 71 0
 314 0060 EB00     		lsl	r3, r5, #3
 315 0062 384A     		ldr	r2, .L36
 316 0064 9B5C     		ldrb	r3, [r3, r2]
 317 0066 9A07     		lsl	r2, r3, #30
 318 0068 D20F     		lsr	r2, r2, #31
 319 006a 5B07     		lsl	r3, r3, #29
 320 006c DB0F     		lsr	r3, r3, #31
 321 006e 9A42     		cmp	r2, r3
 322 0070 62D1     		bne	.L27
  73:key1.c        ****                         state[i] = KEY_PRESS;
 323              		.loc 1 73 0
 324 0072 EB00     		lsl	r3, r5, #3
 325 0074 334A     		ldr	r2, .L36
 326 0076 D318     		add	r3, r2, r3
 327 0078 0022     		mov	r2, #0
 328 007a 5A80     		strh	r2, [r3, #2]
  74:key1.c        ****                         key_conbine_check();
 329              		.loc 1 74 0
 330 007c 0132     		add	r2, r2, #1
 331 007e 334B     		ldr	r3, .L36+8
 332 0080 5A55     		strb	r2, [r3, r5]
  75:key1.c        ****                     }
 333              		.loc 1 75 0
 334 0082 FFF7FEFF 		bl	key_conbine_check
 335              	.LVL25:
 336 0086 57E0     		b	.L27
 337              	.L28:
  79:key1.c        ****                     {
 338              		.loc 1 79 0
 339 0088 EA00     		lsl	r2, r5, #3
 340 008a 2E49     		ldr	r1, .L36
 341 008c 525C     		ldrb	r2, [r2, r1]
 342 008e 9107     		lsl	r1, r2, #30
 343 0090 C90F     		lsr	r1, r1, #31
 344 0092 5207     		lsl	r2, r2, #29
 345 0094 D20F     		lsr	r2, r2, #31
 346 0096 9142     		cmp	r1, r2
 347 0098 07D0     		beq	.L32
  81:key1.c        ****                         key_event_deal(i, KEY_EVENT_SHORT_PRESS);
 348              		.loc 1 81 0
 349 009a 0022     		mov	r2, #0
 350 009c 2B4B     		ldr	r3, .L36+8
 351 009e 5A55     		strb	r2, [r3, r5]
  82:key1.c        ****                     }
 352              		.loc 1 82 0
 353 00a0 281C     		mov	r0, r5
 354 00a2 0021     		mov	r1, #0
 355 00a4 FFF7FEFF 		bl	key_event_deal
 356              	.LVL26:
 357 00a8 46E0     		b	.L27
 358              	.L32:
  86:key1.c        ****                         {
 359              		.loc 1 86 0
ARM GAS  C:\Users\Administrator\AppData\Local\Temp\ccIMoIzk.s 			page 11


 360 00aa 6A00     		lsl	r2, r5, #1
 361 00ac 5219     		add	r2, r2, r5
 362 00ae 5200     		lsl	r2, r2, #1
 363 00b0 2549     		ldr	r1, .L36+4
 364 00b2 8A18     		add	r2, r1, r2
 365 00b4 5288     		ldrh	r2, [r2, #2]
 366 00b6 9342     		cmp	r3, r2
 367 00b8 3ED9     		bls	.L27
  88:key1.c        ****                             key_event_deal(i, KEY_EVENT_LONG_PRESS);
 368              		.loc 1 88 0
 369 00ba 0222     		mov	r2, #2
 370 00bc 234B     		ldr	r3, .L36+8
 371 00be 5A55     		strb	r2, [r3, r5]
  89:key1.c        ****                         }
 372              		.loc 1 89 0
 373 00c0 281C     		mov	r0, r5
 374 00c2 0121     		mov	r1, #1
 375 00c4 FFF7FEFF 		bl	key_event_deal
 376              	.LVL27:
 377 00c8 36E0     		b	.L27
 378              	.L30:
  94:key1.c        ****                     {
 379              		.loc 1 94 0
 380 00ca EA00     		lsl	r2, r5, #3
 381 00cc 1D49     		ldr	r1, .L36
 382 00ce 525C     		ldrb	r2, [r2, r1]
 383 00d0 9107     		lsl	r1, r2, #30
 384 00d2 C90F     		lsr	r1, r1, #31
 385 00d4 5207     		lsl	r2, r2, #29
 386 00d6 D20F     		lsr	r2, r2, #31
 387 00d8 9142     		cmp	r1, r2
 388 00da 07D0     		beq	.L33
  96:key1.c        ****                         key_event_deal(i, KEY_EVENT_LONG_RELEASE);
 389              		.loc 1 96 0
 390 00dc 0022     		mov	r2, #0
 391 00de 1B4B     		ldr	r3, .L36+8
 392 00e0 5A55     		strb	r2, [r3, r5]
  97:key1.c        ****                     }
 393              		.loc 1 97 0
 394 00e2 281C     		mov	r0, r5
 395 00e4 0221     		mov	r1, #2
 396 00e6 FFF7FEFF 		bl	key_event_deal
 397              	.LVL28:
 398 00ea 25E0     		b	.L27
 399              	.L33:
 101:key1.c        ****                         {
 400              		.loc 1 101 0
 401 00ec 6A00     		lsl	r2, r5, #1
 402 00ee 5219     		add	r2, r2, r5
 403 00f0 5200     		lsl	r2, r2, #1
 404 00f2 1549     		ldr	r1, .L36+4
 405 00f4 8A18     		add	r2, r1, r2
 406 00f6 9288     		ldrh	r2, [r2, #4]
 407 00f8 9342     		cmp	r3, r2
 408 00fa 1DD9     		bls	.L27
 103:key1.c        ****                         }
 409              		.loc 1 103 0
ARM GAS  C:\Users\Administrator\AppData\Local\Temp\ccIMoIzk.s 			page 12


 410 00fc 0322     		mov	r2, #3
 411 00fe 134B     		ldr	r3, .L36+8
 412 0100 5A55     		strb	r2, [r3, r5]
 413 0102 19E0     		b	.L27
 414              	.L31:
 108:key1.c        ****                         state[i] = KEY_RELEASE;
 415              		.loc 1 108 0
 416 0104 EA00     		lsl	r2, r5, #3
 417 0106 0F49     		ldr	r1, .L36
 418 0108 525C     		ldrb	r2, [r2, r1]
 419 010a 9107     		lsl	r1, r2, #30
 420 010c C90F     		lsr	r1, r1, #31
 421 010e 5207     		lsl	r2, r2, #29
 422 0110 D20F     		lsr	r2, r2, #31
 423 0112 9142     		cmp	r1, r2
 424 0114 02D0     		beq	.L34
 109:key1.c        ****                     //防止level_time变量发生上溢
 425              		.loc 1 109 0
 426 0116 0021     		mov	r1, #0
 427 0118 0C4A     		ldr	r2, .L36+8
 428 011a 5155     		strb	r1, [r2, r5]
 429              	.L34:
 111:key1.c        ****                         keys[i].level_time = 15000;
 430              		.loc 1 111 0
 431 011c 0C4A     		ldr	r2, .L36+12
 432 011e 9342     		cmp	r3, r2
 433 0120 0AD9     		bls	.L27
 112:key1.c        ****                     break;
 434              		.loc 1 112 0
 435 0122 E400     		lsl	r4, r4, #3
 436 0124 074B     		ldr	r3, .L36
 437 0126 1C19     		add	r4, r3, r4
 438 0128 0A4B     		ldr	r3, .L36+16
 439 012a 6380     		strh	r3, [r4, #2]
 440 012c 04E0     		b	.L27
 441              	.L26:
 121:key1.c        ****         }
 442              		.loc 1 121 0
 443 012e EB00     		lsl	r3, r5, #3
 444 0130 044A     		ldr	r2, .L36
 445 0132 D318     		add	r3, r2, r3
 446 0134 0022     		mov	r2, #0
 447 0136 5A80     		strh	r2, [r3, #2]
 448              	.L27:
  57:key1.c        ****     {
 449              		.loc 1 57 0 discriminator 2
 450 0138 0135     		add	r5, r5, #1
 451              	.LVL29:
 452 013a EDB2     		uxtb	r5, r5
 453              	.LVL30:
 454              	.L25:
  57:key1.c        ****     {
 455              		.loc 1 57 0 is_stmt 0 discriminator 1
 456 013c 0B2D     		cmp	r5, #11
 457 013e 00D8     		bhi	.LCB437
 458 0140 61E7     		b	.L35	@long jump
 459              	.LCB437:
ARM GAS  C:\Users\Administrator\AppData\Local\Temp\ccIMoIzk.s 			page 13


 124:key1.c        **** 
 460              		.loc 1 124 0 is_stmt 1
 461              		@ sp needed
 462              	.LVL31:
 463 0142 F8BD     		pop	{r3, r4, r5, r6, r7, pc}
 464              	.L37:
 465              		.align	2
 466              	.L36:
 467 0144 00000000 		.word	keys
 468 0148 00000000 		.word	.LANCHOR2
 469 014c 00000000 		.word	state
 470 0150 50C30000 		.word	50000
 471 0154 983A0000 		.word	15000
 472              		.cfi_endproc
 473              	.LFE36:
 474              		.size	key_main, .-key_main
 475              		.section	.text.key_add_event_handler,"ax",%progbits
 476              		.align	2
 477              		.global	key_add_event_handler
 478              		.code	16
 479              		.thumb_func
 480              		.type	key_add_event_handler, %function
 481              	key_add_event_handler:
 482              	.LFB37:
 127:key1.c        ****     if (i >= KEY_NUMBER || e >= KEY_EVENT_NUMBER)
 483              		.loc 1 127 0
 484              		.cfi_startproc
 485              	.LVL32:
 128:key1.c        ****         return FALSE;
 486              		.loc 1 128 0
 487 0000 0B28     		cmp	r0, #11
 488 0002 08D8     		bhi	.L40
 128:key1.c        ****         return FALSE;
 489              		.loc 1 128 0 is_stmt 0 discriminator 1
 490 0004 0329     		cmp	r1, #3
 491 0006 08D8     		bhi	.L41
 132:key1.c        ****         return TRUE;
 492              		.loc 1 132 0 is_stmt 1
 493 0008 8000     		lsl	r0, r0, #2
 494              	.LVL33:
 495 000a 4118     		add	r1, r0, r1
 496              	.LVL34:
 497 000c 8900     		lsl	r1, r1, #2
 498 000e 044B     		ldr	r3, .L42
 499 0010 CA50     		str	r2, [r1, r3]
 133:key1.c        ****     }
 500              		.loc 1 133 0
 501 0012 0120     		mov	r0, #1
 502 0014 02E0     		b	.L39
 503              	.LVL35:
 504              	.L40:
 129:key1.c        ****     else
 505              		.loc 1 129 0
 506 0016 0020     		mov	r0, #0
 507              	.LVL36:
 508 0018 00E0     		b	.L39
 509              	.LVL37:
ARM GAS  C:\Users\Administrator\AppData\Local\Temp\ccIMoIzk.s 			page 14


 510              	.L41:
 511 001a 0020     		mov	r0, #0
 512              	.LVL38:
 513              	.L39:
 136:key1.c        **** 
 514              		.loc 1 136 0
 515              		@ sp needed
 516 001c 7047     		bx	lr
 517              	.L43:
 518 001e C046     		.align	2
 519              	.L42:
 520 0020 00000000 		.word	.LANCHOR0
 521              		.cfi_endproc
 522              	.LFE37:
 523              		.size	key_add_event_handler, .-key_add_event_handler
 524              		.section	.text.key_add_combine_handler,"ax",%progbits
 525              		.align	2
 526              		.global	key_add_combine_handler
 527              		.code	16
 528              		.thumb_func
 529              		.type	key_add_combine_handler, %function
 530              	key_add_combine_handler:
 531              	.LFB38:
 139:key1.c        ****     Key_Index key1, key2;
 532              		.loc 1 139 0
 533              		.cfi_startproc
 534              	.LVL39:
 535 0000 10B5     		push	{r4, lr}
 536              		.cfi_def_cfa_offset 8
 537              		.cfi_offset 4, -8
 538              		.cfi_offset 14, -4
 141:key1.c        ****         return FALSE;
 539              		.loc 1 141 0
 540 0002 8842     		cmp	r0, r1
 541 0004 15D0     		beq	.L48
 143:key1.c        ****         return FALSE;
 542              		.loc 1 143 0
 543 0006 002A     		cmp	r2, #0
 544 0008 15D0     		beq	.L49
 145:key1.c        ****     key2 = MAX(i, j);
 545              		.loc 1 145 0
 546 000a 0B1C     		add	r3, r1, #0
 547 000c 8142     		cmp	r1, r0
 548 000e 00D9     		bls	.L46
 549 0010 031C     		add	r3, r0, #0
 550              	.L46:
 551 0012 DCB2     		uxtb	r4, r3
 552              	.LVL40:
 146:key1.c        ****     conbine_handler[key1][key2] = h;
 553              		.loc 1 146 0
 554 0014 0B1C     		add	r3, r1, #0
 555              	.LVL41:
 556 0016 8142     		cmp	r1, r0
 557 0018 00D2     		bcs	.L47
 558 001a 031C     		add	r3, r0, #0
 559              	.L47:
 560 001c D9B2     		uxtb	r1, r3
ARM GAS  C:\Users\Administrator\AppData\Local\Temp\ccIMoIzk.s 			page 15


 561              	.LVL42:
 147:key1.c        ****     return TRUE;
 562              		.loc 1 147 0
 563 001e 6300     		lsl	r3, r4, #1
 564              	.LVL43:
 565 0020 1B19     		add	r3, r3, r4
 566 0022 9B00     		lsl	r3, r3, #2
 567 0024 5B18     		add	r3, r3, r1
 568 0026 9B00     		lsl	r3, r3, #2
 569 0028 0449     		ldr	r1, .L50
 570              	.LVL44:
 571 002a CB18     		add	r3, r1, r3
 572 002c 1A64     		str	r2, [r3, #64]
 148:key1.c        **** }
 573              		.loc 1 148 0
 574 002e 0120     		mov	r0, #1
 575              	.LVL45:
 576 0030 02E0     		b	.L45
 577              	.LVL46:
 578              	.L48:
 142:key1.c        ****     if (h == NULL)
 579              		.loc 1 142 0
 580 0032 0020     		mov	r0, #0
 581              	.LVL47:
 582 0034 00E0     		b	.L45
 583              	.LVL48:
 584              	.L49:
 144:key1.c        ****     key1 = MIN(i, j);
 585              		.loc 1 144 0
 586 0036 0020     		mov	r0, #0
 587              	.LVL49:
 588              	.L45:
 149:key1.c        **** 
 589              		.loc 1 149 0
 590              		@ sp needed
 591 0038 10BD     		pop	{r4, pc}
 592              	.L51:
 593 003a C046     		.align	2
 594              	.L50:
 595 003c 80000000 		.word	.LANCHOR1
 596              		.cfi_endproc
 597              	.LFE38:
 598              		.size	key_add_combine_handler, .-key_add_combine_handler
 599              		.global	key_paras
 600              		.comm	state,12,4
 601              		.comm	keys,96,4
 602              		.data
 603              		.align	2
 604              		.set	.LANCHOR2,. + 0
 605              		.type	key_paras, %object
 606              		.size	key_paras, 72
 607              	key_paras:
 608 0000 2800     		.short	40
 609 0002 B80B     		.short	3000
 610 0004 401F     		.short	8000
 611 0006 2800     		.short	40
 612 0008 B80B     		.short	3000
ARM GAS  C:\Users\Administrator\AppData\Local\Temp\ccIMoIzk.s 			page 16


 613 000a 401F     		.short	8000
 614 000c 2800     		.short	40
 615 000e B80B     		.short	3000
 616 0010 401F     		.short	8000
 617 0012 2800     		.short	40
 618 0014 B80B     		.short	3000
 619 0016 401F     		.short	8000
 620 0018 2800     		.short	40
 621 001a B80B     		.short	3000
 622 001c 401F     		.short	8000
 623 001e 2800     		.short	40
 624 0020 B80B     		.short	3000
 625 0022 401F     		.short	8000
 626 0024 2800     		.short	40
 627 0026 B80B     		.short	3000
 628 0028 401F     		.short	8000
 629 002a 2800     		.short	40
 630 002c B80B     		.short	3000
 631 002e 401F     		.short	8000
 632 0030 2800     		.short	40
 633 0032 B80B     		.short	3000
 634 0034 401F     		.short	8000
 635 0036 2800     		.short	40
 636 0038 B80B     		.short	3000
 637 003a 401F     		.short	8000
 638 003c 2800     		.short	40
 639 003e B80B     		.short	3000
 640 0040 401F     		.short	8000
 641 0042 2800     		.short	40
 642 0044 B80B     		.short	3000
 643 0046 401F     		.short	8000
 644              		.bss
 645              		.align	2
 646              		.set	.LANCHOR0,. + 0
 647              		.set	.LANCHOR1,. + 128
 648              		.type	event_handlers, %object
 649              		.size	event_handlers, 192
 650              	event_handlers:
 651 0000 00000000 		.space	192
 651      00000000 
 651      00000000 
 651      00000000 
 651      00000000 
 652              		.type	conbine_handler, %object
 653              		.size	conbine_handler, 576
 654              	conbine_handler:
 655 00c0 00000000 		.space	576
 655      00000000 
 655      00000000 
 655      00000000 
 655      00000000 
 656              		.text
 657              	.Letext0:
 658              		.file 2 "types.h"
 659              		.file 3 "key1_config.h"
 660              		.file 4 "key1.h"