ARM GAS  C:\Users\Administrator\AppData\Local\Temp\ccrG5N5m.s 			page 1


   1              		.cpu cortex-m0plus
   2              		.fpu softvfp
   3              		.eabi_attribute 20, 1
   4              		.eabi_attribute 21, 1
   5              		.eabi_attribute 23, 3
   6              		.eabi_attribute 24, 1
   7              		.eabi_attribute 25, 1
   8              		.eabi_attribute 26, 1
   9              		.eabi_attribute 30, 1
  10              		.eabi_attribute 34, 0
  11              		.eabi_attribute 18, 4
  12              		.code	16
  13              		.file	"key_touch_Filter.c"
  14              		.text
  15              	.Ltext0:
  16              		.cfi_sections	.debug_frame
  17              		.section	.text.key_touch_FtInitialize,"ax",%progbits
  18              		.align	2
  19              		.global	key_touch_FtInitialize
  20              		.code	16
  21              		.thumb_func
  22              		.type	key_touch_FtInitialize, %function
  23              	key_touch_FtInitialize:
  24              	.LFB1:
  25              		.file 1 "Generated_Source\\PSoC4\\key_touch_Filter.c"
   1:Generated_Source\PSoC4/key_touch_Filter.c **** /***************************************************************************//**
   2:Generated_Source\PSoC4/key_touch_Filter.c **** * \file     key_touch_Filter.c
   3:Generated_Source\PSoC4/key_touch_Filter.c **** * \version  3.10
   4:Generated_Source\PSoC4/key_touch_Filter.c **** *
   5:Generated_Source\PSoC4/key_touch_Filter.c **** * \brief    This file contains the implementation source code to implement all 
   6:Generated_Source\PSoC4/key_touch_Filter.c **** *           firmware filters.
   7:Generated_Source\PSoC4/key_touch_Filter.c **** *
   8:Generated_Source\PSoC4/key_touch_Filter.c **** * \see      CapSense P4 v3.10 Datasheet
   9:Generated_Source\PSoC4/key_touch_Filter.c **** * 
  10:Generated_Source\PSoC4/key_touch_Filter.c **** *//*****************************************************************************
  11:Generated_Source\PSoC4/key_touch_Filter.c **** * Copyright (2016), Cypress Semiconductor Corporation.
  12:Generated_Source\PSoC4/key_touch_Filter.c **** ********************************************************************************
  13:Generated_Source\PSoC4/key_touch_Filter.c **** * This software is owned by Cypress Semiconductor Corporation (Cypress) and is
  14:Generated_Source\PSoC4/key_touch_Filter.c **** * protected by and subject to worldwide patent protection (United States and
  15:Generated_Source\PSoC4/key_touch_Filter.c **** * foreign), United States copyright laws and international treaty provisions.
  16:Generated_Source\PSoC4/key_touch_Filter.c **** * Cypress hereby grants to licensee a personal, non-exclusive, non-transferable
  17:Generated_Source\PSoC4/key_touch_Filter.c **** * license to copy, use, modify, create derivative works of, and compile the
  18:Generated_Source\PSoC4/key_touch_Filter.c **** * Cypress Source Code and derivative works for the sole purpose of creating
  19:Generated_Source\PSoC4/key_touch_Filter.c **** * custom software in support of licensee product to be used only in conjunction
  20:Generated_Source\PSoC4/key_touch_Filter.c **** * with a Cypress integrated circuit as specified in the applicable agreement.
  21:Generated_Source\PSoC4/key_touch_Filter.c **** * Any reproduction, modification, translation, compilation, or representation of
  22:Generated_Source\PSoC4/key_touch_Filter.c **** * this software except as specified above is prohibited without the express
  23:Generated_Source\PSoC4/key_touch_Filter.c **** * written permission of Cypress.
  24:Generated_Source\PSoC4/key_touch_Filter.c **** *
  25:Generated_Source\PSoC4/key_touch_Filter.c **** * Disclaimer: CYPRESS MAKES NO WARRANTY OF ANY KIND, EXPRESS OR IMPLIED, WITH
  26:Generated_Source\PSoC4/key_touch_Filter.c **** * REGARD TO THIS MATERIAL, INCLUDING, BUT NOT LIMITED TO, THE IMPLIED
  27:Generated_Source\PSoC4/key_touch_Filter.c **** * WARRANTIES OF MERCHANTABILITY AND FITNESS FOR A PARTICULAR PURPOSE.
  28:Generated_Source\PSoC4/key_touch_Filter.c **** * Cypress reserves the right to make changes without further notice to the
  29:Generated_Source\PSoC4/key_touch_Filter.c **** * materials described herein. Cypress does not assume any liability arising out
  30:Generated_Source\PSoC4/key_touch_Filter.c **** * of the application or use of any product or circuit described herein. Cypress
  31:Generated_Source\PSoC4/key_touch_Filter.c **** * does not authorize its products for use as critical components in life-support
  32:Generated_Source\PSoC4/key_touch_Filter.c **** * systems where a malfunction or failure may reasonably be expected to result in
ARM GAS  C:\Users\Administrator\AppData\Local\Temp\ccrG5N5m.s 			page 2


  33:Generated_Source\PSoC4/key_touch_Filter.c **** * significant injury to the user. The inclusion of Cypress' product in a life-
  34:Generated_Source\PSoC4/key_touch_Filter.c **** * support systems application implies that the manufacturer assumes all risk of
  35:Generated_Source\PSoC4/key_touch_Filter.c **** * such use and in doing so indemnifies Cypress against all charges. Use may be
  36:Generated_Source\PSoC4/key_touch_Filter.c **** * limited by and subject to the applicable Cypress software license agreement.
  37:Generated_Source\PSoC4/key_touch_Filter.c **** *******************************************************************************/
  38:Generated_Source\PSoC4/key_touch_Filter.c **** 
  39:Generated_Source\PSoC4/key_touch_Filter.c **** #include "key_touch_Filter.h"
  40:Generated_Source\PSoC4/key_touch_Filter.c **** #include "key_touch_Configuration.h"
  41:Generated_Source\PSoC4/key_touch_Filter.c **** 
  42:Generated_Source\PSoC4/key_touch_Filter.c **** #if (0 != (key_touch_CSD_AUTOTUNE & key_touch_CSD_SS_TH_EN))
  43:Generated_Source\PSoC4/key_touch_Filter.c ****     #include "key_touch_SmartSense_LL.h"
  44:Generated_Source\PSoC4/key_touch_Filter.c **** #endif /* (0 != (key_touch_CSD_AUTOTUNE & key_touch_CSD_SS_TH_EN)) */
  45:Generated_Source\PSoC4/key_touch_Filter.c **** 
  46:Generated_Source\PSoC4/key_touch_Filter.c **** #if (key_touch_ENABLE == key_touch_SELF_TEST_EN)
  47:Generated_Source\PSoC4/key_touch_Filter.c ****     #include "key_touch_SelfTest.h"
  48:Generated_Source\PSoC4/key_touch_Filter.c **** #endif
  49:Generated_Source\PSoC4/key_touch_Filter.c **** 
  50:Generated_Source\PSoC4/key_touch_Filter.c **** /*******************************************************************************
  51:Generated_Source\PSoC4/key_touch_Filter.c **** * Function Name: key_touch_FtInitialize
  52:Generated_Source\PSoC4/key_touch_Filter.c **** ****************************************************************************//**
  53:Generated_Source\PSoC4/key_touch_Filter.c **** *
  54:Generated_Source\PSoC4/key_touch_Filter.c **** * \brief
  55:Generated_Source\PSoC4/key_touch_Filter.c **** *    Initializes all the firmware filter history, except the baseline filter.
  56:Generated_Source\PSoC4/key_touch_Filter.c **** *
  57:Generated_Source\PSoC4/key_touch_Filter.c **** * \details
  58:Generated_Source\PSoC4/key_touch_Filter.c **** *    Initializes all the firmware filter history, except the baseline filter.
  59:Generated_Source\PSoC4/key_touch_Filter.c **** *
  60:Generated_Source\PSoC4/key_touch_Filter.c **** *******************************************************************************/
  61:Generated_Source\PSoC4/key_touch_Filter.c **** void key_touch_FtInitialize(void)
  62:Generated_Source\PSoC4/key_touch_Filter.c **** {
  26              		.loc 1 62 0
  27              		.cfi_startproc
  28 0000 F8B5     		push	{r3, r4, r5, r6, r7, lr}
  29              		.cfi_def_cfa_offset 24
  30              		.cfi_offset 3, -24
  31              		.cfi_offset 4, -20
  32              		.cfi_offset 5, -16
  33              		.cfi_offset 6, -12
  34              		.cfi_offset 7, -8
  35              		.cfi_offset 14, -4
  36              	.LVL0:
  63:Generated_Source\PSoC4/key_touch_Filter.c ****     uint32 widgetId;
  64:Generated_Source\PSoC4/key_touch_Filter.c ****     uint32 sensorId;
  65:Generated_Source\PSoC4/key_touch_Filter.c ****     uint32 sensorsNumber;
  66:Generated_Source\PSoC4/key_touch_Filter.c **** 
  67:Generated_Source\PSoC4/key_touch_Filter.c ****     key_touch_FLASH_WD_STRUCT const *ptrWidget;
  68:Generated_Source\PSoC4/key_touch_Filter.c ****     key_touch_RAM_SNS_STRUCT *ptrSensor = NULL;
  69:Generated_Source\PSoC4/key_touch_Filter.c ****     key_touch_PTR_FILTER_VARIANT ptrFilterHistObj;
  70:Generated_Source\PSoC4/key_touch_Filter.c ****     
  71:Generated_Source\PSoC4/key_touch_Filter.c ****     #if key_touch_CSD_AUTOTUNE & key_touch_CSD_SS_TH_EN
  72:Generated_Source\PSoC4/key_touch_Filter.c ****         key_touch_RAM_WD_BASE_STRUCT *ptrWidgetRam;
  73:Generated_Source\PSoC4/key_touch_Filter.c ****         SMARTSENSE_CSD_NOISE_ENVELOPE_STRUCT *ptrNoiseEnvelope = NULL;
  74:Generated_Source\PSoC4/key_touch_Filter.c ****     #endif /* #if key_touch_CSD_AUTOTUNE & key_touch_CSD_SS_TH_EN */
  75:Generated_Source\PSoC4/key_touch_Filter.c ****     
  76:Generated_Source\PSoC4/key_touch_Filter.c ****     for (widgetId = key_touch_TOTAL_WIDGETS; widgetId-- > 0u;)
  37              		.loc 1 76 0
  38 0002 0C23     		mov	r3, #12
ARM GAS  C:\Users\Administrator\AppData\Local\Temp\ccrG5N5m.s 			page 3


  39 0004 1AE0     		b	.L2
  40              	.LVL1:
  41              	.L5:
  77:Generated_Source\PSoC4/key_touch_Filter.c ****     {
  78:Generated_Source\PSoC4/key_touch_Filter.c ****         ptrWidget = &key_touch_dsFlash.wdgtArray[widgetId];
  79:Generated_Source\PSoC4/key_touch_Filter.c ****         
  80:Generated_Source\PSoC4/key_touch_Filter.c ****         #if key_touch_CSD_AUTOTUNE & key_touch_CSD_SS_TH_EN
  81:Generated_Source\PSoC4/key_touch_Filter.c ****             ptrWidgetRam = ptrWidget->ptr2WdgtRam;
  42              		.loc 1 81 0
  43 0006 6B01     		lsl	r3, r5, #5
  44 0008 0E4A     		ldr	r2, .L6
  45 000a D318     		add	r3, r2, r3
  46              	.LVL2:
  47 000c 5E68     		ldr	r6, [r3, #4]
  48              	.LVL3:
  82:Generated_Source\PSoC4/key_touch_Filter.c ****         #endif /* #if key_touch_CSD_AUTOTUNE & key_touch_CSD_SS_TH_EN */
  83:Generated_Source\PSoC4/key_touch_Filter.c **** 
  84:Generated_Source\PSoC4/key_touch_Filter.c ****         /* Find total amount of sensors in specified widget */   
  85:Generated_Source\PSoC4/key_touch_Filter.c ****         sensorsNumber = key_touch_GET_SNS_CNT_BY_PTR(ptrWidget);    
  49              		.loc 1 85 0
  50 000e DB8A     		ldrh	r3, [r3, #22]
  51              	.LVL4:
  86:Generated_Source\PSoC4/key_touch_Filter.c ****     
  87:Generated_Source\PSoC4/key_touch_Filter.c ****         for (sensorId = sensorsNumber; sensorId-- > 0u;) 
  52              		.loc 1 87 0
  53 0010 10E0     		b	.L3
  54              	.LVL5:
  55              	.L4:
  88:Generated_Source\PSoC4/key_touch_Filter.c ****         {
  89:Generated_Source\PSoC4/key_touch_Filter.c ****             /* Find pointer to specified sensor object */
  90:Generated_Source\PSoC4/key_touch_Filter.c ****             ptrSensor = ptrWidget->ptr2SnsRam;
  56              		.loc 1 90 0
  57 0012 6B01     		lsl	r3, r5, #5
  58 0014 0B4A     		ldr	r2, .L6
  59 0016 D318     		add	r3, r2, r3
  60 0018 9F68     		ldr	r7, [r3, #8]
  61              	.LVL6:
  91:Generated_Source\PSoC4/key_touch_Filter.c ****             ptrSensor = &ptrSensor[sensorId];
  62              		.loc 1 91 0
  63 001a A000     		lsl	r0, r4, #2
  64 001c 0019     		add	r0, r0, r4
  65 001e 4000     		lsl	r0, r0, #1
  66              	.LVL7:
  92:Generated_Source\PSoC4/key_touch_Filter.c ****                         
  93:Generated_Source\PSoC4/key_touch_Filter.c ****             /* Find pointer to to specified filter sensor object */
  94:Generated_Source\PSoC4/key_touch_Filter.c ****             ptrFilterHistObj.ptr = ptrWidget->ptr2FltrHistory;
  95:Generated_Source\PSoC4/key_touch_Filter.c **** 
  96:Generated_Source\PSoC4/key_touch_Filter.c ****             #if key_touch_CSD_AUTOTUNE & key_touch_CSD_SS_TH_EN
  97:Generated_Source\PSoC4/key_touch_Filter.c ****                 /* Find pointer to specified noise envelope sensor object */
  98:Generated_Source\PSoC4/key_touch_Filter.c ****                 ptrNoiseEnvelope = ptrWidget->ptr2NoiseEnvlp;
  67              		.loc 1 98 0
  68 0020 DA69     		ldr	r2, [r3, #28]
  69              	.LVL8:
  99:Generated_Source\PSoC4/key_touch_Filter.c ****                 ptrNoiseEnvelope = &ptrNoiseEnvelope[sensorId];    
  70              		.loc 1 99 0
  71 0022 6100     		lsl	r1, r4, #1
  72 0024 0B19     		add	r3, r1, r4
ARM GAS  C:\Users\Administrator\AppData\Local\Temp\ccrG5N5m.s 			page 4


  73 0026 9B00     		lsl	r3, r3, #2
  74 0028 D218     		add	r2, r2, r3
  75              	.LVL9:
 100:Generated_Source\PSoC4/key_touch_Filter.c ****             #endif /* #if key_touch_CSD_AUTOTUNE & key_touch_CSD_SS_TH_EN */
 101:Generated_Source\PSoC4/key_touch_Filter.c ****             
 102:Generated_Source\PSoC4/key_touch_Filter.c ****             if ((key_touch_WD_TYPE_ENUM)ptrWidget->wdgtType != key_touch_WD_PROXIMITY_E)
 103:Generated_Source\PSoC4/key_touch_Filter.c ****             {
 104:Generated_Source\PSoC4/key_touch_Filter.c ****                 #if (key_touch_REGULAR_SENSOR_EN)             
 105:Generated_Source\PSoC4/key_touch_Filter.c ****                     ptrFilterHistObj.ptrRegular = &ptrFilterHistObj.ptrRegular[sensorId];
 106:Generated_Source\PSoC4/key_touch_Filter.c ****                 #endif /* (key_touch_REGULAR_SENSOR_EN) */
 107:Generated_Source\PSoC4/key_touch_Filter.c ****             }
 108:Generated_Source\PSoC4/key_touch_Filter.c ****             else
 109:Generated_Source\PSoC4/key_touch_Filter.c ****             {
 110:Generated_Source\PSoC4/key_touch_Filter.c ****                 #if (key_touch_PROXIMITY_SENSOR_EN)             
 111:Generated_Source\PSoC4/key_touch_Filter.c ****                     ptrFilterHistObj.ptrProx = &ptrFilterHistObj.ptrProx[sensorId];
 112:Generated_Source\PSoC4/key_touch_Filter.c ****                 #endif /* (key_touch_PROXIMITY_SENSOR_EN) */
 113:Generated_Source\PSoC4/key_touch_Filter.c ****             }
 114:Generated_Source\PSoC4/key_touch_Filter.c ****             
 115:Generated_Source\PSoC4/key_touch_Filter.c ****             #if (key_touch_REGULAR_RC_IIR_FILTER_EN || key_touch_PROX_RC_IIR_FILTER_EN)
 116:Generated_Source\PSoC4/key_touch_Filter.c ****                 key_touch_InitializeIIRInternal(ptrFilterHistObj, ptrSensor, (uint32)ptrWidget->wdg
 117:Generated_Source\PSoC4/key_touch_Filter.c ****             #endif /* (key_touch_REGULAR_RC_IIR_FILTER_EN || key_touch_PROX_RC_IIR_FILTER_EN) */   
 118:Generated_Source\PSoC4/key_touch_Filter.c **** 
 119:Generated_Source\PSoC4/key_touch_Filter.c ****             #if (key_touch_REGULAR_RC_MEDIAN_FILTER_EN || key_touch_PROX_RC_MEDIAN_FILTER_EN)
 120:Generated_Source\PSoC4/key_touch_Filter.c ****                 key_touch_InitializeMedianInternal(ptrFilterHistObj, ptrSensor, (uint32)ptrWidget->
 121:Generated_Source\PSoC4/key_touch_Filter.c ****             #endif /* (key_touch_REGULAR_RC_MEDIAN_FILTER_EN || key_touch_PROX_RC_MEDIAN_FILTER_EN)
 122:Generated_Source\PSoC4/key_touch_Filter.c **** 
 123:Generated_Source\PSoC4/key_touch_Filter.c ****             #if (key_touch_REGULAR_RC_AVERAGE_FILTER_EN || key_touch_PROX_RC_AVERAGE_FILTER_EN)
 124:Generated_Source\PSoC4/key_touch_Filter.c ****                 key_touch_InitializeAverageInternal(ptrFilterHistObj, ptrSensor, (uint32)ptrWidget-
 125:Generated_Source\PSoC4/key_touch_Filter.c ****             #endif /* (key_touch_REGULAR_RC_AVERAGE_FILTER_EN || key_touch_PROX_RC_AVERAGE_FILTER_E
 126:Generated_Source\PSoC4/key_touch_Filter.c ****             
 127:Generated_Source\PSoC4/key_touch_Filter.c ****             #if (key_touch_CSD_AUTOTUNE & key_touch_CSD_SS_TH_EN)
 128:Generated_Source\PSoC4/key_touch_Filter.c ****                 if (key_touch_SENSE_METHOD_CSD_E ==
 129:Generated_Source\PSoC4/key_touch_Filter.c ****                     key_touch_GET_SENSE_METHOD(&key_touch_dsFlash.wdgtArray[widgetId]))
 130:Generated_Source\PSoC4/key_touch_Filter.c ****                 {
 131:Generated_Source\PSoC4/key_touch_Filter.c ****                     SmartSense_InitializeNoiseEnvelope(ptrSensor->raw[0u], ptrWidgetRam->sigPFC, pt
  76              		.loc 1 131 0
  77 002a 385A     		ldrh	r0, [r7, r0]
  78              	.LVL10:
  79 002c 318A     		ldrh	r1, [r6, #16]
  80 002e FFF7FEFF 		bl	SmartSense_InitializeNoiseEnvelope
  81              	.LVL11:
  87:Generated_Source\PSoC4/key_touch_Filter.c ****         {
  82              		.loc 1 87 0
  83 0032 231C     		mov	r3, r4
  84              	.LVL12:
  85              	.L3:
  87:Generated_Source\PSoC4/key_touch_Filter.c ****         {
  86              		.loc 1 87 0 is_stmt 0 discriminator 1
  87 0034 5C1E     		sub	r4, r3, #1
  88              	.LVL13:
  89 0036 002B     		cmp	r3, #0
  90 0038 EBD1     		bne	.L4
  76:Generated_Source\PSoC4/key_touch_Filter.c ****     {
  91              		.loc 1 76 0 is_stmt 1
  92 003a 2B1C     		mov	r3, r5
  93              	.LVL14:
  94              	.L2:
ARM GAS  C:\Users\Administrator\AppData\Local\Temp\ccrG5N5m.s 			page 5


  76:Generated_Source\PSoC4/key_touch_Filter.c ****     {
  95              		.loc 1 76 0 is_stmt 0 discriminator 1
  96 003c 5D1E     		sub	r5, r3, #1
  97              	.LVL15:
  98 003e 002B     		cmp	r3, #0
  99 0040 E1D1     		bne	.L5
 132:Generated_Source\PSoC4/key_touch_Filter.c ****                 }
 133:Generated_Source\PSoC4/key_touch_Filter.c ****             #endif /* #if key_touch_CSD_AUTOTUNE & key_touch_CSD_SS_TH_EN */
 134:Generated_Source\PSoC4/key_touch_Filter.c ****         }
 135:Generated_Source\PSoC4/key_touch_Filter.c ****     }   
 136:Generated_Source\PSoC4/key_touch_Filter.c **** }
 100              		.loc 1 136 0 is_stmt 1
 101              		@ sp needed
 102              	.LVL16:
 103 0042 F8BD     		pop	{r3, r4, r5, r6, r7, pc}
 104              	.L7:
 105              		.align	2
 106              	.L6:
 107 0044 00000000 		.word	key_touch_dsFlash
 108              		.cfi_endproc
 109              	.LFE1:
 110              		.size	key_touch_FtInitialize, .-key_touch_FtInitialize
 111              		.section	.text.key_touch_FtInitializeBaselineChannel,"ax",%progbits
 112              		.align	2
 113              		.global	key_touch_FtInitializeBaselineChannel
 114              		.code	16
 115              		.thumb_func
 116              		.type	key_touch_FtInitializeBaselineChannel, %function
 117              	key_touch_FtInitializeBaselineChannel:
 118              	.LFB10:
 137:Generated_Source\PSoC4/key_touch_Filter.c **** 
 138:Generated_Source\PSoC4/key_touch_Filter.c **** 
 139:Generated_Source\PSoC4/key_touch_Filter.c **** /*******************************************************************************
 140:Generated_Source\PSoC4/key_touch_Filter.c **** * Function Name: key_touch_UpdateAllBaselines
 141:Generated_Source\PSoC4/key_touch_Filter.c **** ****************************************************************************//**
 142:Generated_Source\PSoC4/key_touch_Filter.c **** *
 143:Generated_Source\PSoC4/key_touch_Filter.c **** * \brief    
 144:Generated_Source\PSoC4/key_touch_Filter.c **** *  Updates the baseline for all sensors in all widgets.
 145:Generated_Source\PSoC4/key_touch_Filter.c **** *
 146:Generated_Source\PSoC4/key_touch_Filter.c **** * \details
 147:Generated_Source\PSoC4/key_touch_Filter.c **** *  Updates the baseline for all sensors in all widgets. Baseline updating is a 
 148:Generated_Source\PSoC4/key_touch_Filter.c **** *  part of data processing performed by the process functions. So, no need to 
 149:Generated_Source\PSoC4/key_touch_Filter.c **** *  call this function except a specific process flow is implemented.
 150:Generated_Source\PSoC4/key_touch_Filter.c **** *  
 151:Generated_Source\PSoC4/key_touch_Filter.c **** *  This function ignores the value of the wdgtEnable register. Multiple calling 
 152:Generated_Source\PSoC4/key_touch_Filter.c **** *  of this function (or any other function with a baseline updating task) 
 153:Generated_Source\PSoC4/key_touch_Filter.c **** *  without scanning leads to unexpected behavior.
 154:Generated_Source\PSoC4/key_touch_Filter.c **** *
 155:Generated_Source\PSoC4/key_touch_Filter.c **** *  If Self-test library is enabled this function executes baseline duplication
 156:Generated_Source\PSoC4/key_touch_Filter.c **** *  test. Refer to key_touch_CheckBaselineDuplication() for details.
 157:Generated_Source\PSoC4/key_touch_Filter.c **** *
 158:Generated_Source\PSoC4/key_touch_Filter.c **** * \return   
 159:Generated_Source\PSoC4/key_touch_Filter.c **** *  Returns the status of the update baseline operation of all widgets:
 160:Generated_Source\PSoC4/key_touch_Filter.c **** *  - CYRET_SUCCESS if operation was successfully completed
 161:Generated_Source\PSoC4/key_touch_Filter.c **** *  - CYRET_BAD_DATA if baseline processing failed
 162:Generated_Source\PSoC4/key_touch_Filter.c **** *
 163:Generated_Source\PSoC4/key_touch_Filter.c **** *******************************************************************************/
ARM GAS  C:\Users\Administrator\AppData\Local\Temp\ccrG5N5m.s 			page 6


 164:Generated_Source\PSoC4/key_touch_Filter.c **** cystatus key_touch_UpdateAllBaselines(void)
 165:Generated_Source\PSoC4/key_touch_Filter.c **** {
 166:Generated_Source\PSoC4/key_touch_Filter.c ****     uint32 widgetId; 
 167:Generated_Source\PSoC4/key_touch_Filter.c ****     cystatus bslnStatus = CYRET_SUCCESS;
 168:Generated_Source\PSoC4/key_touch_Filter.c ****     
 169:Generated_Source\PSoC4/key_touch_Filter.c ****     for(widgetId = key_touch_TOTAL_WIDGETS; widgetId-- > 0u;)
 170:Generated_Source\PSoC4/key_touch_Filter.c ****     {            
 171:Generated_Source\PSoC4/key_touch_Filter.c ****         bslnStatus |= key_touch_UpdateWidgetBaseline(widgetId);       
 172:Generated_Source\PSoC4/key_touch_Filter.c ****     }      
 173:Generated_Source\PSoC4/key_touch_Filter.c ****     
 174:Generated_Source\PSoC4/key_touch_Filter.c ****     return(bslnStatus);
 175:Generated_Source\PSoC4/key_touch_Filter.c **** }
 176:Generated_Source\PSoC4/key_touch_Filter.c ****   
 177:Generated_Source\PSoC4/key_touch_Filter.c **** 
 178:Generated_Source\PSoC4/key_touch_Filter.c **** /*******************************************************************************
 179:Generated_Source\PSoC4/key_touch_Filter.c **** * Function Name: key_touch_UpdateWidgetBaseline
 180:Generated_Source\PSoC4/key_touch_Filter.c **** ****************************************************************************//**
 181:Generated_Source\PSoC4/key_touch_Filter.c **** *
 182:Generated_Source\PSoC4/key_touch_Filter.c **** * \brief    
 183:Generated_Source\PSoC4/key_touch_Filter.c **** *  Updates the baseline for all sensors in a widget specified by input parameter.
 184:Generated_Source\PSoC4/key_touch_Filter.c **** *
 185:Generated_Source\PSoC4/key_touch_Filter.c **** * \details  
 186:Generated_Source\PSoC4/key_touch_Filter.c **** *  This function performs exactly the same tasks as 
 187:Generated_Source\PSoC4/key_touch_Filter.c **** *  key_touch_UpdateAllBaselines(), but only for a specified widget.
 188:Generated_Source\PSoC4/key_touch_Filter.c **** *  
 189:Generated_Source\PSoC4/key_touch_Filter.c **** *  This function ignores the value of the wdgtEnable register. Multiple calling
 190:Generated_Source\PSoC4/key_touch_Filter.c **** *  of this function (or any other function with a baseline updating task) 
 191:Generated_Source\PSoC4/key_touch_Filter.c **** *  without scanning leads to unexpected behavior.
 192:Generated_Source\PSoC4/key_touch_Filter.c **** *
 193:Generated_Source\PSoC4/key_touch_Filter.c **** *  If Self-test library is enabled this function executes baseline duplication
 194:Generated_Source\PSoC4/key_touch_Filter.c **** *  test. Refer to key_touch_CheckBaselineDuplication() for details.
 195:Generated_Source\PSoC4/key_touch_Filter.c **** *
 196:Generated_Source\PSoC4/key_touch_Filter.c **** * \param widgetId 
 197:Generated_Source\PSoC4/key_touch_Filter.c **** *  Specify the ID number of the widget to update the baseline of all sensors
 198:Generated_Source\PSoC4/key_touch_Filter.c **** *  in the widget.
 199:Generated_Source\PSoC4/key_touch_Filter.c **** *  A macro for the widget ID can be found in the 
 200:Generated_Source\PSoC4/key_touch_Filter.c **** *  key_touch Configuration header file defined as 
 201:Generated_Source\PSoC4/key_touch_Filter.c **** *  key_touch_<WidgetName>_WDGT_ID.
 202:Generated_Source\PSoC4/key_touch_Filter.c **** *
 203:Generated_Source\PSoC4/key_touch_Filter.c **** * \return   
 204:Generated_Source\PSoC4/key_touch_Filter.c **** *  Returns the status of the specified widget update baseline operation:
 205:Generated_Source\PSoC4/key_touch_Filter.c **** *  - CYRET_SUCCESS if operation was successfully completed
 206:Generated_Source\PSoC4/key_touch_Filter.c **** *  - CYRET_BAD_DATA if baseline processing failed
 207:Generated_Source\PSoC4/key_touch_Filter.c **** *
 208:Generated_Source\PSoC4/key_touch_Filter.c **** *******************************************************************************/
 209:Generated_Source\PSoC4/key_touch_Filter.c **** cystatus key_touch_UpdateWidgetBaseline(uint32 widgetId)
 210:Generated_Source\PSoC4/key_touch_Filter.c **** {
 211:Generated_Source\PSoC4/key_touch_Filter.c ****     uint32 sensorId;       
 212:Generated_Source\PSoC4/key_touch_Filter.c ****     uint32 sensorsNumber;  
 213:Generated_Source\PSoC4/key_touch_Filter.c **** 
 214:Generated_Source\PSoC4/key_touch_Filter.c ****     key_touch_FLASH_WD_STRUCT const *ptrWidget = &key_touch_dsFlash.wdgtArray[widgetId];    
 215:Generated_Source\PSoC4/key_touch_Filter.c ****     cystatus bslnStatus = CYRET_SUCCESS;    
 216:Generated_Source\PSoC4/key_touch_Filter.c ****     
 217:Generated_Source\PSoC4/key_touch_Filter.c ****     /* Find total amount of sensors in specified widget */   
 218:Generated_Source\PSoC4/key_touch_Filter.c ****     sensorsNumber = key_touch_GET_SNS_CNT_BY_PTR(ptrWidget);    
 219:Generated_Source\PSoC4/key_touch_Filter.c ****     
 220:Generated_Source\PSoC4/key_touch_Filter.c ****     for(sensorId = sensorsNumber; sensorId-- > 0u;)
ARM GAS  C:\Users\Administrator\AppData\Local\Temp\ccrG5N5m.s 			page 7


 221:Generated_Source\PSoC4/key_touch_Filter.c ****     {
 222:Generated_Source\PSoC4/key_touch_Filter.c ****         bslnStatus |= key_touch_UpdateSensorBaseline(widgetId, sensorId);    
 223:Generated_Source\PSoC4/key_touch_Filter.c ****     }
 224:Generated_Source\PSoC4/key_touch_Filter.c **** 
 225:Generated_Source\PSoC4/key_touch_Filter.c ****     return(bslnStatus);
 226:Generated_Source\PSoC4/key_touch_Filter.c **** }
 227:Generated_Source\PSoC4/key_touch_Filter.c **** 
 228:Generated_Source\PSoC4/key_touch_Filter.c **** 
 229:Generated_Source\PSoC4/key_touch_Filter.c **** /*******************************************************************************
 230:Generated_Source\PSoC4/key_touch_Filter.c **** * Function Name: key_touch_UpdateSensorBaseline
 231:Generated_Source\PSoC4/key_touch_Filter.c **** ****************************************************************************//**
 232:Generated_Source\PSoC4/key_touch_Filter.c **** *
 233:Generated_Source\PSoC4/key_touch_Filter.c **** * \brief    
 234:Generated_Source\PSoC4/key_touch_Filter.c **** *  Updates the baseline for a sensor in a widget specified by input parameters.
 235:Generated_Source\PSoC4/key_touch_Filter.c **** *
 236:Generated_Source\PSoC4/key_touch_Filter.c **** * \details  
 237:Generated_Source\PSoC4/key_touch_Filter.c **** *  This function performs exactly the same tasks as
 238:Generated_Source\PSoC4/key_touch_Filter.c **** *  key_touch_UpdateAllBaselines() and 
 239:Generated_Source\PSoC4/key_touch_Filter.c **** *  key_touch_UpdateWidgetBaseline() but only for a specified sensor.
 240:Generated_Source\PSoC4/key_touch_Filter.c **** *  
 241:Generated_Source\PSoC4/key_touch_Filter.c **** *  This function ignores the value of the wdgtEnable register. Multiple calling 
 242:Generated_Source\PSoC4/key_touch_Filter.c **** *  of this function (or any other function with a baseline updating task) 
 243:Generated_Source\PSoC4/key_touch_Filter.c **** *  without scanning leads to unexpected behavior.
 244:Generated_Source\PSoC4/key_touch_Filter.c **** *
 245:Generated_Source\PSoC4/key_touch_Filter.c **** *  If Self-test library is enabled this function executes baseline duplication
 246:Generated_Source\PSoC4/key_touch_Filter.c **** *  test. Refer to key_touch_CheckBaselineDuplication() for details.
 247:Generated_Source\PSoC4/key_touch_Filter.c **** *
 248:Generated_Source\PSoC4/key_touch_Filter.c **** * \param   widgetId 
 249:Generated_Source\PSoC4/key_touch_Filter.c **** *  Specify the ID number of the widget to update the baseline of the sensor 
 250:Generated_Source\PSoC4/key_touch_Filter.c **** *  specified by the sensorId argument.
 251:Generated_Source\PSoC4/key_touch_Filter.c **** *  A macro for the widget ID can be found in the key_touch Configuration header 
 252:Generated_Source\PSoC4/key_touch_Filter.c **** *  file defined as key_touch_<WidgetName>_WDGT_ID. 
 253:Generated_Source\PSoC4/key_touch_Filter.c **** *
 254:Generated_Source\PSoC4/key_touch_Filter.c **** * \param   sensorId 
 255:Generated_Source\PSoC4/key_touch_Filter.c **** *  Specify the ID number of the sensor within the widget to update its baseline.
 256:Generated_Source\PSoC4/key_touch_Filter.c **** *  A macro for the sensor ID within a specified widget can be found in the 
 257:Generated_Source\PSoC4/key_touch_Filter.c **** *  key_touch Configuration header file defined as 
 258:Generated_Source\PSoC4/key_touch_Filter.c **** *  key_touch_<WidgetName>_SNS<SensorNumber>_ID
 259:Generated_Source\PSoC4/key_touch_Filter.c **** *
 260:Generated_Source\PSoC4/key_touch_Filter.c **** * \return   
 261:Generated_Source\PSoC4/key_touch_Filter.c **** *  Returns the status of the specified sensor update baseline operation:
 262:Generated_Source\PSoC4/key_touch_Filter.c **** *  - CYRET_SUCCESS if operation was successfully completed
 263:Generated_Source\PSoC4/key_touch_Filter.c **** *  - CYRET_BAD_DATA if baseline processing failed
 264:Generated_Source\PSoC4/key_touch_Filter.c **** *
 265:Generated_Source\PSoC4/key_touch_Filter.c **** *******************************************************************************/
 266:Generated_Source\PSoC4/key_touch_Filter.c **** cystatus key_touch_UpdateSensorBaseline(uint32 widgetId, uint32 sensorId)
 267:Generated_Source\PSoC4/key_touch_Filter.c **** {    
 268:Generated_Source\PSoC4/key_touch_Filter.c ****     uint32 result = CYRET_SUCCESS;
 269:Generated_Source\PSoC4/key_touch_Filter.c ****     
 270:Generated_Source\PSoC4/key_touch_Filter.c ****     key_touch_RAM_SNS_STRUCT *ptrSensor = NULL;    
 271:Generated_Source\PSoC4/key_touch_Filter.c ****     key_touch_FLASH_WD_STRUCT const *ptrWidget = &key_touch_dsFlash.wdgtArray[widgetId];    
 272:Generated_Source\PSoC4/key_touch_Filter.c ****     key_touch_RAM_WD_BASE_STRUCT *ptrWidgetRam = ptrWidget->ptr2WdgtRam;   
 273:Generated_Source\PSoC4/key_touch_Filter.c **** 
 274:Generated_Source\PSoC4/key_touch_Filter.c ****     /* Find pointer to specified sensor object */     
 275:Generated_Source\PSoC4/key_touch_Filter.c ****     ptrSensor = ptrWidget->ptr2SnsRam;
 276:Generated_Source\PSoC4/key_touch_Filter.c ****     ptrSensor = &ptrSensor[sensorId];
 277:Generated_Source\PSoC4/key_touch_Filter.c ****     result = key_touch_FtUpdateBaseline(ptrWidgetRam, ptrSensor, (uint32)ptrWidget->wdgtType);
ARM GAS  C:\Users\Administrator\AppData\Local\Temp\ccrG5N5m.s 			page 8


 278:Generated_Source\PSoC4/key_touch_Filter.c ****     
 279:Generated_Source\PSoC4/key_touch_Filter.c ****     #if (key_touch_ENABLE == key_touch_TST_BSLN_DUPLICATION_EN)
 280:Generated_Source\PSoC4/key_touch_Filter.c ****         if (CYRET_SUCCESS != result)
 281:Generated_Source\PSoC4/key_touch_Filter.c ****         {
 282:Generated_Source\PSoC4/key_touch_Filter.c ****             result = CYRET_BAD_DATA;
 283:Generated_Source\PSoC4/key_touch_Filter.c ****             key_touch_UpdateTestResultBaselineDuplication(widgetId, sensorId);           
 284:Generated_Source\PSoC4/key_touch_Filter.c ****         }
 285:Generated_Source\PSoC4/key_touch_Filter.c ****     #endif /* (key_touch_ENABLE == key_touch_TST_BSLN_DUPLICATION_EN) */
 286:Generated_Source\PSoC4/key_touch_Filter.c **** 
 287:Generated_Source\PSoC4/key_touch_Filter.c ****     return result;
 288:Generated_Source\PSoC4/key_touch_Filter.c **** }
 289:Generated_Source\PSoC4/key_touch_Filter.c **** 
 290:Generated_Source\PSoC4/key_touch_Filter.c **** /*******************************************************************************
 291:Generated_Source\PSoC4/key_touch_Filter.c **** * Function Name: key_touch_FtUpdateBaseline
 292:Generated_Source\PSoC4/key_touch_Filter.c **** ****************************************************************************//**
 293:Generated_Source\PSoC4/key_touch_Filter.c **** *
 294:Generated_Source\PSoC4/key_touch_Filter.c **** * \brief
 295:Generated_Source\PSoC4/key_touch_Filter.c **** *  Updates the baseline for a sensor specified by an input parameter.
 296:Generated_Source\PSoC4/key_touch_Filter.c **** *
 297:Generated_Source\PSoC4/key_touch_Filter.c **** * \details
 298:Generated_Source\PSoC4/key_touch_Filter.c **** *  Check a matching of present baseline and its inverse duplication. If they 
 299:Generated_Source\PSoC4/key_touch_Filter.c **** *  match then updates the baseline for a sensor specified by an input parameter.  
 300:Generated_Source\PSoC4/key_touch_Filter.c **** *  If don't match the function return key_touch_TST_BSLN_DUPLICATION
 301:Generated_Source\PSoC4/key_touch_Filter.c **** *  result and don't update baseline.
 302:Generated_Source\PSoC4/key_touch_Filter.c **** *
 303:Generated_Source\PSoC4/key_touch_Filter.c **** * \param    ptrWidgetRam
 304:Generated_Source\PSoC4/key_touch_Filter.c **** *  The pointer to the widget RAM structure where all the widget parameters
 305:Generated_Source\PSoC4/key_touch_Filter.c **** *  are stored.
 306:Generated_Source\PSoC4/key_touch_Filter.c **** *
 307:Generated_Source\PSoC4/key_touch_Filter.c **** * \param    ptrSensor
 308:Generated_Source\PSoC4/key_touch_Filter.c **** *  The pointer to the sensor RAM structure where all the sensor parameters
 309:Generated_Source\PSoC4/key_touch_Filter.c **** *  are stored.
 310:Generated_Source\PSoC4/key_touch_Filter.c **** *
 311:Generated_Source\PSoC4/key_touch_Filter.c **** * \param    wdType
 312:Generated_Source\PSoC4/key_touch_Filter.c **** *  Specifies the type of a widget.
 313:Generated_Source\PSoC4/key_touch_Filter.c **** *
 314:Generated_Source\PSoC4/key_touch_Filter.c **** * \return   
 315:Generated_Source\PSoC4/key_touch_Filter.c **** *  Returns a status indicating whether the baseline has been updated:
 316:Generated_Source\PSoC4/key_touch_Filter.c **** *  - CYRET_SUCCESS if baseline updating was successful;
 317:Generated_Source\PSoC4/key_touch_Filter.c **** *  - key_touch_PROCESS_BASELINE_FAILED if present sensor's any channel
 318:Generated_Source\PSoC4/key_touch_Filter.c **** *    baseline and its inversion doesn't matched
 319:Generated_Source\PSoC4/key_touch_Filter.c **** *
 320:Generated_Source\PSoC4/key_touch_Filter.c **** *******************************************************************************/
 321:Generated_Source\PSoC4/key_touch_Filter.c **** uint32 key_touch_FtUpdateBaseline(
 322:Generated_Source\PSoC4/key_touch_Filter.c ****                                 key_touch_RAM_WD_BASE_STRUCT *ptrWidgetRam,
 323:Generated_Source\PSoC4/key_touch_Filter.c ****                                 key_touch_RAM_SNS_STRUCT *ptrSensor, 
 324:Generated_Source\PSoC4/key_touch_Filter.c ****                                 uint32 wdType)
 325:Generated_Source\PSoC4/key_touch_Filter.c **** {         
 326:Generated_Source\PSoC4/key_touch_Filter.c ****     uint32 sign;
 327:Generated_Source\PSoC4/key_touch_Filter.c ****     uint32 difference;        
 328:Generated_Source\PSoC4/key_touch_Filter.c ****     uint32 channel;
 329:Generated_Source\PSoC4/key_touch_Filter.c ****     uint32 result = CYRET_SUCCESS;
 330:Generated_Source\PSoC4/key_touch_Filter.c ****     
 331:Generated_Source\PSoC4/key_touch_Filter.c ****     #if (key_touch_TOTAL_WIDGETS)  
 332:Generated_Source\PSoC4/key_touch_Filter.c ****         uint32 history;
 333:Generated_Source\PSoC4/key_touch_Filter.c ****     #endif /* (key_touch_TOTAL_WIDGETS) */    
 334:Generated_Source\PSoC4/key_touch_Filter.c ****     
ARM GAS  C:\Users\Administrator\AppData\Local\Temp\ccrG5N5m.s 			page 9


 335:Generated_Source\PSoC4/key_touch_Filter.c ****     /* Apply baseline to every channel in sensor */
 336:Generated_Source\PSoC4/key_touch_Filter.c ****     for(channel = key_touch_NUM_SCAN_FREQS; channel-- > 0u;) 
 337:Generated_Source\PSoC4/key_touch_Filter.c ****     {               
 338:Generated_Source\PSoC4/key_touch_Filter.c ****         #if (key_touch_ENABLE == key_touch_TST_BSLN_DUPLICATION_EN)
 339:Generated_Source\PSoC4/key_touch_Filter.c ****             if (ptrSensor->bslnInv[channel] != ((uint16) ~(ptrSensor->bsln[channel])))
 340:Generated_Source\PSoC4/key_touch_Filter.c ****             {
 341:Generated_Source\PSoC4/key_touch_Filter.c ****                 result = key_touch_PROCESS_BASELINE_FAILED;
 342:Generated_Source\PSoC4/key_touch_Filter.c ****             }
 343:Generated_Source\PSoC4/key_touch_Filter.c ****             else
 344:Generated_Source\PSoC4/key_touch_Filter.c ****             {
 345:Generated_Source\PSoC4/key_touch_Filter.c ****         #endif /* (key_touch_ENABLE == key_touch_TST_BSLN_DUPLICATION_EN) */
 346:Generated_Source\PSoC4/key_touch_Filter.c **** 
 347:Generated_Source\PSoC4/key_touch_Filter.c ****         /* Calculate signal value and its sign */
 348:Generated_Source\PSoC4/key_touch_Filter.c ****         if(ptrSensor->raw[channel] >= ptrSensor->bsln[channel])
 349:Generated_Source\PSoC4/key_touch_Filter.c ****         {
 350:Generated_Source\PSoC4/key_touch_Filter.c ****             difference = (uint32)ptrSensor->raw[channel] - (uint32)ptrSensor->bsln[channel];
 351:Generated_Source\PSoC4/key_touch_Filter.c ****             sign = 1u;
 352:Generated_Source\PSoC4/key_touch_Filter.c ****             ptrSensor->negBslnRstCnt[channel] = 0u;
 353:Generated_Source\PSoC4/key_touch_Filter.c ****         }
 354:Generated_Source\PSoC4/key_touch_Filter.c ****         else
 355:Generated_Source\PSoC4/key_touch_Filter.c ****         {
 356:Generated_Source\PSoC4/key_touch_Filter.c ****             difference = (uint32)ptrSensor->bsln[channel] - (uint32)ptrSensor->raw[channel];
 357:Generated_Source\PSoC4/key_touch_Filter.c ****             sign = 0u;
 358:Generated_Source\PSoC4/key_touch_Filter.c ****         }     
 359:Generated_Source\PSoC4/key_touch_Filter.c ****         
 360:Generated_Source\PSoC4/key_touch_Filter.c ****         /* Reset baseline if condition is met */ 
 361:Generated_Source\PSoC4/key_touch_Filter.c ****         if((sign == 0u) && (difference > (uint32) ptrWidgetRam->nNoiseTh))
 362:Generated_Source\PSoC4/key_touch_Filter.c ****         {
 363:Generated_Source\PSoC4/key_touch_Filter.c ****             if(ptrSensor->negBslnRstCnt[channel] >= ptrWidgetRam->lowBslnRst)
 364:Generated_Source\PSoC4/key_touch_Filter.c ****             {                
 365:Generated_Source\PSoC4/key_touch_Filter.c ****                 key_touch_FtInitializeBaselineChannel(ptrSensor, wdType, channel);             
 366:Generated_Source\PSoC4/key_touch_Filter.c ****             }
 367:Generated_Source\PSoC4/key_touch_Filter.c ****             else
 368:Generated_Source\PSoC4/key_touch_Filter.c ****             {
 369:Generated_Source\PSoC4/key_touch_Filter.c ****                 ptrSensor->negBslnRstCnt[channel]++;
 370:Generated_Source\PSoC4/key_touch_Filter.c ****             }
 371:Generated_Source\PSoC4/key_touch_Filter.c ****         }
 372:Generated_Source\PSoC4/key_touch_Filter.c ****         else
 373:Generated_Source\PSoC4/key_touch_Filter.c ****         {
 374:Generated_Source\PSoC4/key_touch_Filter.c ****             #if (!key_touch_SENSOR_AUTO_RESET_EN)
 375:Generated_Source\PSoC4/key_touch_Filter.c ****                 /* Update baseline only if signal is in range between noiseThreshold and negativeno
 376:Generated_Source\PSoC4/key_touch_Filter.c ****                 if ((difference <= (uint32)ptrWidgetRam->noiseTh) ||
 377:Generated_Source\PSoC4/key_touch_Filter.c ****                     ((difference < (uint32) ptrWidgetRam->nNoiseTh) && (sign == 0u)))
 378:Generated_Source\PSoC4/key_touch_Filter.c ****                 {
 379:Generated_Source\PSoC4/key_touch_Filter.c ****             #endif /* (key_touch_CSD_AUTO_RESET == key_touch_CSD_AUTO_RESET_DISABLE) */
 380:Generated_Source\PSoC4/key_touch_Filter.c ****             
 381:Generated_Source\PSoC4/key_touch_Filter.c ****             #if (key_touch_BASELINE_TYPE == key_touch_IIR_BASELINE)  
 382:Generated_Source\PSoC4/key_touch_Filter.c ****                 /* Calculate baseline value */
 383:Generated_Source\PSoC4/key_touch_Filter.c ****                 if ((key_touch_WD_TYPE_ENUM)wdType != key_touch_WD_PROXIMITY_E)
 384:Generated_Source\PSoC4/key_touch_Filter.c ****                 {
 385:Generated_Source\PSoC4/key_touch_Filter.c ****                     #if (key_touch_REGULAR_SENSOR_EN) 
 386:Generated_Source\PSoC4/key_touch_Filter.c ****                         #if (key_touch_REGULAR_IIR_BL_TYPE == key_touch_IIR_FILTER_PERFORMANCE)    
 387:Generated_Source\PSoC4/key_touch_Filter.c ****                             history = (uint32) ptrSensor->bsln[channel] << 8u; 
 388:Generated_Source\PSoC4/key_touch_Filter.c ****                             history |= ptrSensor->bslnExt[channel];
 389:Generated_Source\PSoC4/key_touch_Filter.c ****                         #else
 390:Generated_Source\PSoC4/key_touch_Filter.c ****                             history = ptrSensor->bsln[channel];                                    
 391:Generated_Source\PSoC4/key_touch_Filter.c ****                         #endif /* (key_touch_REGULAR_IIR_BL_TYPE == key_touch_IIR_FILTER_PERFORMANC
ARM GAS  C:\Users\Administrator\AppData\Local\Temp\ccrG5N5m.s 			page 10


 392:Generated_Source\PSoC4/key_touch_Filter.c ****                     
 393:Generated_Source\PSoC4/key_touch_Filter.c ****                         history =  key_touch_FtIIR1stOrder(
 394:Generated_Source\PSoC4/key_touch_Filter.c ****                                         (uint32)ptrSensor->raw[channel],
 395:Generated_Source\PSoC4/key_touch_Filter.c ****                                         history, 
 396:Generated_Source\PSoC4/key_touch_Filter.c ****                                         key_touch_REGULAR_IIR_BL_N, 
 397:Generated_Source\PSoC4/key_touch_Filter.c ****                                         key_touch_REGULAR_IIR_BL_SHIFT);
 398:Generated_Source\PSoC4/key_touch_Filter.c ****                                                    
 399:Generated_Source\PSoC4/key_touch_Filter.c ****                         #if (key_touch_REGULAR_IIR_BL_TYPE == key_touch_IIR_FILTER_PERFORMANCE)    
 400:Generated_Source\PSoC4/key_touch_Filter.c ****                             ptrSensor->bsln[channel] = LO16(history >> 8u);
 401:Generated_Source\PSoC4/key_touch_Filter.c ****                             ptrSensor->bslnExt[channel] = LO8(history);
 402:Generated_Source\PSoC4/key_touch_Filter.c ****                         #else
 403:Generated_Source\PSoC4/key_touch_Filter.c ****                             ptrSensor->bsln[channel] = LO16(history);
 404:Generated_Source\PSoC4/key_touch_Filter.c ****                         #endif /* (key_touch_REGULAR_IIR_BL_TYPE == key_touch_IIR_FILTER_PERFORMANC
 405:Generated_Source\PSoC4/key_touch_Filter.c ****                     #endif /* (key_touch_REGULAR_SENSOR_EN) */
 406:Generated_Source\PSoC4/key_touch_Filter.c ****                 }
 407:Generated_Source\PSoC4/key_touch_Filter.c ****                 else 
 408:Generated_Source\PSoC4/key_touch_Filter.c ****                 {
 409:Generated_Source\PSoC4/key_touch_Filter.c ****                     #if (key_touch_PROXIMITY_SENSOR_EN)     
 410:Generated_Source\PSoC4/key_touch_Filter.c ****                         #if (key_touch_PROX_IIR_BL_TYPE == key_touch_IIR_FILTER_PERFORMANCE)       
 411:Generated_Source\PSoC4/key_touch_Filter.c ****                             history = (uint32) ptrSensor->bsln[channel] << 8u; 
 412:Generated_Source\PSoC4/key_touch_Filter.c ****                             history |= ptrSensor->bslnExt[channel];
 413:Generated_Source\PSoC4/key_touch_Filter.c ****                         #else
 414:Generated_Source\PSoC4/key_touch_Filter.c ****                             history = (uint32) ptrSensor->bsln[channel];                           
 415:Generated_Source\PSoC4/key_touch_Filter.c ****                         #endif /* (key_touch_PROX_IIR_BL_TYPE == key_touch_IIR_FILTER_PERFORMANCE) 
 416:Generated_Source\PSoC4/key_touch_Filter.c ****                         
 417:Generated_Source\PSoC4/key_touch_Filter.c ****                         history = key_touch_FtIIR1stOrder((uint32)ptrSensor->raw[channel], history,
 418:Generated_Source\PSoC4/key_touch_Filter.c ****                         
 419:Generated_Source\PSoC4/key_touch_Filter.c ****                         #if (key_touch_PROX_IIR_BL_TYPE == key_touch_IIR_FILTER_PERFORMANCE)       
 420:Generated_Source\PSoC4/key_touch_Filter.c ****                             ptrSensor->bsln[channel] = LO16(history >> 8u);
 421:Generated_Source\PSoC4/key_touch_Filter.c ****                             ptrSensor->bslnExt[channel] = LO8(history);
 422:Generated_Source\PSoC4/key_touch_Filter.c ****                         #else
 423:Generated_Source\PSoC4/key_touch_Filter.c ****                             ptrSensor->bsln[channel] = LO16(history);
 424:Generated_Source\PSoC4/key_touch_Filter.c ****                         #endif /* (key_touch_PROX_IIR_BL_TYPE == key_touch_IIR_FILTER_PERFORMANCE) 
 425:Generated_Source\PSoC4/key_touch_Filter.c ****                     #endif /* (key_touch_PROX_SENSOR_EN)   */
 426:Generated_Source\PSoC4/key_touch_Filter.c ****                 }
 427:Generated_Source\PSoC4/key_touch_Filter.c ****             #else /* (key_touch_CSD_BASELINE_TYPE == key_touch_IIR_BASELINE)  */
 428:Generated_Source\PSoC4/key_touch_Filter.c ****                 
 429:Generated_Source\PSoC4/key_touch_Filter.c ****                 /******************************************************************
 430:Generated_Source\PSoC4/key_touch_Filter.c ****                 * This is the place where the bucket algorithm should be implemented.
 431:Generated_Source\PSoC4/key_touch_Filter.c ****                 * The bucket method will be implemented in future component version.
 432:Generated_Source\PSoC4/key_touch_Filter.c ****                 *******************************************************************/
 433:Generated_Source\PSoC4/key_touch_Filter.c ****                 
 434:Generated_Source\PSoC4/key_touch_Filter.c ****             #endif /* (key_touch_CSD_BASELINE_TYPE == key_touch_IIR_BASELINE)  */
 435:Generated_Source\PSoC4/key_touch_Filter.c ****                     
 436:Generated_Source\PSoC4/key_touch_Filter.c ****             #if (!key_touch_SENSOR_AUTO_RESET_EN)
 437:Generated_Source\PSoC4/key_touch_Filter.c ****                 }
 438:Generated_Source\PSoC4/key_touch_Filter.c ****             #endif /* (!key_touch_SENSOR_AUTO_RESET_EN) */
 439:Generated_Source\PSoC4/key_touch_Filter.c ****         }
 440:Generated_Source\PSoC4/key_touch_Filter.c ****                 
 441:Generated_Source\PSoC4/key_touch_Filter.c ****         #if (key_touch_ENABLE == key_touch_TST_BSLN_DUPLICATION_EN)
 442:Generated_Source\PSoC4/key_touch_Filter.c ****             /* Update baseline inversion of every channel in sensor */    
 443:Generated_Source\PSoC4/key_touch_Filter.c ****             ptrSensor->bslnInv[channel] = ~(ptrSensor->bsln[channel]);
 444:Generated_Source\PSoC4/key_touch_Filter.c ****             }
 445:Generated_Source\PSoC4/key_touch_Filter.c ****         #endif /* (key_touch_ENABLE == key_touch_TST_BSLN_DUPLICATION_EN) */
 446:Generated_Source\PSoC4/key_touch_Filter.c **** 
 447:Generated_Source\PSoC4/key_touch_Filter.c ****     }
 448:Generated_Source\PSoC4/key_touch_Filter.c ****     return result;    
ARM GAS  C:\Users\Administrator\AppData\Local\Temp\ccrG5N5m.s 			page 11


 449:Generated_Source\PSoC4/key_touch_Filter.c **** }
 450:Generated_Source\PSoC4/key_touch_Filter.c **** 
 451:Generated_Source\PSoC4/key_touch_Filter.c **** 
 452:Generated_Source\PSoC4/key_touch_Filter.c **** /*******************************************************************************
 453:Generated_Source\PSoC4/key_touch_Filter.c **** * Function Name: key_touch_InitializeAllBaselines
 454:Generated_Source\PSoC4/key_touch_Filter.c **** ****************************************************************************//**
 455:Generated_Source\PSoC4/key_touch_Filter.c **** *
 456:Generated_Source\PSoC4/key_touch_Filter.c **** * \brief    
 457:Generated_Source\PSoC4/key_touch_Filter.c **** *  Initializes (or re-initialize) the baseline of all sensors of all widgets.
 458:Generated_Source\PSoC4/key_touch_Filter.c **** *
 459:Generated_Source\PSoC4/key_touch_Filter.c **** * \details  
 460:Generated_Source\PSoC4/key_touch_Filter.c **** *  Initializes the baseline for all sensors of all widgets. Also, this function
 461:Generated_Source\PSoC4/key_touch_Filter.c **** *  can be used to re-initialize baselines. key_touch_Start() calls this 
 462:Generated_Source\PSoC4/key_touch_Filter.c **** *  API as part of key_touch operation initialization.
 463:Generated_Source\PSoC4/key_touch_Filter.c **** *
 464:Generated_Source\PSoC4/key_touch_Filter.c **** *******************************************************************************/
 465:Generated_Source\PSoC4/key_touch_Filter.c **** void key_touch_InitializeAllBaselines(void)
 466:Generated_Source\PSoC4/key_touch_Filter.c **** {
 467:Generated_Source\PSoC4/key_touch_Filter.c ****     uint32 widgetId;    
 468:Generated_Source\PSoC4/key_touch_Filter.c ****     
 469:Generated_Source\PSoC4/key_touch_Filter.c ****     for(widgetId = key_touch_TOTAL_WIDGETS; widgetId-- > 0u;)
 470:Generated_Source\PSoC4/key_touch_Filter.c ****     {
 471:Generated_Source\PSoC4/key_touch_Filter.c ****         key_touch_InitializeWidgetBaseline(widgetId); 
 472:Generated_Source\PSoC4/key_touch_Filter.c ****     }
 473:Generated_Source\PSoC4/key_touch_Filter.c **** }
 474:Generated_Source\PSoC4/key_touch_Filter.c **** 
 475:Generated_Source\PSoC4/key_touch_Filter.c **** 
 476:Generated_Source\PSoC4/key_touch_Filter.c **** /*******************************************************************************
 477:Generated_Source\PSoC4/key_touch_Filter.c **** * Function Name: key_touch_InitializeWidgetBaseline
 478:Generated_Source\PSoC4/key_touch_Filter.c **** ****************************************************************************//**
 479:Generated_Source\PSoC4/key_touch_Filter.c **** *
 480:Generated_Source\PSoC4/key_touch_Filter.c **** * \brief    
 481:Generated_Source\PSoC4/key_touch_Filter.c **** *  Initializes (or re-initialize) the baseline of all sensors in a widget 
 482:Generated_Source\PSoC4/key_touch_Filter.c **** *  specified by input parameter. 
 483:Generated_Source\PSoC4/key_touch_Filter.c **** *
 484:Generated_Source\PSoC4/key_touch_Filter.c **** * \details  
 485:Generated_Source\PSoC4/key_touch_Filter.c **** *  Initializes (or re-initializes) the baseline for all sensors of the 
 486:Generated_Source\PSoC4/key_touch_Filter.c **** *  specified widget.
 487:Generated_Source\PSoC4/key_touch_Filter.c **** *
 488:Generated_Source\PSoC4/key_touch_Filter.c **** * \param  widgetId 
 489:Generated_Source\PSoC4/key_touch_Filter.c **** *  Specify the ID number of a widget to initialize the baseline of all sensors
 490:Generated_Source\PSoC4/key_touch_Filter.c **** *  in the widget. 
 491:Generated_Source\PSoC4/key_touch_Filter.c **** *  A macro for the widget ID can be found in the 
 492:Generated_Source\PSoC4/key_touch_Filter.c **** *  key_touch Configuration header file defined as 
 493:Generated_Source\PSoC4/key_touch_Filter.c **** *  key_touch_<WidgetName>_WDGT_ID.
 494:Generated_Source\PSoC4/key_touch_Filter.c **** *
 495:Generated_Source\PSoC4/key_touch_Filter.c **** *******************************************************************************/
 496:Generated_Source\PSoC4/key_touch_Filter.c **** void key_touch_InitializeWidgetBaseline(uint32 widgetId)
 497:Generated_Source\PSoC4/key_touch_Filter.c **** {   
 498:Generated_Source\PSoC4/key_touch_Filter.c ****     uint32 sensorId;
 499:Generated_Source\PSoC4/key_touch_Filter.c ****     uint32 sensorsNumber;
 500:Generated_Source\PSoC4/key_touch_Filter.c ****   
 501:Generated_Source\PSoC4/key_touch_Filter.c ****     key_touch_FLASH_WD_STRUCT const *ptrWidget = &key_touch_dsFlash.wdgtArray[widgetId];
 502:Generated_Source\PSoC4/key_touch_Filter.c **** 
 503:Generated_Source\PSoC4/key_touch_Filter.c ****     /* Find total amount of sensors in specified widget */   
 504:Generated_Source\PSoC4/key_touch_Filter.c ****     sensorsNumber = key_touch_GET_SNS_CNT_BY_PTR(ptrWidget);    
 505:Generated_Source\PSoC4/key_touch_Filter.c ****     
ARM GAS  C:\Users\Administrator\AppData\Local\Temp\ccrG5N5m.s 			page 12


 506:Generated_Source\PSoC4/key_touch_Filter.c ****     for(sensorId = sensorsNumber; sensorId-- > 0u;)
 507:Generated_Source\PSoC4/key_touch_Filter.c ****     {
 508:Generated_Source\PSoC4/key_touch_Filter.c ****         key_touch_InitializeSensorBaseline(widgetId, sensorId);   
 509:Generated_Source\PSoC4/key_touch_Filter.c ****     }
 510:Generated_Source\PSoC4/key_touch_Filter.c **** }
 511:Generated_Source\PSoC4/key_touch_Filter.c **** 
 512:Generated_Source\PSoC4/key_touch_Filter.c **** 
 513:Generated_Source\PSoC4/key_touch_Filter.c **** /*******************************************************************************
 514:Generated_Source\PSoC4/key_touch_Filter.c **** * Function Name: key_touch_InitializeSensorBaseline
 515:Generated_Source\PSoC4/key_touch_Filter.c **** ****************************************************************************//**
 516:Generated_Source\PSoC4/key_touch_Filter.c **** *
 517:Generated_Source\PSoC4/key_touch_Filter.c **** * \brief
 518:Generated_Source\PSoC4/key_touch_Filter.c **** *  Initializes (or re-initialize) the baseline of a sensor in a widget specified
 519:Generated_Source\PSoC4/key_touch_Filter.c **** *  by input parameters.
 520:Generated_Source\PSoC4/key_touch_Filter.c **** *
 521:Generated_Source\PSoC4/key_touch_Filter.c **** * \details  
 522:Generated_Source\PSoC4/key_touch_Filter.c **** *  Initializes (or re-initializes) the baseline for a specified sensor within
 523:Generated_Source\PSoC4/key_touch_Filter.c **** *  a specified widget.
 524:Generated_Source\PSoC4/key_touch_Filter.c **** *
 525:Generated_Source\PSoC4/key_touch_Filter.c **** * \param    widgetId 
 526:Generated_Source\PSoC4/key_touch_Filter.c **** *  Specify the ID number of a widget to initialize the baseline of all sensors
 527:Generated_Source\PSoC4/key_touch_Filter.c **** *  in the widget.
 528:Generated_Source\PSoC4/key_touch_Filter.c **** *  A macro for the widget ID can be found in the 
 529:Generated_Source\PSoC4/key_touch_Filter.c **** *  key_touch Configuration header file defined as 
 530:Generated_Source\PSoC4/key_touch_Filter.c **** *  key_touch_<WidgetName>_WDGT_ID.
 531:Generated_Source\PSoC4/key_touch_Filter.c **** *  
 532:Generated_Source\PSoC4/key_touch_Filter.c **** * \param    sensorId 
 533:Generated_Source\PSoC4/key_touch_Filter.c **** *  Specify the ID number of the sensor within the widget to initialize its 
 534:Generated_Source\PSoC4/key_touch_Filter.c **** *  baseline.
 535:Generated_Source\PSoC4/key_touch_Filter.c **** *  A macro for the sensor ID within a specified widget can be found in the 
 536:Generated_Source\PSoC4/key_touch_Filter.c **** *  key_touch Configuration header file defined as 
 537:Generated_Source\PSoC4/key_touch_Filter.c **** *  key_touch_<WidgetName>_SNS<SensorNumber>_ID
 538:Generated_Source\PSoC4/key_touch_Filter.c **** *
 539:Generated_Source\PSoC4/key_touch_Filter.c **** *******************************************************************************/
 540:Generated_Source\PSoC4/key_touch_Filter.c **** void key_touch_InitializeSensorBaseline(uint32 widgetId, uint32 sensorId)
 541:Generated_Source\PSoC4/key_touch_Filter.c **** {      
 542:Generated_Source\PSoC4/key_touch_Filter.c ****     key_touch_RAM_SNS_STRUCT *ptrSensor = NULL;    
 543:Generated_Source\PSoC4/key_touch_Filter.c ****     key_touch_FLASH_WD_STRUCT const *ptrWidget = NULL;
 544:Generated_Source\PSoC4/key_touch_Filter.c ****     ptrWidget = &key_touch_dsFlash.wdgtArray[widgetId];
 545:Generated_Source\PSoC4/key_touch_Filter.c **** 
 546:Generated_Source\PSoC4/key_touch_Filter.c ****     /* Find pointer to specified sensor object */     
 547:Generated_Source\PSoC4/key_touch_Filter.c ****     ptrSensor = ptrWidget->ptr2SnsRam;
 548:Generated_Source\PSoC4/key_touch_Filter.c ****     ptrSensor = &ptrSensor[sensorId];
 549:Generated_Source\PSoC4/key_touch_Filter.c **** 
 550:Generated_Source\PSoC4/key_touch_Filter.c ****     key_touch_FtInitializeBaseline(ptrSensor, (uint32)ptrWidget->wdgtType);
 551:Generated_Source\PSoC4/key_touch_Filter.c **** }
 552:Generated_Source\PSoC4/key_touch_Filter.c **** 
 553:Generated_Source\PSoC4/key_touch_Filter.c **** 
 554:Generated_Source\PSoC4/key_touch_Filter.c **** /*******************************************************************************
 555:Generated_Source\PSoC4/key_touch_Filter.c **** * Function Name: key_touch_FtInitializeBaseline
 556:Generated_Source\PSoC4/key_touch_Filter.c **** ****************************************************************************//**
 557:Generated_Source\PSoC4/key_touch_Filter.c **** *
 558:Generated_Source\PSoC4/key_touch_Filter.c **** * \brief    Initializes the baseline history for a sensor indicated by an input
 559:Generated_Source\PSoC4/key_touch_Filter.c **** *           parameter.
 560:Generated_Source\PSoC4/key_touch_Filter.c **** *
 561:Generated_Source\PSoC4/key_touch_Filter.c **** * \details  Initializes the baseline history for a sensor indicated by an input
 562:Generated_Source\PSoC4/key_touch_Filter.c **** *           parameter.
ARM GAS  C:\Users\Administrator\AppData\Local\Temp\ccrG5N5m.s 			page 13


 563:Generated_Source\PSoC4/key_touch_Filter.c **** *
 564:Generated_Source\PSoC4/key_touch_Filter.c **** * \param    *ptrSensor The pointer to the sensor RAM object.
 565:Generated_Source\PSoC4/key_touch_Filter.c **** * \param    wdType     Specifies the type of a widget.
 566:Generated_Source\PSoC4/key_touch_Filter.c **** *
 567:Generated_Source\PSoC4/key_touch_Filter.c **** *******************************************************************************/
 568:Generated_Source\PSoC4/key_touch_Filter.c **** CY_INLINE void key_touch_FtInitializeBaseline(key_touch_RAM_SNS_STRUCT *ptrSensor, uint32 wdType) 
 569:Generated_Source\PSoC4/key_touch_Filter.c **** {
 570:Generated_Source\PSoC4/key_touch_Filter.c ****     uint32 channel;
 571:Generated_Source\PSoC4/key_touch_Filter.c **** 
 572:Generated_Source\PSoC4/key_touch_Filter.c ****     /* Apply baseline initialization to every channel in sensor */    
 573:Generated_Source\PSoC4/key_touch_Filter.c ****     for(channel = key_touch_NUM_SCAN_FREQS; channel-- > 0u;) 
 574:Generated_Source\PSoC4/key_touch_Filter.c ****     {
 575:Generated_Source\PSoC4/key_touch_Filter.c ****         key_touch_FtInitializeBaselineChannel(ptrSensor, wdType, channel); 
 576:Generated_Source\PSoC4/key_touch_Filter.c ****     }
 577:Generated_Source\PSoC4/key_touch_Filter.c **** }
 578:Generated_Source\PSoC4/key_touch_Filter.c **** 
 579:Generated_Source\PSoC4/key_touch_Filter.c **** 
 580:Generated_Source\PSoC4/key_touch_Filter.c **** /*******************************************************************************
 581:Generated_Source\PSoC4/key_touch_Filter.c **** * Function Name: key_touch_FtInitializeBaselineChannel
 582:Generated_Source\PSoC4/key_touch_Filter.c **** ****************************************************************************//**
 583:Generated_Source\PSoC4/key_touch_Filter.c **** *
 584:Generated_Source\PSoC4/key_touch_Filter.c **** * \brief    Initializes the baseline history for a sensor indicated by an input
 585:Generated_Source\PSoC4/key_touch_Filter.c **** *           parameter.
 586:Generated_Source\PSoC4/key_touch_Filter.c **** *
 587:Generated_Source\PSoC4/key_touch_Filter.c **** * \details  Initializes the baseline history for a sensor indicated by an input
 588:Generated_Source\PSoC4/key_touch_Filter.c **** *           parameter.
 589:Generated_Source\PSoC4/key_touch_Filter.c **** *
 590:Generated_Source\PSoC4/key_touch_Filter.c **** * \param    *ptrSensor The pointer to the sensor RAM object.
 591:Generated_Source\PSoC4/key_touch_Filter.c **** * \param    wdType     Specifies the type of a widget.
 592:Generated_Source\PSoC4/key_touch_Filter.c **** * \param    channel    Specifies the number of the channel to be initialized.
 593:Generated_Source\PSoC4/key_touch_Filter.c **** *
 594:Generated_Source\PSoC4/key_touch_Filter.c **** *******************************************************************************/
 595:Generated_Source\PSoC4/key_touch_Filter.c **** void key_touch_FtInitializeBaselineChannel(key_touch_RAM_SNS_STRUCT *ptrSensor, uint32 wdType, uint
 596:Generated_Source\PSoC4/key_touch_Filter.c **** {
 119              		.loc 1 596 0
 120              		.cfi_startproc
 121              	.LVL17:
 597:Generated_Source\PSoC4/key_touch_Filter.c ****     #if (key_touch_BASELINE_TYPE == key_touch_IIR_BASELINE)  
 598:Generated_Source\PSoC4/key_touch_Filter.c ****         if ((key_touch_WD_TYPE_ENUM)wdType != key_touch_WD_PROXIMITY_E)
 122              		.loc 1 598 0
 123 0000 C9B2     		uxtb	r1, r1
 124              	.LVL18:
 125 0002 0629     		cmp	r1, #6
 126 0004 02D0     		beq	.L9
 599:Generated_Source\PSoC4/key_touch_Filter.c ****         {
 600:Generated_Source\PSoC4/key_touch_Filter.c ****             #if (key_touch_REGULAR_SENSOR_EN)
 601:Generated_Source\PSoC4/key_touch_Filter.c ****                 #if (key_touch_REGULAR_IIR_BL_TYPE == key_touch_IIR_FILTER_PERFORMANCE)            
 602:Generated_Source\PSoC4/key_touch_Filter.c ****                     ptrSensor->bslnExt[channel] = 0u;                
 127              		.loc 1 602 0
 128 0006 8318     		add	r3, r0, r2
 129 0008 0021     		mov	r1, #0
 130 000a 1971     		strb	r1, [r3, #4]
 131              	.L9:
 603:Generated_Source\PSoC4/key_touch_Filter.c ****                 #endif /* (key_touch_REGULAR_IIR_BL_TYPE == key_touch_IIR_FILTER_PERFORMANCE) */
 604:Generated_Source\PSoC4/key_touch_Filter.c ****             #endif /* (key_touch_REGULAR_SENSOR_EN) */
 605:Generated_Source\PSoC4/key_touch_Filter.c ****         }
 606:Generated_Source\PSoC4/key_touch_Filter.c ****         else
ARM GAS  C:\Users\Administrator\AppData\Local\Temp\ccrG5N5m.s 			page 14


 607:Generated_Source\PSoC4/key_touch_Filter.c ****         {
 608:Generated_Source\PSoC4/key_touch_Filter.c ****             #if (key_touch_PROXIMITY_SENSOR_EN)     
 609:Generated_Source\PSoC4/key_touch_Filter.c ****                 #if (key_touch_PROX_IIR_BL_TYPE == key_touch_IIR_FILTER_PERFORMANCE)               
 610:Generated_Source\PSoC4/key_touch_Filter.c ****                     ptrSensor->bslnExt[channel] = 0u;               
 611:Generated_Source\PSoC4/key_touch_Filter.c ****                 #endif /* (key_touch_PROX_IIR_BL_TYPE == key_touch_IIR_FILTER_PERFORMANCE) */
 612:Generated_Source\PSoC4/key_touch_Filter.c ****             #endif /* (key_touch_PROX_SENSOR_EN) */
 613:Generated_Source\PSoC4/key_touch_Filter.c ****         }
 614:Generated_Source\PSoC4/key_touch_Filter.c ****     #else
 615:Generated_Source\PSoC4/key_touch_Filter.c ****         /* key_touch_BASELINE_TYPE == key_touch_BUCKET_BASELINE */        
 616:Generated_Source\PSoC4/key_touch_Filter.c ****         ptrSensor->bslnExt[channel] = 0u;        
 617:Generated_Source\PSoC4/key_touch_Filter.c ****     #endif /* (key_touch_BASELINE_TYPE == key_touch_IIR_BASELINE) */      
 618:Generated_Source\PSoC4/key_touch_Filter.c ****     
 619:Generated_Source\PSoC4/key_touch_Filter.c ****     ptrSensor->bsln[channel] = ptrSensor->raw[channel]; 
 132              		.loc 1 619 0
 133 000c 5300     		lsl	r3, r2, #1
 134 000e 195A     		ldrh	r1, [r3, r0]
 135 0010 C318     		add	r3, r0, r3
 136 0012 5980     		strh	r1, [r3, #2]
 620:Generated_Source\PSoC4/key_touch_Filter.c ****     
 621:Generated_Source\PSoC4/key_touch_Filter.c ****     #if (key_touch_ENABLE == key_touch_TST_BSLN_DUPLICATION_EN)
 622:Generated_Source\PSoC4/key_touch_Filter.c ****     /* Update baseline inversion of the channel in sensor */    
 623:Generated_Source\PSoC4/key_touch_Filter.c ****         ptrSensor->bslnInv[channel] = ~(ptrSensor->bsln[channel]);
 624:Generated_Source\PSoC4/key_touch_Filter.c ****     #endif /* (key_touch_ENABLE == key_touch_TST_BSLN_DUPLICATION_EN) */
 625:Generated_Source\PSoC4/key_touch_Filter.c **** 
 626:Generated_Source\PSoC4/key_touch_Filter.c ****     ptrSensor->negBslnRstCnt[channel] = 0u;
 137              		.loc 1 626 0
 138 0014 8218     		add	r2, r0, r2
 139              	.LVL19:
 140 0016 0023     		mov	r3, #0
 141 0018 1372     		strb	r3, [r2, #8]
 627:Generated_Source\PSoC4/key_touch_Filter.c **** }
 142              		.loc 1 627 0
 143              		@ sp needed
 144 001a 7047     		bx	lr
 145              		.cfi_endproc
 146              	.LFE10:
 147              		.size	key_touch_FtInitializeBaselineChannel, .-key_touch_FtInitializeBaselineChannel
 148              		.section	.text.key_touch_FtInitializeBaseline,"ax",%progbits
 149              		.align	2
 150              		.global	key_touch_FtInitializeBaseline
 151              		.code	16
 152              		.thumb_func
 153              		.type	key_touch_FtInitializeBaseline, %function
 154              	key_touch_FtInitializeBaseline:
 155              	.LFB9:
 569:Generated_Source\PSoC4/key_touch_Filter.c ****     uint32 channel;
 156              		.loc 1 569 0
 157              		.cfi_startproc
 158              	.LVL20:
 159 0000 70B5     		push	{r4, r5, r6, lr}
 160              		.cfi_def_cfa_offset 16
 161              		.cfi_offset 4, -16
 162              		.cfi_offset 5, -12
 163              		.cfi_offset 6, -8
 164              		.cfi_offset 14, -4
 165 0002 061C     		mov	r6, r0
 166 0004 0D1C     		mov	r5, r1
ARM GAS  C:\Users\Administrator\AppData\Local\Temp\ccrG5N5m.s 			page 15


 167              	.LVL21:
 573:Generated_Source\PSoC4/key_touch_Filter.c ****     {
 168              		.loc 1 573 0
 169 0006 0123     		mov	r3, #1
 170 0008 05E0     		b	.L11
 171              	.LVL22:
 172              	.L12:
 575:Generated_Source\PSoC4/key_touch_Filter.c ****     }
 173              		.loc 1 575 0
 174 000a 301C     		mov	r0, r6
 175 000c 291C     		mov	r1, r5
 176 000e 221C     		mov	r2, r4
 177 0010 FFF7FEFF 		bl	key_touch_FtInitializeBaselineChannel
 178              	.LVL23:
 573:Generated_Source\PSoC4/key_touch_Filter.c ****     {
 179              		.loc 1 573 0
 180 0014 231C     		mov	r3, r4
 181              	.LVL24:
 182              	.L11:
 573:Generated_Source\PSoC4/key_touch_Filter.c ****     {
 183              		.loc 1 573 0 is_stmt 0 discriminator 1
 184 0016 5C1E     		sub	r4, r3, #1
 185              	.LVL25:
 186 0018 002B     		cmp	r3, #0
 187 001a F6D1     		bne	.L12
 577:Generated_Source\PSoC4/key_touch_Filter.c **** 
 188              		.loc 1 577 0 is_stmt 1
 189              		@ sp needed
 190              	.LVL26:
 191              	.LVL27:
 192              	.LVL28:
 193 001c 70BD     		pop	{r4, r5, r6, pc}
 194              		.cfi_endproc
 195              	.LFE9:
 196              		.size	key_touch_FtInitializeBaseline, .-key_touch_FtInitializeBaseline
 197 001e C046     		.section	.text.key_touch_InitializeSensorBaseline,"ax",%progbits
 198              		.align	2
 199              		.global	key_touch_InitializeSensorBaseline
 200              		.code	16
 201              		.thumb_func
 202              		.type	key_touch_InitializeSensorBaseline, %function
 203              	key_touch_InitializeSensorBaseline:
 204              	.LFB8:
 541:Generated_Source\PSoC4/key_touch_Filter.c ****     key_touch_RAM_SNS_STRUCT *ptrSensor = NULL;    
 205              		.loc 1 541 0
 206              		.cfi_startproc
 207              	.LVL29:
 208 0000 70B5     		push	{r4, r5, r6, lr}
 209              		.cfi_def_cfa_offset 16
 210              		.cfi_offset 4, -16
 211              		.cfi_offset 5, -12
 212              		.cfi_offset 6, -8
 213              		.cfi_offset 14, -4
 214              	.LVL30:
 547:Generated_Source\PSoC4/key_touch_Filter.c ****     ptrSensor = &ptrSensor[sensorId];
 215              		.loc 1 547 0
 216 0002 4001     		lsl	r0, r0, #5
ARM GAS  C:\Users\Administrator\AppData\Local\Temp\ccrG5N5m.s 			page 16


 217              	.LVL31:
 218 0004 094B     		ldr	r3, .L16
 219 0006 1818     		add	r0, r3, r0
 220              	.LVL32:
 548:Generated_Source\PSoC4/key_touch_Filter.c **** 
 221              		.loc 1 548 0
 222 0008 8B00     		lsl	r3, r1, #2
 223 000a 5918     		add	r1, r3, r1
 224              	.LVL33:
 225 000c 4900     		lsl	r1, r1, #1
 226 000e 8368     		ldr	r3, [r0, #8]
 227 0010 5C18     		add	r4, r3, r1
 228              	.LVL34:
 550:Generated_Source\PSoC4/key_touch_Filter.c **** }
 229              		.loc 1 550 0
 230 0012 067E     		ldrb	r6, [r0, #24]
 231              	.LVL35:
 232              	.LBB4:
 233              	.LBB5:
 573:Generated_Source\PSoC4/key_touch_Filter.c ****     {
 234              		.loc 1 573 0
 235 0014 0123     		mov	r3, #1
 236 0016 05E0     		b	.L14
 237              	.LVL36:
 238              	.L15:
 575:Generated_Source\PSoC4/key_touch_Filter.c ****     }
 239              		.loc 1 575 0
 240 0018 201C     		mov	r0, r4
 241 001a 311C     		mov	r1, r6
 242 001c 2A1C     		mov	r2, r5
 243 001e FFF7FEFF 		bl	key_touch_FtInitializeBaselineChannel
 244              	.LVL37:
 573:Generated_Source\PSoC4/key_touch_Filter.c ****     {
 245              		.loc 1 573 0
 246 0022 2B1C     		mov	r3, r5
 247              	.LVL38:
 248              	.L14:
 249 0024 5D1E     		sub	r5, r3, #1
 250              	.LVL39:
 251 0026 002B     		cmp	r3, #0
 252 0028 F6D1     		bne	.L15
 253              	.LBE5:
 254              	.LBE4:
 551:Generated_Source\PSoC4/key_touch_Filter.c **** 
 255              		.loc 1 551 0
 256              		@ sp needed
 257              	.LVL40:
 258              	.LVL41:
 259              	.LVL42:
 260 002a 70BD     		pop	{r4, r5, r6, pc}
 261              	.L17:
 262              		.align	2
 263              	.L16:
 264 002c 00000000 		.word	key_touch_dsFlash
 265              		.cfi_endproc
 266              	.LFE8:
 267              		.size	key_touch_InitializeSensorBaseline, .-key_touch_InitializeSensorBaseline
ARM GAS  C:\Users\Administrator\AppData\Local\Temp\ccrG5N5m.s 			page 17


 268              		.section	.text.key_touch_InitializeWidgetBaseline,"ax",%progbits
 269              		.align	2
 270              		.global	key_touch_InitializeWidgetBaseline
 271              		.code	16
 272              		.thumb_func
 273              		.type	key_touch_InitializeWidgetBaseline, %function
 274              	key_touch_InitializeWidgetBaseline:
 275              	.LFB7:
 497:Generated_Source\PSoC4/key_touch_Filter.c ****     uint32 sensorId;
 276              		.loc 1 497 0
 277              		.cfi_startproc
 278              	.LVL43:
 279 0000 38B5     		push	{r3, r4, r5, lr}
 280              		.cfi_def_cfa_offset 16
 281              		.cfi_offset 3, -16
 282              		.cfi_offset 4, -12
 283              		.cfi_offset 5, -8
 284              		.cfi_offset 14, -4
 285 0002 051C     		mov	r5, r0
 286              	.LVL44:
 504:Generated_Source\PSoC4/key_touch_Filter.c ****     
 287              		.loc 1 504 0
 288 0004 4301     		lsl	r3, r0, #5
 289 0006 064A     		ldr	r2, .L21
 290 0008 D318     		add	r3, r2, r3
 291              	.LVL45:
 292 000a DB8A     		ldrh	r3, [r3, #22]
 293              	.LVL46:
 506:Generated_Source\PSoC4/key_touch_Filter.c ****     {
 294              		.loc 1 506 0
 295 000c 04E0     		b	.L19
 296              	.LVL47:
 297              	.L20:
 508:Generated_Source\PSoC4/key_touch_Filter.c ****     }
 298              		.loc 1 508 0
 299 000e 281C     		mov	r0, r5
 300 0010 211C     		mov	r1, r4
 301 0012 FFF7FEFF 		bl	key_touch_InitializeSensorBaseline
 302              	.LVL48:
 506:Generated_Source\PSoC4/key_touch_Filter.c ****     {
 303              		.loc 1 506 0
 304 0016 231C     		mov	r3, r4
 305              	.LVL49:
 306              	.L19:
 506:Generated_Source\PSoC4/key_touch_Filter.c ****     {
 307              		.loc 1 506 0 is_stmt 0 discriminator 1
 308 0018 5C1E     		sub	r4, r3, #1
 309              	.LVL50:
 310 001a 002B     		cmp	r3, #0
 311 001c F7D1     		bne	.L20
 510:Generated_Source\PSoC4/key_touch_Filter.c **** 
 312              		.loc 1 510 0 is_stmt 1
 313              		@ sp needed
 314              	.LVL51:
 315              	.LVL52:
 316 001e 38BD     		pop	{r3, r4, r5, pc}
 317              	.L22:
ARM GAS  C:\Users\Administrator\AppData\Local\Temp\ccrG5N5m.s 			page 18


 318              		.align	2
 319              	.L21:
 320 0020 00000000 		.word	key_touch_dsFlash
 321              		.cfi_endproc
 322              	.LFE7:
 323              		.size	key_touch_InitializeWidgetBaseline, .-key_touch_InitializeWidgetBaseline
 324              		.section	.text.key_touch_InitializeAllBaselines,"ax",%progbits
 325              		.align	2
 326              		.global	key_touch_InitializeAllBaselines
 327              		.code	16
 328              		.thumb_func
 329              		.type	key_touch_InitializeAllBaselines, %function
 330              	key_touch_InitializeAllBaselines:
 331              	.LFB6:
 466:Generated_Source\PSoC4/key_touch_Filter.c ****     uint32 widgetId;    
 332              		.loc 1 466 0
 333              		.cfi_startproc
 334 0000 10B5     		push	{r4, lr}
 335              		.cfi_def_cfa_offset 8
 336              		.cfi_offset 4, -8
 337              		.cfi_offset 14, -4
 338              	.LVL53:
 469:Generated_Source\PSoC4/key_touch_Filter.c ****     {
 339              		.loc 1 469 0
 340 0002 0C23     		mov	r3, #12
 341 0004 03E0     		b	.L24
 342              	.LVL54:
 343              	.L25:
 471:Generated_Source\PSoC4/key_touch_Filter.c ****     }
 344              		.loc 1 471 0
 345 0006 201C     		mov	r0, r4
 346 0008 FFF7FEFF 		bl	key_touch_InitializeWidgetBaseline
 347              	.LVL55:
 469:Generated_Source\PSoC4/key_touch_Filter.c ****     {
 348              		.loc 1 469 0
 349 000c 231C     		mov	r3, r4
 350              	.LVL56:
 351              	.L24:
 469:Generated_Source\PSoC4/key_touch_Filter.c ****     {
 352              		.loc 1 469 0 is_stmt 0 discriminator 1
 353 000e 5C1E     		sub	r4, r3, #1
 354              	.LVL57:
 355 0010 002B     		cmp	r3, #0
 356 0012 F8D1     		bne	.L25
 473:Generated_Source\PSoC4/key_touch_Filter.c **** 
 357              		.loc 1 473 0 is_stmt 1
 358              		@ sp needed
 359              	.LVL58:
 360 0014 10BD     		pop	{r4, pc}
 361              		.cfi_endproc
 362              	.LFE6:
 363              		.size	key_touch_InitializeAllBaselines, .-key_touch_InitializeAllBaselines
 364 0016 C046     		.section	.text.key_touch_RunNoiseEnvelope,"ax",%progbits
 365              		.align	2
 366              		.global	key_touch_RunNoiseEnvelope
 367              		.code	16
 368              		.thumb_func
ARM GAS  C:\Users\Administrator\AppData\Local\Temp\ccrG5N5m.s 			page 19


 369              		.type	key_touch_RunNoiseEnvelope, %function
 370              	key_touch_RunNoiseEnvelope:
 371              	.LFB11:
 628:Generated_Source\PSoC4/key_touch_Filter.c **** 
 629:Generated_Source\PSoC4/key_touch_Filter.c **** 
 630:Generated_Source\PSoC4/key_touch_Filter.c **** #if (key_touch_REGULAR_RC_IIR_FILTER_EN || key_touch_PROX_RC_IIR_FILTER_EN)
 631:Generated_Source\PSoC4/key_touch_Filter.c **** 
 632:Generated_Source\PSoC4/key_touch_Filter.c **** /*******************************************************************************
 633:Generated_Source\PSoC4/key_touch_Filter.c **** * Function Name: key_touch_InitializeIIR
 634:Generated_Source\PSoC4/key_touch_Filter.c **** ****************************************************************************//**
 635:Generated_Source\PSoC4/key_touch_Filter.c **** *
 636:Generated_Source\PSoC4/key_touch_Filter.c **** * \brief    Initialize the IIR filter history.
 637:Generated_Source\PSoC4/key_touch_Filter.c **** *
 638:Generated_Source\PSoC4/key_touch_Filter.c **** * \details  Initialize the IIR filter history.
 639:Generated_Source\PSoC4/key_touch_Filter.c **** *
 640:Generated_Source\PSoC4/key_touch_Filter.c **** * \param    widgetId Specifies the ID number of the widget.
 641:Generated_Source\PSoC4/key_touch_Filter.c **** * \param    sensorId Specifies the ID number of the sensor in the widget.
 642:Generated_Source\PSoC4/key_touch_Filter.c **** *
 643:Generated_Source\PSoC4/key_touch_Filter.c **** *******************************************************************************/
 644:Generated_Source\PSoC4/key_touch_Filter.c **** void key_touch_InitializeIIR(uint32 widgetId, uint32 sensorId)
 645:Generated_Source\PSoC4/key_touch_Filter.c **** {   
 646:Generated_Source\PSoC4/key_touch_Filter.c ****     key_touch_FLASH_WD_STRUCT const *ptrWidget = &key_touch_dsFlash.wdgtArray[widgetId];      
 647:Generated_Source\PSoC4/key_touch_Filter.c ****     key_touch_RAM_SNS_STRUCT *ptrSensor = NULL;    
 648:Generated_Source\PSoC4/key_touch_Filter.c ****     key_touch_PTR_FILTER_VARIANT ptrFilterHistObj; 
 649:Generated_Source\PSoC4/key_touch_Filter.c ****               
 650:Generated_Source\PSoC4/key_touch_Filter.c ****     /* Find pointer to specified sensor object */     
 651:Generated_Source\PSoC4/key_touch_Filter.c ****     ptrSensor = ptrWidget->ptr2SnsRam;
 652:Generated_Source\PSoC4/key_touch_Filter.c ****     ptrSensor = &ptrSensor[sensorId];
 653:Generated_Source\PSoC4/key_touch_Filter.c ****         
 654:Generated_Source\PSoC4/key_touch_Filter.c ****     /* Find pointer to specified filter sensor object */     
 655:Generated_Source\PSoC4/key_touch_Filter.c ****     ptrFilterHistObj.ptr = ptrWidget->ptr2FltrHistory;
 656:Generated_Source\PSoC4/key_touch_Filter.c ****     
 657:Generated_Source\PSoC4/key_touch_Filter.c ****     if ((key_touch_WD_TYPE_ENUM)ptrWidget->wdgtType != key_touch_WD_PROXIMITY_E)
 658:Generated_Source\PSoC4/key_touch_Filter.c ****     {
 659:Generated_Source\PSoC4/key_touch_Filter.c ****         #if (key_touch_REGULAR_SENSOR_EN)
 660:Generated_Source\PSoC4/key_touch_Filter.c ****             ptrFilterHistObj.ptrRegular = &ptrFilterHistObj.ptrRegular[sensorId];
 661:Generated_Source\PSoC4/key_touch_Filter.c ****         #endif /* (key_touch_REGULAR_SENSOR_EN) */
 662:Generated_Source\PSoC4/key_touch_Filter.c ****     }
 663:Generated_Source\PSoC4/key_touch_Filter.c ****     else
 664:Generated_Source\PSoC4/key_touch_Filter.c ****     {
 665:Generated_Source\PSoC4/key_touch_Filter.c ****         #if (key_touch_PROXIMITY_SENSOR_EN)
 666:Generated_Source\PSoC4/key_touch_Filter.c ****             ptrFilterHistObj.ptrProx = &ptrFilterHistObj.ptrProx[sensorId];
 667:Generated_Source\PSoC4/key_touch_Filter.c ****         #endif /* (key_touch_PROXIMITY_SENSOR_EN) */
 668:Generated_Source\PSoC4/key_touch_Filter.c ****     }    
 669:Generated_Source\PSoC4/key_touch_Filter.c ****     
 670:Generated_Source\PSoC4/key_touch_Filter.c ****     key_touch_InitializeIIRInternal(ptrFilterHistObj, ptrSensor, (uint32)ptrWidget->wdgtType);
 671:Generated_Source\PSoC4/key_touch_Filter.c **** }
 672:Generated_Source\PSoC4/key_touch_Filter.c **** 
 673:Generated_Source\PSoC4/key_touch_Filter.c **** 
 674:Generated_Source\PSoC4/key_touch_Filter.c **** /*******************************************************************************
 675:Generated_Source\PSoC4/key_touch_Filter.c **** * Function Name: key_touch_RunIIR
 676:Generated_Source\PSoC4/key_touch_Filter.c **** ****************************************************************************//**
 677:Generated_Source\PSoC4/key_touch_Filter.c **** *
 678:Generated_Source\PSoC4/key_touch_Filter.c **** * \brief    Executes the IIR filter algorithm on a sensor indicated by an input
 679:Generated_Source\PSoC4/key_touch_Filter.c **** *           parameter. 
 680:Generated_Source\PSoC4/key_touch_Filter.c **** *
 681:Generated_Source\PSoC4/key_touch_Filter.c **** * \details  Executes the IIR filter algorithm on a sensor indicated by an input
ARM GAS  C:\Users\Administrator\AppData\Local\Temp\ccrG5N5m.s 			page 20


 682:Generated_Source\PSoC4/key_touch_Filter.c **** *           parameter. 
 683:Generated_Source\PSoC4/key_touch_Filter.c **** *
 684:Generated_Source\PSoC4/key_touch_Filter.c **** * \param    widgetId Specifies the ID number of the widget.
 685:Generated_Source\PSoC4/key_touch_Filter.c **** * \param    sensorId Specifies the ID number of the sensor in the widget.
 686:Generated_Source\PSoC4/key_touch_Filter.c **** *
 687:Generated_Source\PSoC4/key_touch_Filter.c **** *******************************************************************************/
 688:Generated_Source\PSoC4/key_touch_Filter.c **** void key_touch_RunIIR(uint32 widgetId, uint32 sensorId)
 689:Generated_Source\PSoC4/key_touch_Filter.c **** {
 690:Generated_Source\PSoC4/key_touch_Filter.c ****     key_touch_FLASH_WD_STRUCT const *ptrWidget = &key_touch_dsFlash.wdgtArray[widgetId];      
 691:Generated_Source\PSoC4/key_touch_Filter.c ****     key_touch_RAM_SNS_STRUCT *ptrSensor = NULL;    
 692:Generated_Source\PSoC4/key_touch_Filter.c ****     key_touch_PTR_FILTER_VARIANT ptrFilterHistObj; 
 693:Generated_Source\PSoC4/key_touch_Filter.c ****               
 694:Generated_Source\PSoC4/key_touch_Filter.c ****     /* Find pointer to specified sensor object */     
 695:Generated_Source\PSoC4/key_touch_Filter.c ****     ptrSensor = ptrWidget->ptr2SnsRam;
 696:Generated_Source\PSoC4/key_touch_Filter.c ****     ptrSensor = &ptrSensor[sensorId];
 697:Generated_Source\PSoC4/key_touch_Filter.c ****         
 698:Generated_Source\PSoC4/key_touch_Filter.c ****     /* Find pointer to specified filter sensor object */     
 699:Generated_Source\PSoC4/key_touch_Filter.c ****     ptrFilterHistObj.ptr = ptrWidget->ptr2FltrHistory;
 700:Generated_Source\PSoC4/key_touch_Filter.c ****     
 701:Generated_Source\PSoC4/key_touch_Filter.c ****     if ((key_touch_WD_TYPE_ENUM)ptrWidget->wdgtType != key_touch_WD_PROXIMITY_E)
 702:Generated_Source\PSoC4/key_touch_Filter.c ****     {
 703:Generated_Source\PSoC4/key_touch_Filter.c ****         #if (key_touch_REGULAR_SENSOR_EN)
 704:Generated_Source\PSoC4/key_touch_Filter.c ****             ptrFilterHistObj.ptrRegular = &ptrFilterHistObj.ptrRegular[sensorId];
 705:Generated_Source\PSoC4/key_touch_Filter.c ****         #endif /* (key_touch_REGULAR_SENSOR_EN) */
 706:Generated_Source\PSoC4/key_touch_Filter.c ****     }
 707:Generated_Source\PSoC4/key_touch_Filter.c ****     else
 708:Generated_Source\PSoC4/key_touch_Filter.c ****     {
 709:Generated_Source\PSoC4/key_touch_Filter.c ****         #if (key_touch_PROXIMITY_SENSOR_EN)
 710:Generated_Source\PSoC4/key_touch_Filter.c ****             ptrFilterHistObj.ptrProx = &ptrFilterHistObj.ptrProx[sensorId];
 711:Generated_Source\PSoC4/key_touch_Filter.c ****         #endif /* (key_touch_PROXIMITY_SENSOR_EN) */
 712:Generated_Source\PSoC4/key_touch_Filter.c ****     }    
 713:Generated_Source\PSoC4/key_touch_Filter.c ****     
 714:Generated_Source\PSoC4/key_touch_Filter.c ****     key_touch_RunIIRInternal(ptrFilterHistObj, ptrSensor, (uint32)ptrWidget->wdgtType);
 715:Generated_Source\PSoC4/key_touch_Filter.c **** }
 716:Generated_Source\PSoC4/key_touch_Filter.c ****     
 717:Generated_Source\PSoC4/key_touch_Filter.c **** /*******************************************************************************
 718:Generated_Source\PSoC4/key_touch_Filter.c **** * Function Name: key_touch_InitializeIIRInternal
 719:Generated_Source\PSoC4/key_touch_Filter.c **** ****************************************************************************//**
 720:Generated_Source\PSoC4/key_touch_Filter.c **** *
 721:Generated_Source\PSoC4/key_touch_Filter.c **** * \brief    Initializes the IIR filter history.
 722:Generated_Source\PSoC4/key_touch_Filter.c **** *
 723:Generated_Source\PSoC4/key_touch_Filter.c **** * \details  Initializes the IIR filter history.
 724:Generated_Source\PSoC4/key_touch_Filter.c **** *
 725:Generated_Source\PSoC4/key_touch_Filter.c **** * \param    ptrFilterHistObj The pointer to the filter RAM object of the sensor.
 726:Generated_Source\PSoC4/key_touch_Filter.c **** * \param    ptrSensorObj     The pointer to the sensor RAM object of the sensor.
 727:Generated_Source\PSoC4/key_touch_Filter.c **** * \param    wdType           Specifies the type of a widget.                                  
 728:Generated_Source\PSoC4/key_touch_Filter.c **** *
 729:Generated_Source\PSoC4/key_touch_Filter.c **** *******************************************************************************/
 730:Generated_Source\PSoC4/key_touch_Filter.c **** void key_touch_InitializeIIRInternal(key_touch_PTR_FILTER_VARIANT ptrFilterHistObj,
 731:Generated_Source\PSoC4/key_touch_Filter.c ****                                             key_touch_RAM_SNS_STRUCT *ptrSensorObj, uint32 wdType)
 732:Generated_Source\PSoC4/key_touch_Filter.c **** {
 733:Generated_Source\PSoC4/key_touch_Filter.c ****     uint32 channel;
 734:Generated_Source\PSoC4/key_touch_Filter.c **** 
 735:Generated_Source\PSoC4/key_touch_Filter.c ****     for(channel = key_touch_NUM_SCAN_FREQS; channel-- > 0u;)
 736:Generated_Source\PSoC4/key_touch_Filter.c ****     {
 737:Generated_Source\PSoC4/key_touch_Filter.c ****         if ((key_touch_WD_TYPE_ENUM)wdType != key_touch_WD_PROXIMITY_E)
 738:Generated_Source\PSoC4/key_touch_Filter.c ****         {
ARM GAS  C:\Users\Administrator\AppData\Local\Temp\ccrG5N5m.s 			page 21


 739:Generated_Source\PSoC4/key_touch_Filter.c ****             #if (key_touch_REGULAR_SENSOR_EN && key_touch_REGULAR_RC_IIR_FILTER_EN)
 740:Generated_Source\PSoC4/key_touch_Filter.c ****                 #if (key_touch_REGULAR_IIR_RC_TYPE == key_touch_IIR_FILTER_PERFORMANCE)
 741:Generated_Source\PSoC4/key_touch_Filter.c ****                     ptrFilterHistObj.ptrRegular->regularChannel[channel].iirHistory = ptrSensorObj-
 742:Generated_Source\PSoC4/key_touch_Filter.c ****                     ptrFilterHistObj.ptrRegular->regularChannel[channel].iirHistoryLow = 0u;
 743:Generated_Source\PSoC4/key_touch_Filter.c ****                 #else
 744:Generated_Source\PSoC4/key_touch_Filter.c ****                     ptrFilterHistObj.ptrRegular->regularChannel[channel].iirHistory = ptrSensorObj-
 745:Generated_Source\PSoC4/key_touch_Filter.c ****                 #endif /* (key_touch_REGULAR_IIR_RC_TYPE == key_touch_IIR_FILTER_PERFORMANCE) */
 746:Generated_Source\PSoC4/key_touch_Filter.c ****             #endif /* (key_touch_REGULAR_SENSOR_EN) */    
 747:Generated_Source\PSoC4/key_touch_Filter.c ****         }
 748:Generated_Source\PSoC4/key_touch_Filter.c ****         else
 749:Generated_Source\PSoC4/key_touch_Filter.c ****         {
 750:Generated_Source\PSoC4/key_touch_Filter.c ****             #if (key_touch_PROXIMITY_SENSOR_EN && key_touch_PROX_RC_IIR_FILTER_EN)
 751:Generated_Source\PSoC4/key_touch_Filter.c ****                 #if (key_touch_PROX_IIR_RC_TYPE == key_touch_IIR_FILTER_PERFORMANCE)
 752:Generated_Source\PSoC4/key_touch_Filter.c ****                     ptrFilterHistObj.ptrProx->proxChannel[channel].iirHistory = ptrSensorObj->raw[c
 753:Generated_Source\PSoC4/key_touch_Filter.c ****                     ptrFilterHistObj.ptrProx->proxChannel[channel].iirHistoryLow = 0u;    
 754:Generated_Source\PSoC4/key_touch_Filter.c ****                 #else
 755:Generated_Source\PSoC4/key_touch_Filter.c ****                     ptrFilterHistObj.ptrProx->proxChannel[channel].iirHistory = ptrSensorObj->raw[c
 756:Generated_Source\PSoC4/key_touch_Filter.c ****                 #endif /* (key_touch_PROX_IIR_RC_TYPE == key_touch_IIR_FILTER_PERFORMANCE) */
 757:Generated_Source\PSoC4/key_touch_Filter.c ****             #endif /* (key_touch_PROX_SENSOR_EN) */
 758:Generated_Source\PSoC4/key_touch_Filter.c ****         }    
 759:Generated_Source\PSoC4/key_touch_Filter.c ****     }    
 760:Generated_Source\PSoC4/key_touch_Filter.c **** }
 761:Generated_Source\PSoC4/key_touch_Filter.c ****  
 762:Generated_Source\PSoC4/key_touch_Filter.c **** 
 763:Generated_Source\PSoC4/key_touch_Filter.c **** /*******************************************************************************
 764:Generated_Source\PSoC4/key_touch_Filter.c **** * Function Name: key_touch_RunIIRInternal
 765:Generated_Source\PSoC4/key_touch_Filter.c **** ****************************************************************************//**
 766:Generated_Source\PSoC4/key_touch_Filter.c **** *
 767:Generated_Source\PSoC4/key_touch_Filter.c **** * \brief    Run the IIR filter.
 768:Generated_Source\PSoC4/key_touch_Filter.c **** *
 769:Generated_Source\PSoC4/key_touch_Filter.c **** * \details  Run the IIR filter.
 770:Generated_Source\PSoC4/key_touch_Filter.c **** *
 771:Generated_Source\PSoC4/key_touch_Filter.c **** * \param    ptrFilterHistObj The pointer to the filter RAM object of the sensor.
 772:Generated_Source\PSoC4/key_touch_Filter.c **** * \param    ptrSensorObj     The pointer to the sensor RAM object of the sensor.
 773:Generated_Source\PSoC4/key_touch_Filter.c **** * \param    wdType           Specifies the type of a widget.
 774:Generated_Source\PSoC4/key_touch_Filter.c **** *
 775:Generated_Source\PSoC4/key_touch_Filter.c **** *******************************************************************************/    
 776:Generated_Source\PSoC4/key_touch_Filter.c **** void key_touch_RunIIRInternal(key_touch_PTR_FILTER_VARIANT ptrFilterHistObj, 
 777:Generated_Source\PSoC4/key_touch_Filter.c ****                                      key_touch_RAM_SNS_STRUCT *ptrSensorObj, uint32 wdType)
 778:Generated_Source\PSoC4/key_touch_Filter.c **** {        
 779:Generated_Source\PSoC4/key_touch_Filter.c ****     uint32 channel;
 780:Generated_Source\PSoC4/key_touch_Filter.c ****     uint32 temp;
 781:Generated_Source\PSoC4/key_touch_Filter.c **** 
 782:Generated_Source\PSoC4/key_touch_Filter.c ****     for(channel = key_touch_NUM_SCAN_FREQS; channel-- > 0u;)
 783:Generated_Source\PSoC4/key_touch_Filter.c ****     {
 784:Generated_Source\PSoC4/key_touch_Filter.c ****         if ((key_touch_WD_TYPE_ENUM)wdType != key_touch_WD_PROXIMITY_E)
 785:Generated_Source\PSoC4/key_touch_Filter.c ****         {
 786:Generated_Source\PSoC4/key_touch_Filter.c ****             #if (key_touch_REGULAR_SENSOR_EN && key_touch_REGULAR_RC_IIR_FILTER_EN)
 787:Generated_Source\PSoC4/key_touch_Filter.c ****                 #if (key_touch_REGULAR_IIR_RC_TYPE == key_touch_IIR_FILTER_PERFORMANCE)
 788:Generated_Source\PSoC4/key_touch_Filter.c ****                     temp = ((uint32)ptrFilterHistObj.ptrRegular->regularChannel[channel].iirHistory
 789:Generated_Source\PSoC4/key_touch_Filter.c ****                     temp |= ptrFilterHistObj.ptrRegular->regularChannel[channel].iirHistoryLow;
 790:Generated_Source\PSoC4/key_touch_Filter.c ****                     temp = key_touch_FtIIR1stOrder((uint32)ptrSensorObj->raw[channel],
 791:Generated_Source\PSoC4/key_touch_Filter.c ****                                                         temp,
 792:Generated_Source\PSoC4/key_touch_Filter.c ****                                                         key_touch_REGULAR_IIR_RC_N,
 793:Generated_Source\PSoC4/key_touch_Filter.c ****                                                         key_touch_REGULAR_IIR_RC_SHIFT);
 794:Generated_Source\PSoC4/key_touch_Filter.c ****                     ptrFilterHistObj.ptrRegular->regularChannel[channel].iirHistory = LO16(temp >>k
 795:Generated_Source\PSoC4/key_touch_Filter.c ****                     ptrFilterHistObj.ptrRegular->regularChannel[channel].iirHistoryLow = LO8(temp);
ARM GAS  C:\Users\Administrator\AppData\Local\Temp\ccrG5N5m.s 			page 22


 796:Generated_Source\PSoC4/key_touch_Filter.c ****                     ptrSensorObj->raw[channel] = LO16(temp >>key_touch_REGULAR_IIR_RC_SHIFT);
 797:Generated_Source\PSoC4/key_touch_Filter.c ****                 #else
 798:Generated_Source\PSoC4/key_touch_Filter.c ****                     temp =key_touch_FtIIR1stOrder((uint32)ptrSensorObj->raw[channel],
 799:Generated_Source\PSoC4/key_touch_Filter.c ****                                                         (uint32)ptrFilterHistObj.ptrRegular->regula
 800:Generated_Source\PSoC4/key_touch_Filter.c ****                                                         key_touch_REGULAR_IIR_RC_N,
 801:Generated_Source\PSoC4/key_touch_Filter.c ****                                                         key_touch_REGULAR_IIR_RC_SHIFT);
 802:Generated_Source\PSoC4/key_touch_Filter.c ****                     ptrFilterHistObj.ptrRegular->regularChannel[channel].iirHistory = LO16(temp);
 803:Generated_Source\PSoC4/key_touch_Filter.c ****                     ptrSensorObj->raw[channel] = LO16(temp >>key_touch_REGULAR_IIR_RC_SHIFT);
 804:Generated_Source\PSoC4/key_touch_Filter.c ****                 #endif /* (key_touch_REGULAR_IIR_RC_TYPE == key_touch_IIR_FILTER_PERFORMANCE) */
 805:Generated_Source\PSoC4/key_touch_Filter.c ****             #endif /* (key_touch_REGULAR_SENSOR_EN) */    
 806:Generated_Source\PSoC4/key_touch_Filter.c ****         }
 807:Generated_Source\PSoC4/key_touch_Filter.c ****         else
 808:Generated_Source\PSoC4/key_touch_Filter.c ****         {
 809:Generated_Source\PSoC4/key_touch_Filter.c ****             #if (key_touch_PROXIMITY_SENSOR_EN && key_touch_PROX_RC_IIR_FILTER_EN)
 810:Generated_Source\PSoC4/key_touch_Filter.c ****                 #if (key_touch_PROX_IIR_RC_TYPE == key_touch_IIR_FILTER_PERFORMANCE)
 811:Generated_Source\PSoC4/key_touch_Filter.c ****                     temp =  ptrFilterHistObj.ptrProx->proxChannel[channel].iirHistory << key_touch_
 812:Generated_Source\PSoC4/key_touch_Filter.c ****                     temp |= ptrFilterHistObj.ptrProx->proxChannel[channel].iirHistoryLow;
 813:Generated_Source\PSoC4/key_touch_Filter.c ****                     temp =key_touch_FtIIR1stOrder((uint32)ptrSensorObj->raw[channel],
 814:Generated_Source\PSoC4/key_touch_Filter.c ****                                                         temp,
 815:Generated_Source\PSoC4/key_touch_Filter.c ****                                                         key_touch_PROX_IIR_RC_N,
 816:Generated_Source\PSoC4/key_touch_Filter.c ****                                                         key_touch_PROX_IIR_RC_SHIFT);
 817:Generated_Source\PSoC4/key_touch_Filter.c ****                     ptrFilterHistObj.ptrProx->proxChannel[channel].iirHistory = LO16(temp >>key_tou
 818:Generated_Source\PSoC4/key_touch_Filter.c ****                     ptrFilterHistObj.ptrProx->proxChannel[channel].iirHistoryLow = LO8(temp);
 819:Generated_Source\PSoC4/key_touch_Filter.c ****                     ptrSensorObj->raw[channel] = LO16(temp >>key_touch_PROX_IIR_RC_SHIFT);
 820:Generated_Source\PSoC4/key_touch_Filter.c ****                 #else
 821:Generated_Source\PSoC4/key_touch_Filter.c ****                     temp =key_touch_FtIIR1stOrder((uint32)ptrSensorObj->raw[channel],
 822:Generated_Source\PSoC4/key_touch_Filter.c ****                                                         (uint32)ptrFilterHistObj.ptrProx->proxChann
 823:Generated_Source\PSoC4/key_touch_Filter.c ****                                                         key_touch_PROX_IIR_RC_N,
 824:Generated_Source\PSoC4/key_touch_Filter.c ****                                                         key_touch_PROX_IIR_RC_SHIFT);
 825:Generated_Source\PSoC4/key_touch_Filter.c ****                     ptrFilterHistObj.ptrProx->proxChannel[channel].iirHistory = LO16(temp);
 826:Generated_Source\PSoC4/key_touch_Filter.c ****                     ptrSensorObj->raw[channel] = LO16(temp >>key_touch_PROX_IIR_RC_SHIFT);
 827:Generated_Source\PSoC4/key_touch_Filter.c ****                 #endif /* (key_touch_PROX_IIR_RC_TYPE == key_touch_IIR_FILTER_PERFORMANCE) */
 828:Generated_Source\PSoC4/key_touch_Filter.c ****             #endif /* (key_touch_PROX_SENSOR_EN) */
 829:Generated_Source\PSoC4/key_touch_Filter.c ****         }    
 830:Generated_Source\PSoC4/key_touch_Filter.c ****     }        
 831:Generated_Source\PSoC4/key_touch_Filter.c **** }    
 832:Generated_Source\PSoC4/key_touch_Filter.c **** #endif /* #if (key_touch_REGULAR_RC_IIR_FILTER_EN || key_touch_PROX_RC_IIR_FILTER_EN) */
 833:Generated_Source\PSoC4/key_touch_Filter.c **** 
 834:Generated_Source\PSoC4/key_touch_Filter.c **** 
 835:Generated_Source\PSoC4/key_touch_Filter.c **** #if (key_touch_REGULAR_RC_MEDIAN_FILTER_EN || key_touch_PROX_RC_MEDIAN_FILTER_EN)
 836:Generated_Source\PSoC4/key_touch_Filter.c **** 
 837:Generated_Source\PSoC4/key_touch_Filter.c **** /*******************************************************************************
 838:Generated_Source\PSoC4/key_touch_Filter.c **** * Function Name: key_touch_InitializeMedian
 839:Generated_Source\PSoC4/key_touch_Filter.c **** ****************************************************************************//**
 840:Generated_Source\PSoC4/key_touch_Filter.c **** *
 841:Generated_Source\PSoC4/key_touch_Filter.c **** * \brief    Initializes the Median filter history.
 842:Generated_Source\PSoC4/key_touch_Filter.c **** *
 843:Generated_Source\PSoC4/key_touch_Filter.c **** * \details  Initializes the Median filter history.
 844:Generated_Source\PSoC4/key_touch_Filter.c **** *
 845:Generated_Source\PSoC4/key_touch_Filter.c **** * \param    widgetId Specifies the ID number of the widget.
 846:Generated_Source\PSoC4/key_touch_Filter.c **** * \param    sensorId Specifies the ID number of the sensor in the widget.
 847:Generated_Source\PSoC4/key_touch_Filter.c **** *
 848:Generated_Source\PSoC4/key_touch_Filter.c **** *******************************************************************************/
 849:Generated_Source\PSoC4/key_touch_Filter.c **** void key_touch_InitializeMedian(uint32 widgetId, uint32 sensorId)
 850:Generated_Source\PSoC4/key_touch_Filter.c **** {
 851:Generated_Source\PSoC4/key_touch_Filter.c ****     key_touch_FLASH_WD_STRUCT const *ptrWidget = &key_touch_dsFlash.wdgtArray[widgetId];      
 852:Generated_Source\PSoC4/key_touch_Filter.c ****     key_touch_RAM_SNS_STRUCT *ptrSensor = NULL;    
ARM GAS  C:\Users\Administrator\AppData\Local\Temp\ccrG5N5m.s 			page 23


 853:Generated_Source\PSoC4/key_touch_Filter.c ****     key_touch_PTR_FILTER_VARIANT ptrFilterHistObj; 
 854:Generated_Source\PSoC4/key_touch_Filter.c ****               
 855:Generated_Source\PSoC4/key_touch_Filter.c ****     /* Find pointer to specified sensor object */     
 856:Generated_Source\PSoC4/key_touch_Filter.c ****     ptrSensor = ptrWidget->ptr2SnsRam;
 857:Generated_Source\PSoC4/key_touch_Filter.c ****     ptrSensor = &ptrSensor[sensorId];
 858:Generated_Source\PSoC4/key_touch_Filter.c ****     
 859:Generated_Source\PSoC4/key_touch_Filter.c ****     /* Find pointer to specified filter sensor object */     
 860:Generated_Source\PSoC4/key_touch_Filter.c ****     ptrFilterHistObj.ptr = ptrWidget->ptr2FltrHistory;
 861:Generated_Source\PSoC4/key_touch_Filter.c ****     
 862:Generated_Source\PSoC4/key_touch_Filter.c ****     if ((key_touch_WD_TYPE_ENUM)ptrWidget->wdgtType != key_touch_WD_PROXIMITY_E)
 863:Generated_Source\PSoC4/key_touch_Filter.c ****     {
 864:Generated_Source\PSoC4/key_touch_Filter.c ****         #if (key_touch_REGULAR_SENSOR_EN)
 865:Generated_Source\PSoC4/key_touch_Filter.c ****             ptrFilterHistObj.ptrRegular = &ptrFilterHistObj.ptrRegular[sensorId];
 866:Generated_Source\PSoC4/key_touch_Filter.c ****         #endif /* (key_touch_REGULAR_SENSOR_EN) */
 867:Generated_Source\PSoC4/key_touch_Filter.c ****     }
 868:Generated_Source\PSoC4/key_touch_Filter.c ****     else
 869:Generated_Source\PSoC4/key_touch_Filter.c ****     {
 870:Generated_Source\PSoC4/key_touch_Filter.c ****         #if (key_touch_PROXIMITY_SENSOR_EN)
 871:Generated_Source\PSoC4/key_touch_Filter.c ****             ptrFilterHistObj.ptrProx = &ptrFilterHistObj.ptrProx[sensorId];
 872:Generated_Source\PSoC4/key_touch_Filter.c ****         #endif /* (key_touch_PROXIMITY_SENSOR_EN) */
 873:Generated_Source\PSoC4/key_touch_Filter.c ****     }
 874:Generated_Source\PSoC4/key_touch_Filter.c ****     
 875:Generated_Source\PSoC4/key_touch_Filter.c ****     key_touch_InitializeMedianInternal(ptrFilterHistObj, ptrSensor, (uint32)ptrWidget->wdgtType);
 876:Generated_Source\PSoC4/key_touch_Filter.c **** }     
 877:Generated_Source\PSoC4/key_touch_Filter.c **** 
 878:Generated_Source\PSoC4/key_touch_Filter.c **** 
 879:Generated_Source\PSoC4/key_touch_Filter.c **** /*******************************************************************************
 880:Generated_Source\PSoC4/key_touch_Filter.c **** * Function Name: key_touch_RunMedian
 881:Generated_Source\PSoC4/key_touch_Filter.c **** ****************************************************************************//**
 882:Generated_Source\PSoC4/key_touch_Filter.c **** *
 883:Generated_Source\PSoC4/key_touch_Filter.c **** * \brief    Executes the Median filter algorithm on a sensor indicated by an input 
 884:Generated_Source\PSoC4/key_touch_Filter.c **** *           parameter. 
 885:Generated_Source\PSoC4/key_touch_Filter.c **** *
 886:Generated_Source\PSoC4/key_touch_Filter.c **** * \details  Executes the Median filter algorithm on a sensor indicated by an input 
 887:Generated_Source\PSoC4/key_touch_Filter.c **** *           parameter. 
 888:Generated_Source\PSoC4/key_touch_Filter.c **** *
 889:Generated_Source\PSoC4/key_touch_Filter.c **** * \param    widgetId Specifies the ID number of the widget.
 890:Generated_Source\PSoC4/key_touch_Filter.c **** * \param    sensorId Specifies the ID number of the sensor in the widget.
 891:Generated_Source\PSoC4/key_touch_Filter.c **** *
 892:Generated_Source\PSoC4/key_touch_Filter.c **** *******************************************************************************/
 893:Generated_Source\PSoC4/key_touch_Filter.c **** void key_touch_RunMedian(uint32 widgetId, uint32 sensorId)
 894:Generated_Source\PSoC4/key_touch_Filter.c **** {
 895:Generated_Source\PSoC4/key_touch_Filter.c ****     key_touch_FLASH_WD_STRUCT const *ptrWidget = &key_touch_dsFlash.wdgtArray[widgetId];      
 896:Generated_Source\PSoC4/key_touch_Filter.c ****     key_touch_RAM_SNS_STRUCT *ptrSensor = NULL;    
 897:Generated_Source\PSoC4/key_touch_Filter.c ****     key_touch_PTR_FILTER_VARIANT ptrFilterHistObj; 
 898:Generated_Source\PSoC4/key_touch_Filter.c ****               
 899:Generated_Source\PSoC4/key_touch_Filter.c ****     /* Find pointer to specified sensor object */     
 900:Generated_Source\PSoC4/key_touch_Filter.c ****     ptrSensor = ptrWidget->ptr2SnsRam;
 901:Generated_Source\PSoC4/key_touch_Filter.c ****     ptrSensor = &ptrSensor[sensorId];
 902:Generated_Source\PSoC4/key_touch_Filter.c ****     
 903:Generated_Source\PSoC4/key_touch_Filter.c ****     /* Find pointer to specified filter sensor object */     
 904:Generated_Source\PSoC4/key_touch_Filter.c ****     ptrFilterHistObj.ptr = ptrWidget->ptr2FltrHistory;
 905:Generated_Source\PSoC4/key_touch_Filter.c ****     
 906:Generated_Source\PSoC4/key_touch_Filter.c ****     if ((key_touch_WD_TYPE_ENUM)ptrWidget->wdgtType != key_touch_WD_PROXIMITY_E)
 907:Generated_Source\PSoC4/key_touch_Filter.c ****     {
 908:Generated_Source\PSoC4/key_touch_Filter.c ****         #if (key_touch_REGULAR_SENSOR_EN)
 909:Generated_Source\PSoC4/key_touch_Filter.c ****             ptrFilterHistObj.ptrRegular = &ptrFilterHistObj.ptrRegular[sensorId];
ARM GAS  C:\Users\Administrator\AppData\Local\Temp\ccrG5N5m.s 			page 24


 910:Generated_Source\PSoC4/key_touch_Filter.c ****         #endif /* (key_touch_REGULAR_SENSOR_EN) */
 911:Generated_Source\PSoC4/key_touch_Filter.c ****     }
 912:Generated_Source\PSoC4/key_touch_Filter.c ****     else
 913:Generated_Source\PSoC4/key_touch_Filter.c ****     {
 914:Generated_Source\PSoC4/key_touch_Filter.c ****         #if (key_touch_PROXIMITY_SENSOR_EN)
 915:Generated_Source\PSoC4/key_touch_Filter.c ****             ptrFilterHistObj.ptrProx = &ptrFilterHistObj.ptrProx[sensorId];
 916:Generated_Source\PSoC4/key_touch_Filter.c ****         #endif /* (key_touch_PROXIMITY_SENSOR_EN) */
 917:Generated_Source\PSoC4/key_touch_Filter.c ****     }
 918:Generated_Source\PSoC4/key_touch_Filter.c ****     
 919:Generated_Source\PSoC4/key_touch_Filter.c ****     key_touch_RunMedianInternal(ptrFilterHistObj, ptrSensor, (uint32)ptrWidget->wdgtType);
 920:Generated_Source\PSoC4/key_touch_Filter.c **** }
 921:Generated_Source\PSoC4/key_touch_Filter.c ****    
 922:Generated_Source\PSoC4/key_touch_Filter.c **** 
 923:Generated_Source\PSoC4/key_touch_Filter.c **** /*******************************************************************************
 924:Generated_Source\PSoC4/key_touch_Filter.c **** * Function Name: key_touch_InitializeMedianInternal
 925:Generated_Source\PSoC4/key_touch_Filter.c **** ****************************************************************************//**
 926:Generated_Source\PSoC4/key_touch_Filter.c **** *
 927:Generated_Source\PSoC4/key_touch_Filter.c **** * \brief    Initializes the Median filter.
 928:Generated_Source\PSoC4/key_touch_Filter.c **** *
 929:Generated_Source\PSoC4/key_touch_Filter.c **** * \details  Initializes the Median filter.
 930:Generated_Source\PSoC4/key_touch_Filter.c **** *
 931:Generated_Source\PSoC4/key_touch_Filter.c **** * \param    ptrFilterHistObj The pointer to the filter RAM object of the sensor.
 932:Generated_Source\PSoC4/key_touch_Filter.c **** * \param    ptrSensorObj     The pointer to the sensor RAM object of the sensor.
 933:Generated_Source\PSoC4/key_touch_Filter.c **** * \param    wdType           Specifies the type of a widget.
 934:Generated_Source\PSoC4/key_touch_Filter.c **** *
 935:Generated_Source\PSoC4/key_touch_Filter.c **** *******************************************************************************/
 936:Generated_Source\PSoC4/key_touch_Filter.c **** void key_touch_InitializeMedianInternal(key_touch_PTR_FILTER_VARIANT ptrFilterHistObj,
 937:Generated_Source\PSoC4/key_touch_Filter.c ****                                                key_touch_RAM_SNS_STRUCT *ptrSensorObj, uint32 wdTyp
 938:Generated_Source\PSoC4/key_touch_Filter.c **** {
 939:Generated_Source\PSoC4/key_touch_Filter.c ****     uint32 channel;
 940:Generated_Source\PSoC4/key_touch_Filter.c **** 
 941:Generated_Source\PSoC4/key_touch_Filter.c ****     for(channel = key_touch_NUM_SCAN_FREQS; channel-- > 0u;)
 942:Generated_Source\PSoC4/key_touch_Filter.c ****     {
 943:Generated_Source\PSoC4/key_touch_Filter.c ****         if ((key_touch_WD_TYPE_ENUM)wdType != key_touch_WD_PROXIMITY_E)
 944:Generated_Source\PSoC4/key_touch_Filter.c ****         {
 945:Generated_Source\PSoC4/key_touch_Filter.c ****             #if (key_touch_REGULAR_SENSOR_EN && key_touch_REGULAR_RC_MEDIAN_FILTER_EN)
 946:Generated_Source\PSoC4/key_touch_Filter.c ****                 ptrFilterHistObj.ptrRegular->regularChannel[channel].medHistory[0u] = ptrSensorObj-
 947:Generated_Source\PSoC4/key_touch_Filter.c ****                 ptrFilterHistObj.ptrRegular->regularChannel[channel].medHistory[1u] = ptrSensorObj-
 948:Generated_Source\PSoC4/key_touch_Filter.c ****             #endif /* (key_touch_REGULAR_SENSOR_EN) */
 949:Generated_Source\PSoC4/key_touch_Filter.c ****         }
 950:Generated_Source\PSoC4/key_touch_Filter.c ****         else
 951:Generated_Source\PSoC4/key_touch_Filter.c ****         {
 952:Generated_Source\PSoC4/key_touch_Filter.c ****             #if (key_touch_PROXIMITY_SENSOR_EN && key_touch_PROX_RC_MEDIAN_FILTER_EN)
 953:Generated_Source\PSoC4/key_touch_Filter.c ****                 ptrFilterHistObj.ptrProx->proxChannel[channel].medHistory[0u] = ptrSensorObj->raw[c
 954:Generated_Source\PSoC4/key_touch_Filter.c ****                 ptrFilterHistObj.ptrProx->proxChannel[channel].medHistory[1u] = ptrSensorObj->raw[c
 955:Generated_Source\PSoC4/key_touch_Filter.c ****             #endif /* (key_touch_PROXIMITY_SENSOR_EN) */               
 956:Generated_Source\PSoC4/key_touch_Filter.c ****         }
 957:Generated_Source\PSoC4/key_touch_Filter.c ****     }
 958:Generated_Source\PSoC4/key_touch_Filter.c **** }
 959:Generated_Source\PSoC4/key_touch_Filter.c **** 
 960:Generated_Source\PSoC4/key_touch_Filter.c **** 
 961:Generated_Source\PSoC4/key_touch_Filter.c **** /*******************************************************************************
 962:Generated_Source\PSoC4/key_touch_Filter.c **** * Function Name: key_touch_RunMedianInternal
 963:Generated_Source\PSoC4/key_touch_Filter.c **** ****************************************************************************//**
 964:Generated_Source\PSoC4/key_touch_Filter.c **** *
 965:Generated_Source\PSoC4/key_touch_Filter.c **** * \brief    Runs the Median filter.
 966:Generated_Source\PSoC4/key_touch_Filter.c **** *
ARM GAS  C:\Users\Administrator\AppData\Local\Temp\ccrG5N5m.s 			page 25


 967:Generated_Source\PSoC4/key_touch_Filter.c **** * \details  Runs the Median filter.
 968:Generated_Source\PSoC4/key_touch_Filter.c **** *
 969:Generated_Source\PSoC4/key_touch_Filter.c **** * \param    ptrFilterHistObj The pointer to the filter RAM object of the sensor.
 970:Generated_Source\PSoC4/key_touch_Filter.c **** * \param    ptrSensorObj     The pointer to the sensor RAM object of the sensor.
 971:Generated_Source\PSoC4/key_touch_Filter.c **** * \param    wdType           Specifies the type of a widget.
 972:Generated_Source\PSoC4/key_touch_Filter.c **** *
 973:Generated_Source\PSoC4/key_touch_Filter.c **** *******************************************************************************/
 974:Generated_Source\PSoC4/key_touch_Filter.c **** void key_touch_RunMedianInternal(key_touch_PTR_FILTER_VARIANT ptrFilterHistObj,
 975:Generated_Source\PSoC4/key_touch_Filter.c ****                                         key_touch_RAM_SNS_STRUCT *ptrSensorObj, uint32 wdType)
 976:Generated_Source\PSoC4/key_touch_Filter.c **** {
 977:Generated_Source\PSoC4/key_touch_Filter.c ****     uint32 channel;
 978:Generated_Source\PSoC4/key_touch_Filter.c ****     
 979:Generated_Source\PSoC4/key_touch_Filter.c ****     #if ((key_touch_REGULAR_SENSOR_EN && key_touch_REGULAR_RC_MEDIAN_FILTER_EN) || \
 980:Generated_Source\PSoC4/key_touch_Filter.c ****          (key_touch_PROXIMITY_SENSOR_EN && key_touch_PROX_RC_MEDIAN_FILTER_EN))
 981:Generated_Source\PSoC4/key_touch_Filter.c ****         uint32 temp;
 982:Generated_Source\PSoC4/key_touch_Filter.c ****     #endif
 983:Generated_Source\PSoC4/key_touch_Filter.c ****     
 984:Generated_Source\PSoC4/key_touch_Filter.c ****     for(channel = key_touch_NUM_SCAN_FREQS; channel-- > 0u;)
 985:Generated_Source\PSoC4/key_touch_Filter.c ****     {    
 986:Generated_Source\PSoC4/key_touch_Filter.c ****         if ((key_touch_WD_TYPE_ENUM)wdType != key_touch_WD_PROXIMITY_E)
 987:Generated_Source\PSoC4/key_touch_Filter.c ****         {                                             
 988:Generated_Source\PSoC4/key_touch_Filter.c ****             #if (key_touch_REGULAR_SENSOR_EN && key_touch_REGULAR_RC_MEDIAN_FILTER_EN)
 989:Generated_Source\PSoC4/key_touch_Filter.c ****                 temp = key_touch_FtMedian((uint32)ptrSensorObj->raw[channel],\
 990:Generated_Source\PSoC4/key_touch_Filter.c ****                                                  (uint32)ptrFilterHistObj.ptrRegular->regularChanne
 991:Generated_Source\PSoC4/key_touch_Filter.c ****                                                  (uint32)ptrFilterHistObj.ptrRegular->regularChanne
 992:Generated_Source\PSoC4/key_touch_Filter.c ****                 ptrFilterHistObj.ptrRegular->regularChannel[channel].medHistory[1u] = \
 993:Generated_Source\PSoC4/key_touch_Filter.c ****                 ptrFilterHistObj.ptrRegular->regularChannel[channel].medHistory[0u];
 994:Generated_Source\PSoC4/key_touch_Filter.c ****                 ptrFilterHistObj.ptrRegular->regularChannel[channel].medHistory[0u] = ptrSensorObj-
 995:Generated_Source\PSoC4/key_touch_Filter.c ****                 ptrSensorObj->raw[channel] = LO16(temp);
 996:Generated_Source\PSoC4/key_touch_Filter.c ****             #endif /* (key_touch_REGULAR_SENSOR_EN) */     
 997:Generated_Source\PSoC4/key_touch_Filter.c ****         }
 998:Generated_Source\PSoC4/key_touch_Filter.c ****         else 
 999:Generated_Source\PSoC4/key_touch_Filter.c ****         {                   
1000:Generated_Source\PSoC4/key_touch_Filter.c ****             #if (key_touch_PROXIMITY_SENSOR_EN && key_touch_PROX_RC_MEDIAN_FILTER_EN)
1001:Generated_Source\PSoC4/key_touch_Filter.c ****                 temp = key_touch_FtMedian((uint32)ptrSensorObj->raw[channel],\
1002:Generated_Source\PSoC4/key_touch_Filter.c ****                                                  (uint32)ptrFilterHistObj.ptrProx->proxChannel[chan
1003:Generated_Source\PSoC4/key_touch_Filter.c ****                                                  (uint32)ptrFilterHistObj.ptrProx->proxChannel[chan
1004:Generated_Source\PSoC4/key_touch_Filter.c ****                 ptrFilterHistObj.ptrProx->proxChannel[channel].medHistory[1u] = \
1005:Generated_Source\PSoC4/key_touch_Filter.c ****                 ptrFilterHistObj.ptrProx->proxChannel[channel].medHistory[0u];
1006:Generated_Source\PSoC4/key_touch_Filter.c ****                 ptrFilterHistObj.ptrProx->proxChannel[channel].medHistory[0u] = ptrSensorObj->raw[c
1007:Generated_Source\PSoC4/key_touch_Filter.c ****                 ptrSensorObj->raw[channel] = LO16(temp);
1008:Generated_Source\PSoC4/key_touch_Filter.c ****             #endif /* (key_touch_PROXIMITY_SENSOR_EN) */               
1009:Generated_Source\PSoC4/key_touch_Filter.c ****         }
1010:Generated_Source\PSoC4/key_touch_Filter.c ****     }
1011:Generated_Source\PSoC4/key_touch_Filter.c **** }
1012:Generated_Source\PSoC4/key_touch_Filter.c **** #endif /* (key_touch_REGULAR_RC_MEDIAN_FILTER_EN || key_touch_PROX_RC_MEDIAN_FILTER_EN) */
1013:Generated_Source\PSoC4/key_touch_Filter.c **** 
1014:Generated_Source\PSoC4/key_touch_Filter.c **** 
1015:Generated_Source\PSoC4/key_touch_Filter.c **** #if (key_touch_REGULAR_RC_AVERAGE_FILTER_EN || key_touch_PROX_RC_AVERAGE_FILTER_EN)
1016:Generated_Source\PSoC4/key_touch_Filter.c **** 
1017:Generated_Source\PSoC4/key_touch_Filter.c **** /*******************************************************************************
1018:Generated_Source\PSoC4/key_touch_Filter.c **** * Function Name: key_touch_InitializeAverage
1019:Generated_Source\PSoC4/key_touch_Filter.c **** ****************************************************************************//**
1020:Generated_Source\PSoC4/key_touch_Filter.c **** *
1021:Generated_Source\PSoC4/key_touch_Filter.c **** * \brief    Initializes the average filter history.
1022:Generated_Source\PSoC4/key_touch_Filter.c **** *
1023:Generated_Source\PSoC4/key_touch_Filter.c **** * \details  Initializes the average filter history.
ARM GAS  C:\Users\Administrator\AppData\Local\Temp\ccrG5N5m.s 			page 26


1024:Generated_Source\PSoC4/key_touch_Filter.c **** *
1025:Generated_Source\PSoC4/key_touch_Filter.c **** * \param    widgetId Specifies the ID number of the widget.
1026:Generated_Source\PSoC4/key_touch_Filter.c **** * \param    sensorId Specifies the ID number of the sensor in the widget.
1027:Generated_Source\PSoC4/key_touch_Filter.c **** *
1028:Generated_Source\PSoC4/key_touch_Filter.c **** *******************************************************************************/
1029:Generated_Source\PSoC4/key_touch_Filter.c **** void key_touch_InitializeAverage(uint32 widgetId, uint32 sensorId)
1030:Generated_Source\PSoC4/key_touch_Filter.c **** {
1031:Generated_Source\PSoC4/key_touch_Filter.c ****     key_touch_FLASH_WD_STRUCT const *ptrWidget = &key_touch_dsFlash.wdgtArray[widgetId];      
1032:Generated_Source\PSoC4/key_touch_Filter.c ****     key_touch_RAM_SNS_STRUCT *ptrSensor = NULL;
1033:Generated_Source\PSoC4/key_touch_Filter.c ****     key_touch_PTR_FILTER_VARIANT ptrFilterHistObj;
1034:Generated_Source\PSoC4/key_touch_Filter.c **** 
1035:Generated_Source\PSoC4/key_touch_Filter.c ****     /* Find pointer to specified sensor object */
1036:Generated_Source\PSoC4/key_touch_Filter.c ****     ptrSensor = ptrWidget->ptr2SnsRam;
1037:Generated_Source\PSoC4/key_touch_Filter.c ****     ptrSensor = &ptrSensor[sensorId];
1038:Generated_Source\PSoC4/key_touch_Filter.c ****     
1039:Generated_Source\PSoC4/key_touch_Filter.c ****     /* Find pointer to specified filter sensor object */
1040:Generated_Source\PSoC4/key_touch_Filter.c ****     ptrFilterHistObj.ptr = ptrWidget->ptr2FltrHistory;
1041:Generated_Source\PSoC4/key_touch_Filter.c **** 
1042:Generated_Source\PSoC4/key_touch_Filter.c ****     if ((key_touch_WD_TYPE_ENUM)ptrWidget->wdgtType != key_touch_WD_PROXIMITY_E)
1043:Generated_Source\PSoC4/key_touch_Filter.c ****     {
1044:Generated_Source\PSoC4/key_touch_Filter.c ****         #if (key_touch_REGULAR_SENSOR_EN)
1045:Generated_Source\PSoC4/key_touch_Filter.c ****             ptrFilterHistObj.ptrRegular = &ptrFilterHistObj.ptrRegular[sensorId];
1046:Generated_Source\PSoC4/key_touch_Filter.c ****         #endif /* (key_touch_REGULAR_SENSOR_EN) */
1047:Generated_Source\PSoC4/key_touch_Filter.c ****     }
1048:Generated_Source\PSoC4/key_touch_Filter.c ****     else
1049:Generated_Source\PSoC4/key_touch_Filter.c ****     {
1050:Generated_Source\PSoC4/key_touch_Filter.c ****         #if (key_touch_PROXIMITY_SENSOR_EN)
1051:Generated_Source\PSoC4/key_touch_Filter.c ****             ptrFilterHistObj.ptrProx = &ptrFilterHistObj.ptrProx[sensorId];
1052:Generated_Source\PSoC4/key_touch_Filter.c ****         #endif /* (key_touch_PROXIMITY_SENSOR_EN) */
1053:Generated_Source\PSoC4/key_touch_Filter.c ****     }
1054:Generated_Source\PSoC4/key_touch_Filter.c **** 
1055:Generated_Source\PSoC4/key_touch_Filter.c ****     key_touch_InitializeAverageInternal(ptrFilterHistObj, ptrSensor, (uint32)ptrWidget->wdgtType);
1056:Generated_Source\PSoC4/key_touch_Filter.c **** }
1057:Generated_Source\PSoC4/key_touch_Filter.c **** 
1058:Generated_Source\PSoC4/key_touch_Filter.c **** 
1059:Generated_Source\PSoC4/key_touch_Filter.c **** /*******************************************************************************
1060:Generated_Source\PSoC4/key_touch_Filter.c **** * Function Name: key_touch_RunAverage
1061:Generated_Source\PSoC4/key_touch_Filter.c **** ****************************************************************************//**
1062:Generated_Source\PSoC4/key_touch_Filter.c **** *
1063:Generated_Source\PSoC4/key_touch_Filter.c **** * \brief    Executes the average filter algorithm on a sensor indicated by an input 
1064:Generated_Source\PSoC4/key_touch_Filter.c **** *           parameter. 
1065:Generated_Source\PSoC4/key_touch_Filter.c **** *
1066:Generated_Source\PSoC4/key_touch_Filter.c **** * \details  Executes the average filter algorithm on a sensor indicated by an input 
1067:Generated_Source\PSoC4/key_touch_Filter.c **** *           parameter. 
1068:Generated_Source\PSoC4/key_touch_Filter.c **** *
1069:Generated_Source\PSoC4/key_touch_Filter.c **** * \param    widgetId Specifies the ID number of the widget.
1070:Generated_Source\PSoC4/key_touch_Filter.c **** * \param    sensorId Specifies the ID number of the sensor in the widget.
1071:Generated_Source\PSoC4/key_touch_Filter.c **** *
1072:Generated_Source\PSoC4/key_touch_Filter.c **** *******************************************************************************/
1073:Generated_Source\PSoC4/key_touch_Filter.c **** void key_touch_RunAverage(uint32 widgetId, uint32 sensorId)
1074:Generated_Source\PSoC4/key_touch_Filter.c **** {
1075:Generated_Source\PSoC4/key_touch_Filter.c ****     key_touch_FLASH_WD_STRUCT const *ptrWidget = &key_touch_dsFlash.wdgtArray[widgetId];      
1076:Generated_Source\PSoC4/key_touch_Filter.c ****     key_touch_RAM_SNS_STRUCT *ptrSensor = NULL;    
1077:Generated_Source\PSoC4/key_touch_Filter.c ****     key_touch_PTR_FILTER_VARIANT ptrFilterHistObj; 
1078:Generated_Source\PSoC4/key_touch_Filter.c ****               
1079:Generated_Source\PSoC4/key_touch_Filter.c ****     /* Find pointer to specified sensor object */     
1080:Generated_Source\PSoC4/key_touch_Filter.c ****     ptrSensor = ptrWidget->ptr2SnsRam;
ARM GAS  C:\Users\Administrator\AppData\Local\Temp\ccrG5N5m.s 			page 27


1081:Generated_Source\PSoC4/key_touch_Filter.c ****     ptrSensor = &ptrSensor[sensorId];
1082:Generated_Source\PSoC4/key_touch_Filter.c ****     
1083:Generated_Source\PSoC4/key_touch_Filter.c ****     /* Find pointer to specified filter sensor object */     
1084:Generated_Source\PSoC4/key_touch_Filter.c ****     ptrFilterHistObj.ptr = ptrWidget->ptr2FltrHistory;
1085:Generated_Source\PSoC4/key_touch_Filter.c ****     
1086:Generated_Source\PSoC4/key_touch_Filter.c ****     if ((key_touch_WD_TYPE_ENUM)ptrWidget->wdgtType != key_touch_WD_PROXIMITY_E)
1087:Generated_Source\PSoC4/key_touch_Filter.c ****     {
1088:Generated_Source\PSoC4/key_touch_Filter.c ****         #if (key_touch_REGULAR_SENSOR_EN)
1089:Generated_Source\PSoC4/key_touch_Filter.c ****             ptrFilterHistObj.ptrRegular = &ptrFilterHistObj.ptrRegular[sensorId];
1090:Generated_Source\PSoC4/key_touch_Filter.c ****         #endif /* (key_touch_REGULAR_SENSOR_EN) */
1091:Generated_Source\PSoC4/key_touch_Filter.c ****     }
1092:Generated_Source\PSoC4/key_touch_Filter.c ****     else
1093:Generated_Source\PSoC4/key_touch_Filter.c ****     {
1094:Generated_Source\PSoC4/key_touch_Filter.c ****         #if (key_touch_PROXIMITY_SENSOR_EN)
1095:Generated_Source\PSoC4/key_touch_Filter.c ****             ptrFilterHistObj.ptrProx = &ptrFilterHistObj.ptrProx[sensorId];
1096:Generated_Source\PSoC4/key_touch_Filter.c ****         #endif /* (key_touch_PROXIMITY_SENSOR_EN) */
1097:Generated_Source\PSoC4/key_touch_Filter.c ****     }
1098:Generated_Source\PSoC4/key_touch_Filter.c ****     
1099:Generated_Source\PSoC4/key_touch_Filter.c ****     key_touch_RunAverageInternal(ptrFilterHistObj, ptrSensor, (uint32)ptrWidget->wdgtType);
1100:Generated_Source\PSoC4/key_touch_Filter.c **** }
1101:Generated_Source\PSoC4/key_touch_Filter.c **** 
1102:Generated_Source\PSoC4/key_touch_Filter.c **** 
1103:Generated_Source\PSoC4/key_touch_Filter.c **** /*******************************************************************************
1104:Generated_Source\PSoC4/key_touch_Filter.c **** * Function Name: key_touch_InitializeAverageInternal
1105:Generated_Source\PSoC4/key_touch_Filter.c **** ****************************************************************************//**
1106:Generated_Source\PSoC4/key_touch_Filter.c **** *
1107:Generated_Source\PSoC4/key_touch_Filter.c **** * \brief    Initializes the average filter.
1108:Generated_Source\PSoC4/key_touch_Filter.c **** *
1109:Generated_Source\PSoC4/key_touch_Filter.c **** * \details  Initializes the average filter.
1110:Generated_Source\PSoC4/key_touch_Filter.c **** *
1111:Generated_Source\PSoC4/key_touch_Filter.c **** * \param    ptrFilterHistObj The pointer to the filter RAM object of the sensor.
1112:Generated_Source\PSoC4/key_touch_Filter.c **** * \param    ptrSensorObj     The pointer to the sensor RAM object of the sensor.
1113:Generated_Source\PSoC4/key_touch_Filter.c **** * \param    wdType           Specifies the type of a widget.
1114:Generated_Source\PSoC4/key_touch_Filter.c **** *
1115:Generated_Source\PSoC4/key_touch_Filter.c **** *******************************************************************************/
1116:Generated_Source\PSoC4/key_touch_Filter.c **** void key_touch_InitializeAverageInternal(key_touch_PTR_FILTER_VARIANT ptrFilterHistObj,\
1117:Generated_Source\PSoC4/key_touch_Filter.c ****                                                   key_touch_RAM_SNS_STRUCT *ptrSensorObj, uint32 wd
1118:Generated_Source\PSoC4/key_touch_Filter.c **** {
1119:Generated_Source\PSoC4/key_touch_Filter.c ****     uint32 channel;
1120:Generated_Source\PSoC4/key_touch_Filter.c **** 
1121:Generated_Source\PSoC4/key_touch_Filter.c ****     for(channel = key_touch_NUM_SCAN_FREQS; channel-- > 0u;)
1122:Generated_Source\PSoC4/key_touch_Filter.c ****     {
1123:Generated_Source\PSoC4/key_touch_Filter.c ****         if ((key_touch_WD_TYPE_ENUM)wdType != key_touch_WD_PROXIMITY_E)
1124:Generated_Source\PSoC4/key_touch_Filter.c ****         {
1125:Generated_Source\PSoC4/key_touch_Filter.c ****             #if (key_touch_REGULAR_SENSOR_EN && key_touch_REGULAR_RC_AVERAGE_FILTER_EN)
1126:Generated_Source\PSoC4/key_touch_Filter.c ****                 ptrFilterHistObj.ptrRegular->regularChannel[channel].avgHistory[0] = ptrSensorObj->
1127:Generated_Source\PSoC4/key_touch_Filter.c ****                 #if (key_touch_REGULAR_AVERAGE_LEN == key_touch_AVERAGE_FILTER_LEN_4)
1128:Generated_Source\PSoC4/key_touch_Filter.c ****                     ptrFilterHistObj.ptrRegular->regularChannel[channel].avgHistory[1u] = ptrSensor
1129:Generated_Source\PSoC4/key_touch_Filter.c ****                     ptrFilterHistObj.ptrRegular->regularChannel[channel].avgHistory[2u] = ptrSensor
1130:Generated_Source\PSoC4/key_touch_Filter.c ****                 #endif /* key_touch_REGULAR_AVERAGE_LEN == key_touch_AVERAGE_FILTER_LEN_4 */
1131:Generated_Source\PSoC4/key_touch_Filter.c ****             #endif /* (key_touch_REGULAR_SENSOR_EN) */      
1132:Generated_Source\PSoC4/key_touch_Filter.c ****         }
1133:Generated_Source\PSoC4/key_touch_Filter.c ****         else
1134:Generated_Source\PSoC4/key_touch_Filter.c ****         {
1135:Generated_Source\PSoC4/key_touch_Filter.c ****             #if (key_touch_PROXIMITY_SENSOR_EN && key_touch_PROX_RC_AVERAGE_FILTER_EN)
1136:Generated_Source\PSoC4/key_touch_Filter.c ****                 ptrFilterHistObj.ptrProx->proxChannel[channel].avgHistory[0] = ptrSensorObj->raw[ch
1137:Generated_Source\PSoC4/key_touch_Filter.c ****                     #if (key_touch_PROX_AVERAGE_LEN == key_touch_AVERAGE_FILTER_LEN_4)
ARM GAS  C:\Users\Administrator\AppData\Local\Temp\ccrG5N5m.s 			page 28


1138:Generated_Source\PSoC4/key_touch_Filter.c ****                         ptrFilterHistObj.ptrProx->proxChannel[channel].avgHistory[1u] = ptrSensorOb
1139:Generated_Source\PSoC4/key_touch_Filter.c ****                         ptrFilterHistObj.ptrProx->proxChannel[channel].avgHistory[2u] = ptrSensorOb
1140:Generated_Source\PSoC4/key_touch_Filter.c ****                     #endif /* key_touch_REGULAR_AVERAGE_LEN == key_touch_AVERAGE_FILTER_LEN_4 */
1141:Generated_Source\PSoC4/key_touch_Filter.c ****             #endif /* (key_touch_PROXIMITY_SENSOR_EN) */
1142:Generated_Source\PSoC4/key_touch_Filter.c ****         }
1143:Generated_Source\PSoC4/key_touch_Filter.c ****     }
1144:Generated_Source\PSoC4/key_touch_Filter.c **** }
1145:Generated_Source\PSoC4/key_touch_Filter.c **** 
1146:Generated_Source\PSoC4/key_touch_Filter.c **** 
1147:Generated_Source\PSoC4/key_touch_Filter.c **** /*******************************************************************************
1148:Generated_Source\PSoC4/key_touch_Filter.c **** * Function Name: key_touch_RunAverageInternal
1149:Generated_Source\PSoC4/key_touch_Filter.c **** ****************************************************************************//**
1150:Generated_Source\PSoC4/key_touch_Filter.c **** *
1151:Generated_Source\PSoC4/key_touch_Filter.c **** * \brief    Runs the average filter.
1152:Generated_Source\PSoC4/key_touch_Filter.c **** *
1153:Generated_Source\PSoC4/key_touch_Filter.c **** * \details  Runs the average filter.
1154:Generated_Source\PSoC4/key_touch_Filter.c **** *
1155:Generated_Source\PSoC4/key_touch_Filter.c **** * \param    ptrFilterHistObj The pointer to the filter RAM object of the sensor.
1156:Generated_Source\PSoC4/key_touch_Filter.c **** * \param    ptrSensorObj     The pointer to the sensor RAM object of the sensor.
1157:Generated_Source\PSoC4/key_touch_Filter.c **** * \param    wdType           Specifies the type of a widget.
1158:Generated_Source\PSoC4/key_touch_Filter.c **** *
1159:Generated_Source\PSoC4/key_touch_Filter.c **** *******************************************************************************/
1160:Generated_Source\PSoC4/key_touch_Filter.c **** void key_touch_RunAverageInternal(key_touch_PTR_FILTER_VARIANT ptrFilterHistObj,\
1161:Generated_Source\PSoC4/key_touch_Filter.c ****                                            key_touch_RAM_SNS_STRUCT *ptrSensorObj, uint32 wdType)
1162:Generated_Source\PSoC4/key_touch_Filter.c **** {
1163:Generated_Source\PSoC4/key_touch_Filter.c ****     uint32 channel;
1164:Generated_Source\PSoC4/key_touch_Filter.c ****     uint32 temp;
1165:Generated_Source\PSoC4/key_touch_Filter.c **** 
1166:Generated_Source\PSoC4/key_touch_Filter.c ****     for(channel = key_touch_NUM_SCAN_FREQS; channel-- > 0u;)
1167:Generated_Source\PSoC4/key_touch_Filter.c ****     {
1168:Generated_Source\PSoC4/key_touch_Filter.c ****         if ((key_touch_WD_TYPE_ENUM)wdType != key_touch_WD_PROXIMITY_E)
1169:Generated_Source\PSoC4/key_touch_Filter.c ****         {
1170:Generated_Source\PSoC4/key_touch_Filter.c ****             #if (key_touch_REGULAR_SENSOR_EN && key_touch_REGULAR_RC_AVERAGE_FILTER_EN)
1171:Generated_Source\PSoC4/key_touch_Filter.c ****                 #if (key_touch_REGULAR_AVERAGE_LEN == key_touch_AVERAGE_FILTER_LEN_2)
1172:Generated_Source\PSoC4/key_touch_Filter.c ****                     temp = ((uint32)ptrSensorObj->raw[channel] + 
1173:Generated_Source\PSoC4/key_touch_Filter.c ****                             (uint32)ptrFilterHistObj.ptrRegular->regularChannel[channel].avgHistory
1174:Generated_Source\PSoC4/key_touch_Filter.c ****                     ptrFilterHistObj.ptrRegular->regularChannel[channel].avgHistory[0] = ptrSensorO
1175:Generated_Source\PSoC4/key_touch_Filter.c ****                     ptrSensorObj->raw[channel] = LO16(temp);
1176:Generated_Source\PSoC4/key_touch_Filter.c ****                 #else
1177:Generated_Source\PSoC4/key_touch_Filter.c ****                     temp = ((uint32)ptrSensorObj->raw[channel] + 
1178:Generated_Source\PSoC4/key_touch_Filter.c ****                             (uint32)ptrFilterHistObj.ptrRegular->regularChannel[channel].avgHistory
1179:Generated_Source\PSoC4/key_touch_Filter.c ****                             (uint32)ptrFilterHistObj.ptrRegular->regularChannel[channel].avgHistory
1180:Generated_Source\PSoC4/key_touch_Filter.c ****                             (uint32)ptrFilterHistObj.ptrRegular->regularChannel[channel].avgHistory
1181:Generated_Source\PSoC4/key_touch_Filter.c **** 
1182:Generated_Source\PSoC4/key_touch_Filter.c ****                     ptrFilterHistObj.ptrRegular->regularChannel[channel].avgHistory[2u] =
1183:Generated_Source\PSoC4/key_touch_Filter.c ****                     ptrFilterHistObj.ptrRegular->regularChannel[channel].avgHistory[1u];
1184:Generated_Source\PSoC4/key_touch_Filter.c ****                     ptrFilterHistObj.ptrRegular->regularChannel[channel].avgHistory[1u] =
1185:Generated_Source\PSoC4/key_touch_Filter.c ****                     ptrFilterHistObj.ptrRegular->regularChannel[channel].avgHistory[0];
1186:Generated_Source\PSoC4/key_touch_Filter.c ****                     ptrFilterHistObj.ptrRegular->regularChannel[channel].avgHistory[0] = ptrSensorO
1187:Generated_Source\PSoC4/key_touch_Filter.c ****                     ptrSensorObj->raw[channel] = LO16(temp);
1188:Generated_Source\PSoC4/key_touch_Filter.c ****                 #endif /* key_touch_REGULAR_AVERAGE_LEN == key_touch_AVERAGE_FILTER_LEN_4 */
1189:Generated_Source\PSoC4/key_touch_Filter.c ****             #endif /* (key_touch_REGULAR_SENSOR_EN) */
1190:Generated_Source\PSoC4/key_touch_Filter.c ****         }
1191:Generated_Source\PSoC4/key_touch_Filter.c ****         else 
1192:Generated_Source\PSoC4/key_touch_Filter.c ****         {
1193:Generated_Source\PSoC4/key_touch_Filter.c ****             #if (key_touch_PROXIMITY_SENSOR_EN && key_touch_PROX_RC_AVERAGE_FILTER_EN)
1194:Generated_Source\PSoC4/key_touch_Filter.c ****                 #if (key_touch_PROX_AVERAGE_LEN == key_touch_AVERAGE_FILTER_LEN_2)     
ARM GAS  C:\Users\Administrator\AppData\Local\Temp\ccrG5N5m.s 			page 29


1195:Generated_Source\PSoC4/key_touch_Filter.c ****                     temp = ((uint32)ptrSensorObj->raw[channel] + 
1196:Generated_Source\PSoC4/key_touch_Filter.c ****                             (uint32)ptrFilterHistObj.ptrProx->proxChannel[channel].avgHistory[0]) >
1197:Generated_Source\PSoC4/key_touch_Filter.c ****                     ptrFilterHistObj.ptrProx->proxChannel[channel].avgHistory[0] = ptrSensorObj->ra
1198:Generated_Source\PSoC4/key_touch_Filter.c ****                     ptrSensorObj->raw[channel] = LO16(temp);
1199:Generated_Source\PSoC4/key_touch_Filter.c ****                 #else
1200:Generated_Source\PSoC4/key_touch_Filter.c ****                     temp = ((uint32)ptrSensorObj->raw[channel] + 
1201:Generated_Source\PSoC4/key_touch_Filter.c ****                             (uint32)ptrFilterHistObj.ptrProx->proxChannel[channel].avgHistory[0] +
1202:Generated_Source\PSoC4/key_touch_Filter.c ****                             (uint32)ptrFilterHistObj.ptrProx->proxChannel[channel].avgHistory[1u] +
1203:Generated_Source\PSoC4/key_touch_Filter.c ****                             (uint32)ptrFilterHistObj.ptrProx->proxChannel[channel].avgHistory[2u]) 
1204:Generated_Source\PSoC4/key_touch_Filter.c ****                     
1205:Generated_Source\PSoC4/key_touch_Filter.c ****                     ptrFilterHistObj.ptrProx->proxChannel[channel].avgHistory[2u] =
1206:Generated_Source\PSoC4/key_touch_Filter.c ****                     ptrFilterHistObj.ptrProx->proxChannel[channel].avgHistory[1u];
1207:Generated_Source\PSoC4/key_touch_Filter.c ****                     ptrFilterHistObj.ptrProx->proxChannel[channel].avgHistory[1u] =
1208:Generated_Source\PSoC4/key_touch_Filter.c ****                     ptrFilterHistObj.ptrProx->proxChannel[channel].avgHistory[0];
1209:Generated_Source\PSoC4/key_touch_Filter.c ****                     ptrFilterHistObj.ptrProx->proxChannel[channel].avgHistory[0] = ptrSensorObj->ra
1210:Generated_Source\PSoC4/key_touch_Filter.c ****                     ptrSensorObj->raw[channel] = LO16(temp);
1211:Generated_Source\PSoC4/key_touch_Filter.c ****                 #endif /* key_touch_PROX_AVERAGE_LEN == key_touch_AVERAGE_FILTER_LEN_4 */
1212:Generated_Source\PSoC4/key_touch_Filter.c ****             #endif /* (key_touch_PROXIMITY_SENSOR_EN) */
1213:Generated_Source\PSoC4/key_touch_Filter.c ****         }
1214:Generated_Source\PSoC4/key_touch_Filter.c ****     }
1215:Generated_Source\PSoC4/key_touch_Filter.c **** }
1216:Generated_Source\PSoC4/key_touch_Filter.c **** #endif /* (key_touch_REGULAR_RC_AVERAGE_FILTER_EN || key_touch_PROX_RC_AVERAGE_FILTER_EN) */
1217:Generated_Source\PSoC4/key_touch_Filter.c **** 
1218:Generated_Source\PSoC4/key_touch_Filter.c **** 
1219:Generated_Source\PSoC4/key_touch_Filter.c **** #if ((key_touch_REGULAR_RC_FILTER_EN || key_touch_PROX_RC_FILTER_EN))
1220:Generated_Source\PSoC4/key_touch_Filter.c **** /*******************************************************************************
1221:Generated_Source\PSoC4/key_touch_Filter.c **** * Function Name: key_touch_FtRunEnabledFilters
1222:Generated_Source\PSoC4/key_touch_Filter.c **** ****************************************************************************//**
1223:Generated_Source\PSoC4/key_touch_Filter.c **** *
1224:Generated_Source\PSoC4/key_touch_Filter.c **** * \brief    Runs all enabled filters.
1225:Generated_Source\PSoC4/key_touch_Filter.c **** *
1226:Generated_Source\PSoC4/key_touch_Filter.c **** * \details  Runs all enabled filters.
1227:Generated_Source\PSoC4/key_touch_Filter.c **** *
1228:Generated_Source\PSoC4/key_touch_Filter.c **** * \param    widgetId Specifies the ID number of a widget to update the IIR filter history.*
1229:Generated_Source\PSoC4/key_touch_Filter.c **** * \param    sensorId Specifies the ID number of a sensor in the widget to update the IIR 
1230:Generated_Source\PSoC4/key_touch_Filter.c **** *           filter history.
1231:Generated_Source\PSoC4/key_touch_Filter.c **** *
1232:Generated_Source\PSoC4/key_touch_Filter.c **** *******************************************************************************/
1233:Generated_Source\PSoC4/key_touch_Filter.c **** void key_touch_FtRunEnabledFilters(uint32 widgetId, uint32 sensorId)
1234:Generated_Source\PSoC4/key_touch_Filter.c **** {
1235:Generated_Source\PSoC4/key_touch_Filter.c ****     key_touch_FLASH_WD_STRUCT const *ptrWidget = &key_touch_dsFlash.wdgtArray[widgetId];      
1236:Generated_Source\PSoC4/key_touch_Filter.c ****     key_touch_RAM_SNS_STRUCT *ptrSensor = NULL;    
1237:Generated_Source\PSoC4/key_touch_Filter.c ****     key_touch_PTR_FILTER_VARIANT ptrFilterHistObj; 
1238:Generated_Source\PSoC4/key_touch_Filter.c ****               
1239:Generated_Source\PSoC4/key_touch_Filter.c ****     /* Find pointer to specified sensor object */     
1240:Generated_Source\PSoC4/key_touch_Filter.c ****     ptrSensor = ptrWidget->ptr2SnsRam;
1241:Generated_Source\PSoC4/key_touch_Filter.c ****     ptrSensor = &ptrSensor[sensorId];
1242:Generated_Source\PSoC4/key_touch_Filter.c ****     
1243:Generated_Source\PSoC4/key_touch_Filter.c ****     /* Find pointer to specified filter sensor object */     
1244:Generated_Source\PSoC4/key_touch_Filter.c ****     ptrFilterHistObj.ptr = ptrWidget->ptr2FltrHistory;
1245:Generated_Source\PSoC4/key_touch_Filter.c ****     
1246:Generated_Source\PSoC4/key_touch_Filter.c ****     if ((key_touch_WD_TYPE_ENUM)ptrWidget->wdgtType != key_touch_WD_PROXIMITY_E)
1247:Generated_Source\PSoC4/key_touch_Filter.c ****     {
1248:Generated_Source\PSoC4/key_touch_Filter.c ****         #if (key_touch_REGULAR_SENSOR_EN)
1249:Generated_Source\PSoC4/key_touch_Filter.c ****             ptrFilterHistObj.ptrRegular = &ptrFilterHistObj.ptrRegular[sensorId];
1250:Generated_Source\PSoC4/key_touch_Filter.c ****         #endif /* (key_touch_REGULAR_SENSOR_EN) */
1251:Generated_Source\PSoC4/key_touch_Filter.c ****     }
ARM GAS  C:\Users\Administrator\AppData\Local\Temp\ccrG5N5m.s 			page 30


1252:Generated_Source\PSoC4/key_touch_Filter.c ****     else
1253:Generated_Source\PSoC4/key_touch_Filter.c ****     {
1254:Generated_Source\PSoC4/key_touch_Filter.c ****         #if (key_touch_PROXIMITY_SENSOR_EN)
1255:Generated_Source\PSoC4/key_touch_Filter.c ****             ptrFilterHistObj.ptrProx = &ptrFilterHistObj.ptrProx[sensorId];
1256:Generated_Source\PSoC4/key_touch_Filter.c ****         #endif /* (key_touch_PROXIMITY_SENSOR_EN) */
1257:Generated_Source\PSoC4/key_touch_Filter.c ****     }
1258:Generated_Source\PSoC4/key_touch_Filter.c ****     
1259:Generated_Source\PSoC4/key_touch_Filter.c ****     key_touch_FtRunEnabledFiltersInternal(ptrFilterHistObj, ptrSensor, (uint32)ptrWidget->wdgtType)
1260:Generated_Source\PSoC4/key_touch_Filter.c **** }
1261:Generated_Source\PSoC4/key_touch_Filter.c **** 
1262:Generated_Source\PSoC4/key_touch_Filter.c **** 
1263:Generated_Source\PSoC4/key_touch_Filter.c **** /*******************************************************************************
1264:Generated_Source\PSoC4/key_touch_Filter.c **** * Function Name: key_touch_FtRunEnabledFiltersInternal
1265:Generated_Source\PSoC4/key_touch_Filter.c **** ****************************************************************************//**
1266:Generated_Source\PSoC4/key_touch_Filter.c **** *
1267:Generated_Source\PSoC4/key_touch_Filter.c **** * \brief    Runs all enabled filters.
1268:Generated_Source\PSoC4/key_touch_Filter.c **** *
1269:Generated_Source\PSoC4/key_touch_Filter.c **** * \details  Runs all enabled filters.
1270:Generated_Source\PSoC4/key_touch_Filter.c **** *
1271:Generated_Source\PSoC4/key_touch_Filter.c **** * \param    ptrFilterHistObj The pointer to the filter RAM object of the sensor.
1272:Generated_Source\PSoC4/key_touch_Filter.c **** * \param    ptrSensorObj     The pointer to the sensor RAM object of the sensor.
1273:Generated_Source\PSoC4/key_touch_Filter.c **** * \param    wdType           Specifies the type of a widget.
1274:Generated_Source\PSoC4/key_touch_Filter.c **** *
1275:Generated_Source\PSoC4/key_touch_Filter.c **** *******************************************************************************/
1276:Generated_Source\PSoC4/key_touch_Filter.c **** void key_touch_FtRunEnabledFiltersInternal(key_touch_PTR_FILTER_VARIANT ptrFilterHistObj, 
1277:Generated_Source\PSoC4/key_touch_Filter.c ****                                                   key_touch_RAM_SNS_STRUCT *ptrSensorObj, uint32 wd
1278:Generated_Source\PSoC4/key_touch_Filter.c **** {
1279:Generated_Source\PSoC4/key_touch_Filter.c ****     #if (key_touch_REGULAR_RC_MEDIAN_FILTER_EN || key_touch_PROX_RC_MEDIAN_FILTER_EN)
1280:Generated_Source\PSoC4/key_touch_Filter.c ****         key_touch_RunMedianInternal(ptrFilterHistObj, ptrSensorObj, wdType);
1281:Generated_Source\PSoC4/key_touch_Filter.c ****     #endif /* (key_touch_REGULAR_RC_MEDIAN_FILTER_EN || key_touch_PROX_RC_MEDIAN_FILTER_EN) */
1282:Generated_Source\PSoC4/key_touch_Filter.c ****     
1283:Generated_Source\PSoC4/key_touch_Filter.c ****     #if (key_touch_REGULAR_RC_IIR_FILTER_EN || key_touch_PROX_RC_IIR_FILTER_EN)    
1284:Generated_Source\PSoC4/key_touch_Filter.c ****         key_touch_RunIIRInternal(ptrFilterHistObj, ptrSensorObj, wdType);
1285:Generated_Source\PSoC4/key_touch_Filter.c ****     #endif /* (key_touch_REGULAR_RC_IIR_FILTER_EN || key_touch_PROX_RC_IIR_FILTER_EN) */ 
1286:Generated_Source\PSoC4/key_touch_Filter.c **** 
1287:Generated_Source\PSoC4/key_touch_Filter.c ****     #if (key_touch_REGULAR_RC_AVERAGE_FILTER_EN || key_touch_PROX_RC_AVERAGE_FILTER_EN)
1288:Generated_Source\PSoC4/key_touch_Filter.c ****         key_touch_RunAverageInternal(ptrFilterHistObj, ptrSensorObj, wdType);
1289:Generated_Source\PSoC4/key_touch_Filter.c ****     #endif /* (key_touch_REGULAR_RC_AVERAGE_FILTER_EN || key_touch_PROX_RC_AVERAGE_FILTER_EN) */   
1290:Generated_Source\PSoC4/key_touch_Filter.c **** }
1291:Generated_Source\PSoC4/key_touch_Filter.c **** #endif /* (key_touch_REGULAR_RC_FILTER_EN || key_touch_PROX_RC_FILTER_EN) */
1292:Generated_Source\PSoC4/key_touch_Filter.c **** 
1293:Generated_Source\PSoC4/key_touch_Filter.c **** 
1294:Generated_Source\PSoC4/key_touch_Filter.c **** #if (key_touch_CSD_AUTOTUNE & key_touch_CSD_SS_TH_EN)
1295:Generated_Source\PSoC4/key_touch_Filter.c **** /*******************************************************************************
1296:Generated_Source\PSoC4/key_touch_Filter.c **** * Function Name: key_touch_RunNoiseEnvelope
1297:Generated_Source\PSoC4/key_touch_Filter.c **** ****************************************************************************//**
1298:Generated_Source\PSoC4/key_touch_Filter.c **** *
1299:Generated_Source\PSoC4/key_touch_Filter.c **** * \brief    Executes the noise envelope  filter algorithm on a sensor indicated by 
1300:Generated_Source\PSoC4/key_touch_Filter.c **** *           an input parameter to measure the pk-to-pk noise in the sensor raw count.
1301:Generated_Source\PSoC4/key_touch_Filter.c **** *
1302:Generated_Source\PSoC4/key_touch_Filter.c **** * \details  Executes the noise envelope  filter algorithm on a sensor indicated by 
1303:Generated_Source\PSoC4/key_touch_Filter.c **** *           an input parameter to measure the pk-to-pk noise in the sensor raw count.
1304:Generated_Source\PSoC4/key_touch_Filter.c **** *
1305:Generated_Source\PSoC4/key_touch_Filter.c **** * \param    widgetId Specifies the ID number of the widget.
1306:Generated_Source\PSoC4/key_touch_Filter.c **** * \param    sensorId Specifies the ID number of the sensor in the widget.
1307:Generated_Source\PSoC4/key_touch_Filter.c **** *
1308:Generated_Source\PSoC4/key_touch_Filter.c **** *******************************************************************************/
ARM GAS  C:\Users\Administrator\AppData\Local\Temp\ccrG5N5m.s 			page 31


1309:Generated_Source\PSoC4/key_touch_Filter.c **** void key_touch_RunNoiseEnvelope(uint32 widgetId, uint32 sensorId)
1310:Generated_Source\PSoC4/key_touch_Filter.c **** {
 372              		.loc 1 1310 0
 373              		.cfi_startproc
 374              	.LVL59:
 375 0000 38B5     		push	{r3, r4, r5, lr}
 376              		.cfi_def_cfa_offset 16
 377              		.cfi_offset 3, -16
 378              		.cfi_offset 4, -12
 379              		.cfi_offset 5, -8
 380              		.cfi_offset 14, -4
 381              	.LVL60:
1311:Generated_Source\PSoC4/key_touch_Filter.c ****     key_touch_FLASH_WD_STRUCT const *ptrWidget = &key_touch_dsFlash.wdgtArray[widgetId];
1312:Generated_Source\PSoC4/key_touch_Filter.c ****     key_touch_RAM_WD_BASE_STRUCT *ptrWidgetRam = ptrWidget->ptr2WdgtRam;
 382              		.loc 1 1312 0
 383 0002 4001     		lsl	r0, r0, #5
 384              	.LVL61:
 385 0004 084B     		ldr	r3, .L27
 386 0006 1818     		add	r0, r3, r0
 387              	.LVL62:
 388 0008 4468     		ldr	r4, [r0, #4]
 389              	.LVL63:
1313:Generated_Source\PSoC4/key_touch_Filter.c ****     key_touch_RAM_SNS_STRUCT *ptrSensor = NULL;    
1314:Generated_Source\PSoC4/key_touch_Filter.c ****     SMARTSENSE_CSD_NOISE_ENVELOPE_STRUCT *ptrNoiseEnvelope = NULL;
1315:Generated_Source\PSoC4/key_touch_Filter.c **** 
1316:Generated_Source\PSoC4/key_touch_Filter.c ****     /* Find pointer to specified sensor object */
1317:Generated_Source\PSoC4/key_touch_Filter.c ****     ptrSensor = ptrWidget->ptr2SnsRam;
 390              		.loc 1 1317 0
 391 000a 8568     		ldr	r5, [r0, #8]
 392              	.LVL64:
1318:Generated_Source\PSoC4/key_touch_Filter.c ****     ptrSensor = &ptrSensor[sensorId];
 393              		.loc 1 1318 0
 394 000c 8B00     		lsl	r3, r1, #2
 395 000e 5B18     		add	r3, r3, r1
 396 0010 5B00     		lsl	r3, r3, #1
 397              	.LVL65:
1319:Generated_Source\PSoC4/key_touch_Filter.c ****     
1320:Generated_Source\PSoC4/key_touch_Filter.c ****     /* Find pointer to specified filter sensor object */
1321:Generated_Source\PSoC4/key_touch_Filter.c ****     ptrNoiseEnvelope = ptrWidget->ptr2NoiseEnvlp;
 398              		.loc 1 1321 0
 399 0012 C269     		ldr	r2, [r0, #28]
 400              	.LVL66:
1322:Generated_Source\PSoC4/key_touch_Filter.c ****     ptrNoiseEnvelope = &ptrNoiseEnvelope[sensorId];    
 401              		.loc 1 1322 0
 402 0014 4800     		lsl	r0, r1, #1
 403              	.LVL67:
 404 0016 4118     		add	r1, r0, r1
 405              	.LVL68:
 406 0018 8900     		lsl	r1, r1, #2
 407 001a 5218     		add	r2, r2, r1
 408              	.LVL69:
1323:Generated_Source\PSoC4/key_touch_Filter.c **** 
1324:Generated_Source\PSoC4/key_touch_Filter.c ****     SmartSense_RunNoiseEnvelope(ptrSensor->raw[0u], ptrWidgetRam->sigPFC, ptrNoiseEnvelope);
 409              		.loc 1 1324 0
 410 001c E85A     		ldrh	r0, [r5, r3]
 411 001e 218A     		ldrh	r1, [r4, #16]
 412 0020 FFF7FEFF 		bl	SmartSense_RunNoiseEnvelope
ARM GAS  C:\Users\Administrator\AppData\Local\Temp\ccrG5N5m.s 			page 32


 413              	.LVL70:
1325:Generated_Source\PSoC4/key_touch_Filter.c **** }
 414              		.loc 1 1325 0
 415              		@ sp needed
 416              	.LVL71:
 417              	.LVL72:
 418 0024 38BD     		pop	{r3, r4, r5, pc}
 419              	.L28:
 420 0026 C046     		.align	2
 421              	.L27:
 422 0028 00000000 		.word	key_touch_dsFlash
 423              		.cfi_endproc
 424              	.LFE11:
 425              		.size	key_touch_RunNoiseEnvelope, .-key_touch_RunNoiseEnvelope
 426              		.section	.text.key_touch_InitializeNoiseEnvelope,"ax",%progbits
 427              		.align	2
 428              		.global	key_touch_InitializeNoiseEnvelope
 429              		.code	16
 430              		.thumb_func
 431              		.type	key_touch_InitializeNoiseEnvelope, %function
 432              	key_touch_InitializeNoiseEnvelope:
 433              	.LFB12:
1326:Generated_Source\PSoC4/key_touch_Filter.c **** 
1327:Generated_Source\PSoC4/key_touch_Filter.c **** 
1328:Generated_Source\PSoC4/key_touch_Filter.c **** /*******************************************************************************
1329:Generated_Source\PSoC4/key_touch_Filter.c **** * Function Name: key_touch_InitializeNoiseEnvelope
1330:Generated_Source\PSoC4/key_touch_Filter.c **** ****************************************************************************//**
1331:Generated_Source\PSoC4/key_touch_Filter.c **** *
1332:Generated_Source\PSoC4/key_touch_Filter.c **** * \brief    Initializes the noise-envelope filter
1333:Generated_Source\PSoC4/key_touch_Filter.c **** *
1334:Generated_Source\PSoC4/key_touch_Filter.c **** * \details  Initializes the noise-envelope filter
1335:Generated_Source\PSoC4/key_touch_Filter.c **** *
1336:Generated_Source\PSoC4/key_touch_Filter.c **** * \param    widgetId Specifies the ID number of the widget.
1337:Generated_Source\PSoC4/key_touch_Filter.c **** * \param    sensorId Specifies the ID number of the sensor in the widget.
1338:Generated_Source\PSoC4/key_touch_Filter.c **** *
1339:Generated_Source\PSoC4/key_touch_Filter.c **** *******************************************************************************/
1340:Generated_Source\PSoC4/key_touch_Filter.c **** void key_touch_InitializeNoiseEnvelope(uint32 widgetId, uint32 sensorId)
1341:Generated_Source\PSoC4/key_touch_Filter.c **** {
 434              		.loc 1 1341 0
 435              		.cfi_startproc
 436              	.LVL73:
 437 0000 38B5     		push	{r3, r4, r5, lr}
 438              		.cfi_def_cfa_offset 16
 439              		.cfi_offset 3, -16
 440              		.cfi_offset 4, -12
 441              		.cfi_offset 5, -8
 442              		.cfi_offset 14, -4
 443              	.LVL74:
1342:Generated_Source\PSoC4/key_touch_Filter.c ****     key_touch_FLASH_WD_STRUCT const *ptrWidget = &key_touch_dsFlash.wdgtArray[widgetId];
1343:Generated_Source\PSoC4/key_touch_Filter.c ****     key_touch_RAM_WD_BASE_STRUCT *ptrWidgetRam = ptrWidget->ptr2WdgtRam;
 444              		.loc 1 1343 0
 445 0002 4001     		lsl	r0, r0, #5
 446              	.LVL75:
 447 0004 084B     		ldr	r3, .L30
 448 0006 1818     		add	r0, r3, r0
 449              	.LVL76:
 450 0008 4468     		ldr	r4, [r0, #4]
ARM GAS  C:\Users\Administrator\AppData\Local\Temp\ccrG5N5m.s 			page 33


 451              	.LVL77:
1344:Generated_Source\PSoC4/key_touch_Filter.c ****     key_touch_RAM_SNS_STRUCT *ptrSensor = NULL;    
1345:Generated_Source\PSoC4/key_touch_Filter.c ****     SMARTSENSE_CSD_NOISE_ENVELOPE_STRUCT *ptrNoiseEnvelope = NULL;
1346:Generated_Source\PSoC4/key_touch_Filter.c **** 
1347:Generated_Source\PSoC4/key_touch_Filter.c ****     /* Find pointer to specified sensor object */
1348:Generated_Source\PSoC4/key_touch_Filter.c ****     ptrSensor = ptrWidget->ptr2SnsRam;
 452              		.loc 1 1348 0
 453 000a 8568     		ldr	r5, [r0, #8]
 454              	.LVL78:
1349:Generated_Source\PSoC4/key_touch_Filter.c ****     ptrSensor = &ptrSensor[sensorId];
 455              		.loc 1 1349 0
 456 000c 8B00     		lsl	r3, r1, #2
 457 000e 5B18     		add	r3, r3, r1
 458 0010 5B00     		lsl	r3, r3, #1
 459              	.LVL79:
1350:Generated_Source\PSoC4/key_touch_Filter.c ****     
1351:Generated_Source\PSoC4/key_touch_Filter.c ****     /* Find pointer to specified filter sensor object */
1352:Generated_Source\PSoC4/key_touch_Filter.c ****     ptrNoiseEnvelope = ptrWidget->ptr2NoiseEnvlp;
 460              		.loc 1 1352 0
 461 0012 C269     		ldr	r2, [r0, #28]
 462              	.LVL80:
1353:Generated_Source\PSoC4/key_touch_Filter.c ****     ptrNoiseEnvelope = &ptrNoiseEnvelope[sensorId];    
 463              		.loc 1 1353 0
 464 0014 4800     		lsl	r0, r1, #1
 465              	.LVL81:
 466 0016 4118     		add	r1, r0, r1
 467              	.LVL82:
 468 0018 8900     		lsl	r1, r1, #2
 469 001a 5218     		add	r2, r2, r1
 470              	.LVL83:
1354:Generated_Source\PSoC4/key_touch_Filter.c **** 
1355:Generated_Source\PSoC4/key_touch_Filter.c ****     SmartSense_InitializeNoiseEnvelope(ptrSensor->raw[0u], ptrWidgetRam->sigPFC, ptrNoiseEnvelope);
 471              		.loc 1 1355 0
 472 001c E85A     		ldrh	r0, [r5, r3]
 473 001e 218A     		ldrh	r1, [r4, #16]
 474 0020 FFF7FEFF 		bl	SmartSense_InitializeNoiseEnvelope
 475              	.LVL84:
1356:Generated_Source\PSoC4/key_touch_Filter.c **** }
 476              		.loc 1 1356 0
 477              		@ sp needed
 478              	.LVL85:
 479              	.LVL86:
 480 0024 38BD     		pop	{r3, r4, r5, pc}
 481              	.L31:
 482 0026 C046     		.align	2
 483              	.L30:
 484 0028 00000000 		.word	key_touch_dsFlash
 485              		.cfi_endproc
 486              	.LFE12:
 487              		.size	key_touch_InitializeNoiseEnvelope, .-key_touch_InitializeNoiseEnvelope
 488              		.section	.text.key_touch_FtIIR1stOrder,"ax",%progbits
 489              		.align	2
 490              		.global	key_touch_FtIIR1stOrder
 491              		.code	16
 492              		.thumb_func
 493              		.type	key_touch_FtIIR1stOrder, %function
 494              	key_touch_FtIIR1stOrder:
ARM GAS  C:\Users\Administrator\AppData\Local\Temp\ccrG5N5m.s 			page 34


 495              	.LFB13:
1357:Generated_Source\PSoC4/key_touch_Filter.c **** #endif /* #if key_touch_CSD_AUTOTUNE & key_touch_CSD_SS_TH_EN */
1358:Generated_Source\PSoC4/key_touch_Filter.c **** 
1359:Generated_Source\PSoC4/key_touch_Filter.c **** 
1360:Generated_Source\PSoC4/key_touch_Filter.c **** #if (key_touch_POS_MEDIAN_FILTER_EN || key_touch_REGULAR_RC_MEDIAN_FILTER_EN || key_touch_PROX_RC_M
1361:Generated_Source\PSoC4/key_touch_Filter.c **** /*******************************************************************************
1362:Generated_Source\PSoC4/key_touch_Filter.c **** * Function Name: key_touch_FtMedian
1363:Generated_Source\PSoC4/key_touch_Filter.c **** ****************************************************************************//**
1364:Generated_Source\PSoC4/key_touch_Filter.c **** *
1365:Generated_Source\PSoC4/key_touch_Filter.c **** * \brief    Return the median value from the three passed arguments.
1366:Generated_Source\PSoC4/key_touch_Filter.c **** *
1367:Generated_Source\PSoC4/key_touch_Filter.c **** * \details  Return the median value from the three passed arguments.
1368:Generated_Source\PSoC4/key_touch_Filter.c **** *
1369:Generated_Source\PSoC4/key_touch_Filter.c **** * \param    x1 The first value to be compared.
1370:Generated_Source\PSoC4/key_touch_Filter.c **** * \param    x2 The second value to be compared.
1371:Generated_Source\PSoC4/key_touch_Filter.c **** * \param    x3 The third value to be compared.
1372:Generated_Source\PSoC4/key_touch_Filter.c **** *
1373:Generated_Source\PSoC4/key_touch_Filter.c **** * \return   Returns the median value of input arguments.
1374:Generated_Source\PSoC4/key_touch_Filter.c **** *
1375:Generated_Source\PSoC4/key_touch_Filter.c **** *******************************************************************************/
1376:Generated_Source\PSoC4/key_touch_Filter.c **** uint32 key_touch_FtMedian(uint32 x1, uint32 x2, uint32 x3)
1377:Generated_Source\PSoC4/key_touch_Filter.c **** {
1378:Generated_Source\PSoC4/key_touch_Filter.c ****     uint32 tmp;
1379:Generated_Source\PSoC4/key_touch_Filter.c **** 
1380:Generated_Source\PSoC4/key_touch_Filter.c ****     if (x1 > x2)
1381:Generated_Source\PSoC4/key_touch_Filter.c ****     {
1382:Generated_Source\PSoC4/key_touch_Filter.c ****         tmp = x2;
1383:Generated_Source\PSoC4/key_touch_Filter.c ****         x2 = x1;
1384:Generated_Source\PSoC4/key_touch_Filter.c ****         x1 = tmp;
1385:Generated_Source\PSoC4/key_touch_Filter.c ****     }
1386:Generated_Source\PSoC4/key_touch_Filter.c **** 
1387:Generated_Source\PSoC4/key_touch_Filter.c ****     if (x2 > x3)
1388:Generated_Source\PSoC4/key_touch_Filter.c ****     {
1389:Generated_Source\PSoC4/key_touch_Filter.c ****         x2 = x3;
1390:Generated_Source\PSoC4/key_touch_Filter.c ****     }
1391:Generated_Source\PSoC4/key_touch_Filter.c **** 
1392:Generated_Source\PSoC4/key_touch_Filter.c ****     return ((x1 > x2) ? x1 : x2);
1393:Generated_Source\PSoC4/key_touch_Filter.c **** }
1394:Generated_Source\PSoC4/key_touch_Filter.c **** #endif /*key_touch_POS_MEDIAN_FILTER_EN || key_touch_REGULAR_RC_MEDIAN_FILTER_EN || key_touch_PROX_
1395:Generated_Source\PSoC4/key_touch_Filter.c **** 
1396:Generated_Source\PSoC4/key_touch_Filter.c **** 
1397:Generated_Source\PSoC4/key_touch_Filter.c **** /*******************************************************************************
1398:Generated_Source\PSoC4/key_touch_Filter.c **** * Function Name: key_touch_FtIIR1stOrder
1399:Generated_Source\PSoC4/key_touch_Filter.c **** ****************************************************************************//**
1400:Generated_Source\PSoC4/key_touch_Filter.c **** *
1401:Generated_Source\PSoC4/key_touch_Filter.c **** * \brief    Return the filtered data by the IIR 1-st order algorithm
1402:Generated_Source\PSoC4/key_touch_Filter.c **** *
1403:Generated_Source\PSoC4/key_touch_Filter.c **** * \details  Return the filtered data by the IIR 1-st order algorithm
1404:Generated_Source\PSoC4/key_touch_Filter.c **** *
1405:Generated_Source\PSoC4/key_touch_Filter.c **** * \param    input      The data to be filtered.
1406:Generated_Source\PSoC4/key_touch_Filter.c **** * \param    prevOutput The previous filtered data.
1407:Generated_Source\PSoC4/key_touch_Filter.c **** * \param    n          The IIR filter coefficient (n/256).
1408:Generated_Source\PSoC4/key_touch_Filter.c **** * \param    shift      The parameter is used to shift input data to have free LSB 
1409:Generated_Source\PSoC4/key_touch_Filter.c **** *                       bits for a fraction storage of the filter output calculation.
1410:Generated_Source\PSoC4/key_touch_Filter.c **** *
1411:Generated_Source\PSoC4/key_touch_Filter.c **** * \return   Returns the filtered data.
1412:Generated_Source\PSoC4/key_touch_Filter.c **** *
ARM GAS  C:\Users\Administrator\AppData\Local\Temp\ccrG5N5m.s 			page 35


1413:Generated_Source\PSoC4/key_touch_Filter.c **** *******************************************************************************/
1414:Generated_Source\PSoC4/key_touch_Filter.c **** uint32 key_touch_FtIIR1stOrder(uint32 input, uint32 prevOutput, uint32 n, uint32 shift)
1415:Generated_Source\PSoC4/key_touch_Filter.c **** {   
 496              		.loc 1 1415 0
 497              		.cfi_startproc
 498              	.LVL87:
1416:Generated_Source\PSoC4/key_touch_Filter.c ****     uint32 output;
1417:Generated_Source\PSoC4/key_touch_Filter.c ****    
1418:Generated_Source\PSoC4/key_touch_Filter.c ****     /*
1419:Generated_Source\PSoC4/key_touch_Filter.c ****     * n - IIR filter coefficient (n/256)
1420:Generated_Source\PSoC4/key_touch_Filter.c ****     * shift - Used to shift input data to have free LSB bits
1421:Generated_Source\PSoC4/key_touch_Filter.c ****     * for fraction storage of filter output calculation
1422:Generated_Source\PSoC4/key_touch_Filter.c ****     */
1423:Generated_Source\PSoC4/key_touch_Filter.c ****     output = ((n * (input << shift)) + ((key_touch_IIR_COEFFICIENT_K - n) * prevOutput)) >> 8u;
 499              		.loc 1 1423 0
 500 0000 9840     		lsl	r0, r0, r3
 501              	.LVL88:
 502 0002 031C     		mov	r3, r0
 503              	.LVL89:
 504 0004 5343     		mul	r3, r2
 505 0006 8020     		mov	r0, #128
 506 0008 4000     		lsl	r0, r0, #1
 507 000a 801A     		sub	r0, r0, r2
 508 000c 4143     		mul	r1, r0
 509              	.LVL90:
 510 000e 5818     		add	r0, r3, r1
 511 0010 000A     		lsr	r0, r0, #8
 512              	.LVL91:
1424:Generated_Source\PSoC4/key_touch_Filter.c ****     
1425:Generated_Source\PSoC4/key_touch_Filter.c ****     /* Shift operation of output will be done in upper level API if needed */
1426:Generated_Source\PSoC4/key_touch_Filter.c ****     return output;
1427:Generated_Source\PSoC4/key_touch_Filter.c **** }
 513              		.loc 1 1427 0
 514              		@ sp needed
 515 0012 7047     		bx	lr
 516              		.cfi_endproc
 517              	.LFE13:
 518              		.size	key_touch_FtIIR1stOrder, .-key_touch_FtIIR1stOrder
 519              		.section	.text.key_touch_FtUpdateBaseline,"ax",%progbits
 520              		.align	2
 521              		.global	key_touch_FtUpdateBaseline
 522              		.code	16
 523              		.thumb_func
 524              		.type	key_touch_FtUpdateBaseline, %function
 525              	key_touch_FtUpdateBaseline:
 526              	.LFB5:
 325:Generated_Source\PSoC4/key_touch_Filter.c ****     uint32 sign;
 527              		.loc 1 325 0
 528              		.cfi_startproc
 529              	.LVL92:
 530 0000 F0B5     		push	{r4, r5, r6, r7, lr}
 531              		.cfi_def_cfa_offset 20
 532              		.cfi_offset 4, -20
 533              		.cfi_offset 5, -16
 534              		.cfi_offset 6, -12
 535              		.cfi_offset 7, -8
 536              		.cfi_offset 14, -4
ARM GAS  C:\Users\Administrator\AppData\Local\Temp\ccrG5N5m.s 			page 36


 537 0002 83B0     		sub	sp, sp, #12
 538              		.cfi_def_cfa_offset 32
 539 0004 071C     		mov	r7, r0
 540 0006 0E1C     		mov	r6, r1
 541 0008 0192     		str	r2, [sp, #4]
 542              	.LVL93:
 336:Generated_Source\PSoC4/key_touch_Filter.c ****     {               
 543              		.loc 1 336 0
 544 000a 0123     		mov	r3, #1
 545 000c 3BE0     		b	.L34
 546              	.LVL94:
 547              	.L41:
 348:Generated_Source\PSoC4/key_touch_Filter.c ****         {
 548              		.loc 1 348 0
 549 000e 6300     		lsl	r3, r4, #1
 550 0010 985B     		ldrh	r0, [r3, r6]
 551 0012 F318     		add	r3, r6, r3
 552 0014 5988     		ldrh	r1, [r3, #2]
 553 0016 8842     		cmp	r0, r1
 554 0018 05D3     		bcc	.L35
 350:Generated_Source\PSoC4/key_touch_Filter.c ****             sign = 1u;
 555              		.loc 1 350 0
 556 001a 431A     		sub	r3, r0, r1
 557              	.LVL95:
 352:Generated_Source\PSoC4/key_touch_Filter.c ****         }
 558              		.loc 1 352 0
 559 001c 3219     		add	r2, r6, r4
 560 001e 0025     		mov	r5, #0
 561 0020 1572     		strb	r5, [r2, #8]
 351:Generated_Source\PSoC4/key_touch_Filter.c ****             ptrSensor->negBslnRstCnt[channel] = 0u;
 562              		.loc 1 351 0
 563 0022 0122     		mov	r2, #1
 564 0024 01E0     		b	.L36
 565              	.LVL96:
 566              	.L35:
 356:Generated_Source\PSoC4/key_touch_Filter.c ****             sign = 0u;
 567              		.loc 1 356 0
 568 0026 0B1A     		sub	r3, r1, r0
 569              	.LVL97:
 357:Generated_Source\PSoC4/key_touch_Filter.c ****         }     
 570              		.loc 1 357 0
 571 0028 0022     		mov	r2, #0
 572              	.LVL98:
 573              	.L36:
 361:Generated_Source\PSoC4/key_touch_Filter.c ****         {
 574              		.loc 1 361 0
 575 002a 002A     		cmp	r2, #0
 576 002c 11D1     		bne	.L37
 361:Generated_Source\PSoC4/key_touch_Filter.c ****         {
 577              		.loc 1 361 0 is_stmt 0 discriminator 1
 578 002e 7D79     		ldrb	r5, [r7, #5]
 579 0030 9D42     		cmp	r5, r3
 580 0032 0ED2     		bcs	.L37
 363:Generated_Source\PSoC4/key_touch_Filter.c ****             {                
 581              		.loc 1 363 0 is_stmt 1
 582 0034 3319     		add	r3, r6, r4
 583              	.LVL99:
ARM GAS  C:\Users\Administrator\AppData\Local\Temp\ccrG5N5m.s 			page 37


 584 0036 1B7A     		ldrb	r3, [r3, #8]
 585 0038 3A7A     		ldrb	r2, [r7, #8]
 586              	.LVL100:
 587 003a 9342     		cmp	r3, r2
 588 003c 05D3     		bcc	.L38
 365:Generated_Source\PSoC4/key_touch_Filter.c ****             }
 589              		.loc 1 365 0
 590 003e 301C     		mov	r0, r6
 591 0040 0199     		ldr	r1, [sp, #4]
 592 0042 221C     		mov	r2, r4
 593 0044 FFF7FEFF 		bl	key_touch_FtInitializeBaselineChannel
 594              	.LVL101:
 595 0048 1CE0     		b	.L39
 596              	.L38:
 369:Generated_Source\PSoC4/key_touch_Filter.c ****             }
 597              		.loc 1 369 0
 598 004a 3219     		add	r2, r6, r4
 599 004c 0133     		add	r3, r3, #1
 600 004e 1372     		strb	r3, [r2, #8]
 601 0050 18E0     		b	.L39
 602              	.LVL102:
 603              	.L37:
 376:Generated_Source\PSoC4/key_touch_Filter.c ****                     ((difference < (uint32) ptrWidgetRam->nNoiseTh) && (sign == 0u)))
 604              		.loc 1 376 0
 605 0052 3D79     		ldrb	r5, [r7, #4]
 606 0054 9D42     		cmp	r5, r3
 607 0056 04D2     		bcs	.L40
 377:Generated_Source\PSoC4/key_touch_Filter.c ****                 {
 608              		.loc 1 377 0 discriminator 1
 609 0058 7D79     		ldrb	r5, [r7, #5]
 376:Generated_Source\PSoC4/key_touch_Filter.c ****                     ((difference < (uint32) ptrWidgetRam->nNoiseTh) && (sign == 0u)))
 610              		.loc 1 376 0 discriminator 1
 611 005a 9D42     		cmp	r5, r3
 612 005c 12D9     		bls	.L39
 377:Generated_Source\PSoC4/key_touch_Filter.c ****                 {
 613              		.loc 1 377 0
 614 005e 002A     		cmp	r2, #0
 615 0060 10D1     		bne	.L39
 616              	.L40:
 383:Generated_Source\PSoC4/key_touch_Filter.c ****                 {
 617              		.loc 1 383 0
 618 0062 6B46     		mov	r3, sp
 619              	.LVL103:
 620 0064 1B79     		ldrb	r3, [r3, #4]
 621 0066 062B     		cmp	r3, #6
 622 0068 0CD0     		beq	.L39
 387:Generated_Source\PSoC4/key_touch_Filter.c ****                             history |= ptrSensor->bslnExt[channel];
 623              		.loc 1 387 0
 624 006a 0902     		lsl	r1, r1, #8
 625              	.LVL104:
 388:Generated_Source\PSoC4/key_touch_Filter.c ****                         #else
 626              		.loc 1 388 0
 627 006c 3519     		add	r5, r6, r4
 628 006e 2B79     		ldrb	r3, [r5, #4]
 629 0070 1943     		orr	r1, r3
 630              	.LVL105:
 393:Generated_Source\PSoC4/key_touch_Filter.c ****                                         (uint32)ptrSensor->raw[channel],
ARM GAS  C:\Users\Administrator\AppData\Local\Temp\ccrG5N5m.s 			page 38


 631              		.loc 1 393 0
 632 0072 0122     		mov	r2, #1
 633              	.LVL106:
 634 0074 0823     		mov	r3, #8
 635 0076 FFF7FEFF 		bl	key_touch_FtIIR1stOrder
 636              	.LVL107:
 400:Generated_Source\PSoC4/key_touch_Filter.c ****                             ptrSensor->bslnExt[channel] = LO8(history);
 637              		.loc 1 400 0
 638 007a 020A     		lsr	r2, r0, #8
 639 007c 6300     		lsl	r3, r4, #1
 640 007e F318     		add	r3, r6, r3
 641 0080 5A80     		strh	r2, [r3, #2]
 401:Generated_Source\PSoC4/key_touch_Filter.c ****                         #else
 642              		.loc 1 401 0
 643 0082 2871     		strb	r0, [r5, #4]
 644              	.LVL108:
 645              	.L39:
 646 0084 231C     		mov	r3, r4
 647              	.LVL109:
 648              	.L34:
 336:Generated_Source\PSoC4/key_touch_Filter.c ****     {               
 649              		.loc 1 336 0 discriminator 1
 650 0086 5C1E     		sub	r4, r3, #1
 651              	.LVL110:
 652 0088 002B     		cmp	r3, #0
 653 008a C0D1     		bne	.L41
 449:Generated_Source\PSoC4/key_touch_Filter.c **** 
 654              		.loc 1 449 0
 655 008c 0020     		mov	r0, #0
 656 008e 03B0     		add	sp, sp, #12
 657              		@ sp needed
 658              	.LVL111:
 659              	.LVL112:
 660              	.LVL113:
 661 0090 F0BD     		pop	{r4, r5, r6, r7, pc}
 662              		.cfi_endproc
 663              	.LFE5:
 664              		.size	key_touch_FtUpdateBaseline, .-key_touch_FtUpdateBaseline
 665 0092 C046     		.section	.text.key_touch_UpdateSensorBaseline,"ax",%progbits
 666              		.align	2
 667              		.global	key_touch_UpdateSensorBaseline
 668              		.code	16
 669              		.thumb_func
 670              		.type	key_touch_UpdateSensorBaseline, %function
 671              	key_touch_UpdateSensorBaseline:
 672              	.LFB4:
 267:Generated_Source\PSoC4/key_touch_Filter.c ****     uint32 result = CYRET_SUCCESS;
 673              		.loc 1 267 0
 674              		.cfi_startproc
 675              	.LVL114:
 676 0000 08B5     		push	{r3, lr}
 677              		.cfi_def_cfa_offset 8
 678              		.cfi_offset 3, -8
 679              		.cfi_offset 14, -4
 680              	.LVL115:
 272:Generated_Source\PSoC4/key_touch_Filter.c **** 
 681              		.loc 1 272 0
ARM GAS  C:\Users\Administrator\AppData\Local\Temp\ccrG5N5m.s 			page 39


 682 0002 4001     		lsl	r0, r0, #5
 683              	.LVL116:
 684 0004 064B     		ldr	r3, .L43
 685 0006 1B18     		add	r3, r3, r0
 686              	.LVL117:
 687 0008 5868     		ldr	r0, [r3, #4]
 688              	.LVL118:
 276:Generated_Source\PSoC4/key_touch_Filter.c ****     result = key_touch_FtUpdateBaseline(ptrWidgetRam, ptrSensor, (uint32)ptrWidget->wdgtType);
 689              		.loc 1 276 0
 690 000a 8A00     		lsl	r2, r1, #2
 691 000c 5118     		add	r1, r2, r1
 692              	.LVL119:
 693 000e 4900     		lsl	r1, r1, #1
 694 0010 9A68     		ldr	r2, [r3, #8]
 695 0012 9446     		mov	ip, r2
 696 0014 6144     		add	r1, r1, ip
 697              	.LVL120:
 277:Generated_Source\PSoC4/key_touch_Filter.c ****     
 698              		.loc 1 277 0
 699 0016 1A7E     		ldrb	r2, [r3, #24]
 700 0018 FFF7FEFF 		bl	key_touch_FtUpdateBaseline
 701              	.LVL121:
 288:Generated_Source\PSoC4/key_touch_Filter.c **** 
 702              		.loc 1 288 0
 703              		@ sp needed
 704 001c 08BD     		pop	{r3, pc}
 705              	.L44:
 706 001e C046     		.align	2
 707              	.L43:
 708 0020 00000000 		.word	key_touch_dsFlash
 709              		.cfi_endproc
 710              	.LFE4:
 711              		.size	key_touch_UpdateSensorBaseline, .-key_touch_UpdateSensorBaseline
 712              		.section	.text.key_touch_UpdateWidgetBaseline,"ax",%progbits
 713              		.align	2
 714              		.global	key_touch_UpdateWidgetBaseline
 715              		.code	16
 716              		.thumb_func
 717              		.type	key_touch_UpdateWidgetBaseline, %function
 718              	key_touch_UpdateWidgetBaseline:
 719              	.LFB3:
 210:Generated_Source\PSoC4/key_touch_Filter.c ****     uint32 sensorId;       
 720              		.loc 1 210 0
 721              		.cfi_startproc
 722              	.LVL122:
 723 0000 70B5     		push	{r4, r5, r6, lr}
 724              		.cfi_def_cfa_offset 16
 725              		.cfi_offset 4, -16
 726              		.cfi_offset 5, -12
 727              		.cfi_offset 6, -8
 728              		.cfi_offset 14, -4
 729 0002 061C     		mov	r6, r0
 730              	.LVL123:
 218:Generated_Source\PSoC4/key_touch_Filter.c ****     
 731              		.loc 1 218 0
 732 0004 4301     		lsl	r3, r0, #5
 733 0006 084A     		ldr	r2, .L48
ARM GAS  C:\Users\Administrator\AppData\Local\Temp\ccrG5N5m.s 			page 40


 734 0008 D318     		add	r3, r2, r3
 735              	.LVL124:
 736 000a DB8A     		ldrh	r3, [r3, #22]
 737              	.LVL125:
 215:Generated_Source\PSoC4/key_touch_Filter.c ****     
 738              		.loc 1 215 0
 739 000c 0025     		mov	r5, #0
 220:Generated_Source\PSoC4/key_touch_Filter.c ****     {
 740              		.loc 1 220 0
 741 000e 05E0     		b	.L46
 742              	.LVL126:
 743              	.L47:
 222:Generated_Source\PSoC4/key_touch_Filter.c ****     }
 744              		.loc 1 222 0
 745 0010 301C     		mov	r0, r6
 746 0012 211C     		mov	r1, r4
 747 0014 FFF7FEFF 		bl	key_touch_UpdateSensorBaseline
 748              	.LVL127:
 749 0018 0543     		orr	r5, r0
 750              	.LVL128:
 220:Generated_Source\PSoC4/key_touch_Filter.c ****     {
 751              		.loc 1 220 0
 752 001a 231C     		mov	r3, r4
 753              	.LVL129:
 754              	.L46:
 220:Generated_Source\PSoC4/key_touch_Filter.c ****     {
 755              		.loc 1 220 0 is_stmt 0 discriminator 1
 756 001c 5C1E     		sub	r4, r3, #1
 757              	.LVL130:
 758 001e 002B     		cmp	r3, #0
 759 0020 F6D1     		bne	.L47
 226:Generated_Source\PSoC4/key_touch_Filter.c **** 
 760              		.loc 1 226 0 is_stmt 1
 761 0022 281C     		mov	r0, r5
 762              		@ sp needed
 763              	.LVL131:
 764              	.LVL132:
 765              	.LVL133:
 766 0024 70BD     		pop	{r4, r5, r6, pc}
 767              	.L49:
 768 0026 C046     		.align	2
 769              	.L48:
 770 0028 00000000 		.word	key_touch_dsFlash
 771              		.cfi_endproc
 772              	.LFE3:
 773              		.size	key_touch_UpdateWidgetBaseline, .-key_touch_UpdateWidgetBaseline
 774              		.section	.text.key_touch_UpdateAllBaselines,"ax",%progbits
 775              		.align	2
 776              		.global	key_touch_UpdateAllBaselines
 777              		.code	16
 778              		.thumb_func
 779              		.type	key_touch_UpdateAllBaselines, %function
 780              	key_touch_UpdateAllBaselines:
 781              	.LFB2:
 165:Generated_Source\PSoC4/key_touch_Filter.c ****     uint32 widgetId; 
 782              		.loc 1 165 0
 783              		.cfi_startproc
ARM GAS  C:\Users\Administrator\AppData\Local\Temp\ccrG5N5m.s 			page 41


 784 0000 38B5     		push	{r3, r4, r5, lr}
 785              		.cfi_def_cfa_offset 16
 786              		.cfi_offset 3, -16
 787              		.cfi_offset 4, -12
 788              		.cfi_offset 5, -8
 789              		.cfi_offset 14, -4
 790              	.LVL134:
 167:Generated_Source\PSoC4/key_touch_Filter.c ****     
 791              		.loc 1 167 0
 792 0002 0025     		mov	r5, #0
 169:Generated_Source\PSoC4/key_touch_Filter.c ****     {            
 793              		.loc 1 169 0
 794 0004 0C23     		mov	r3, #12
 795 0006 04E0     		b	.L51
 796              	.LVL135:
 797              	.L52:
 171:Generated_Source\PSoC4/key_touch_Filter.c ****     }      
 798              		.loc 1 171 0
 799 0008 201C     		mov	r0, r4
 800 000a FFF7FEFF 		bl	key_touch_UpdateWidgetBaseline
 801              	.LVL136:
 802 000e 0543     		orr	r5, r0
 803              	.LVL137:
 169:Generated_Source\PSoC4/key_touch_Filter.c ****     {            
 804              		.loc 1 169 0
 805 0010 231C     		mov	r3, r4
 806              	.LVL138:
 807              	.L51:
 169:Generated_Source\PSoC4/key_touch_Filter.c ****     {            
 808              		.loc 1 169 0 is_stmt 0 discriminator 1
 809 0012 5C1E     		sub	r4, r3, #1
 810              	.LVL139:
 811 0014 002B     		cmp	r3, #0
 812 0016 F7D1     		bne	.L52
 175:Generated_Source\PSoC4/key_touch_Filter.c ****   
 813              		.loc 1 175 0 is_stmt 1
 814 0018 281C     		mov	r0, r5
 815              		@ sp needed
 816              	.LVL140:
 817              	.LVL141:
 818 001a 38BD     		pop	{r3, r4, r5, pc}
 819              		.cfi_endproc
 820              	.LFE2:
 821              		.size	key_touch_UpdateAllBaselines, .-key_touch_UpdateAllBaselines
 822              		.text
 823              	.Letext0:
 824              		.file 2 "Generated_Source\\PSoC4\\cytypes.h"
 825              		.file 3 "Generated_Source\\PSoC4\\key_touch_Configuration.h"
 826              		.file 4 "Generated_Source\\PSoC4\\key_touch_SmartSense_LL.h"
 827              		.file 5 "Generated_Source\\PSoC4\\key_touch_Structure.h"
 828              		.section	.debug_info,"",%progbits
 829              	.Ldebug_info0:
 830 0000 B10A0000 		.4byte	0xab1
 831 0004 0400     		.2byte	0x4
 832 0006 00000000 		.4byte	.Ldebug_abbrev0
 833 000a 04       		.byte	0x4
 834 000b 01       		.uleb128 0x1
ARM GAS  C:\Users\Administrator\AppData\Local\Temp\ccrG5N5m.s 			page 42


 835 000c F1000000 		.4byte	.LASF110
 836 0010 01       		.byte	0x1
 837 0011 3A030000 		.4byte	.LASF111
 838 0015 00020000 		.4byte	.LASF112
 839 0019 00000000 		.4byte	.Ldebug_ranges0+0
 840 001d 00000000 		.4byte	0
 841 0021 00000000 		.4byte	.Ldebug_line0
 842 0025 02       		.uleb128 0x2
 843 0026 01       		.byte	0x1
 844 0027 06       		.byte	0x6
 845 0028 CE040000 		.4byte	.LASF0
 846 002c 02       		.uleb128 0x2
 847 002d 01       		.byte	0x1
 848 002e 08       		.byte	0x8
 849 002f 95040000 		.4byte	.LASF1
 850 0033 02       		.uleb128 0x2
 851 0034 02       		.byte	0x2
 852 0035 05       		.byte	0x5
 853 0036 D8000000 		.4byte	.LASF2
 854 003a 02       		.uleb128 0x2
 855 003b 02       		.byte	0x2
 856 003c 07       		.byte	0x7
 857 003d 86050000 		.4byte	.LASF3
 858 0041 02       		.uleb128 0x2
 859 0042 04       		.byte	0x4
 860 0043 05       		.byte	0x5
 861 0044 C7030000 		.4byte	.LASF4
 862 0048 02       		.uleb128 0x2
 863 0049 04       		.byte	0x4
 864 004a 07       		.byte	0x7
 865 004b 9B060000 		.4byte	.LASF5
 866 004f 02       		.uleb128 0x2
 867 0050 08       		.byte	0x8
 868 0051 05       		.byte	0x5
 869 0052 64030000 		.4byte	.LASF6
 870 0056 02       		.uleb128 0x2
 871 0057 08       		.byte	0x8
 872 0058 07       		.byte	0x7
 873 0059 EC040000 		.4byte	.LASF7
 874 005d 03       		.uleb128 0x3
 875 005e 04       		.byte	0x4
 876 005f 05       		.byte	0x5
 877 0060 696E7400 		.ascii	"int\000"
 878 0064 02       		.uleb128 0x2
 879 0065 04       		.byte	0x4
 880 0066 07       		.byte	0x7
 881 0067 1F050000 		.4byte	.LASF8
 882 006b 04       		.uleb128 0x4
 883 006c EB020000 		.4byte	.LASF9
 884 0070 02       		.byte	0x2
 885 0071 B901     		.2byte	0x1b9
 886 0073 2C000000 		.4byte	0x2c
 887 0077 04       		.uleb128 0x4
 888 0078 B6020000 		.4byte	.LASF10
 889 007c 02       		.byte	0x2
 890 007d BA01     		.2byte	0x1ba
 891 007f 3A000000 		.4byte	0x3a
ARM GAS  C:\Users\Administrator\AppData\Local\Temp\ccrG5N5m.s 			page 43


 892 0083 04       		.uleb128 0x4
 893 0084 B2060000 		.4byte	.LASF11
 894 0088 02       		.byte	0x2
 895 0089 BB01     		.2byte	0x1bb
 896 008b 48000000 		.4byte	0x48
 897 008f 02       		.uleb128 0x2
 898 0090 04       		.byte	0x4
 899 0091 04       		.byte	0x4
 900 0092 34030000 		.4byte	.LASF12
 901 0096 02       		.uleb128 0x2
 902 0097 08       		.byte	0x8
 903 0098 04       		.byte	0x4
 904 0099 7C070000 		.4byte	.LASF13
 905 009d 02       		.uleb128 0x2
 906 009e 01       		.byte	0x1
 907 009f 08       		.byte	0x8
 908 00a0 AC030000 		.4byte	.LASF14
 909 00a4 04       		.uleb128 0x4
 910 00a5 E6050000 		.4byte	.LASF15
 911 00a9 02       		.byte	0x2
 912 00aa 5B02     		.2byte	0x25b
 913 00ac 48000000 		.4byte	0x48
 914 00b0 02       		.uleb128 0x2
 915 00b1 04       		.byte	0x4
 916 00b2 07       		.byte	0x7
 917 00b3 E8000000 		.4byte	.LASF16
 918 00b7 05       		.uleb128 0x5
 919 00b8 04       		.byte	0x4
 920 00b9 04       		.uleb128 0x4
 921 00ba FE020000 		.4byte	.LASF17
 922 00be 03       		.byte	0x3
 923 00bf 0301     		.2byte	0x103
 924 00c1 77000000 		.4byte	0x77
 925 00c5 04       		.uleb128 0x4
 926 00c6 A0070000 		.4byte	.LASF18
 927 00ca 03       		.byte	0x3
 928 00cb 0701     		.2byte	0x107
 929 00cd 6B000000 		.4byte	0x6b
 930 00d1 06       		.uleb128 0x6
 931 00d2 04       		.byte	0x4
 932 00d3 6B000000 		.4byte	0x6b
 933 00d7 07       		.uleb128 0x7
 934 00d8 0C       		.byte	0xc
 935 00d9 04       		.byte	0x4
 936 00da 6C       		.byte	0x6c
 937 00db 34010000 		.4byte	0x134
 938 00df 08       		.uleb128 0x8
 939 00e0 2C050000 		.4byte	.LASF19
 940 00e4 04       		.byte	0x4
 941 00e5 6E       		.byte	0x6e
 942 00e6 77000000 		.4byte	0x77
 943 00ea 00       		.byte	0
 944 00eb 08       		.uleb128 0x8
 945 00ec 33050000 		.4byte	.LASF20
 946 00f0 04       		.byte	0x4
 947 00f1 6F       		.byte	0x6f
 948 00f2 77000000 		.4byte	0x77
ARM GAS  C:\Users\Administrator\AppData\Local\Temp\ccrG5N5m.s 			page 44


 949 00f6 02       		.byte	0x2
 950 00f7 08       		.uleb128 0x8
 951 00f8 00000000 		.4byte	.LASF21
 952 00fc 04       		.byte	0x4
 953 00fd 70       		.byte	0x70
 954 00fe 77000000 		.4byte	0x77
 955 0102 04       		.byte	0x4
 956 0103 08       		.uleb128 0x8
 957 0104 76020000 		.4byte	.LASF22
 958 0108 04       		.byte	0x4
 959 0109 71       		.byte	0x71
 960 010a 77000000 		.4byte	0x77
 961 010e 06       		.byte	0x6
 962 010f 08       		.uleb128 0x8
 963 0110 7D020000 		.4byte	.LASF23
 964 0114 04       		.byte	0x4
 965 0115 72       		.byte	0x72
 966 0116 77000000 		.4byte	0x77
 967 011a 08       		.byte	0x8
 968 011b 08       		.uleb128 0x8
 969 011c BF050000 		.4byte	.LASF24
 970 0120 04       		.byte	0x4
 971 0121 73       		.byte	0x73
 972 0122 6B000000 		.4byte	0x6b
 973 0126 0A       		.byte	0xa
 974 0127 08       		.uleb128 0x8
 975 0128 9A020000 		.4byte	.LASF25
 976 012c 04       		.byte	0x4
 977 012d 74       		.byte	0x74
 978 012e 6B000000 		.4byte	0x6b
 979 0132 0B       		.byte	0xb
 980 0133 00       		.byte	0
 981 0134 09       		.uleb128 0x9
 982 0135 BC070000 		.4byte	.LASF26
 983 0139 04       		.byte	0x4
 984 013a 75       		.byte	0x75
 985 013b D7000000 		.4byte	0xd7
 986 013f 0A       		.uleb128 0xa
 987 0140 01       		.byte	0x1
 988 0141 05       		.byte	0x5
 989 0142 4F       		.byte	0x4f
 990 0143 6C010000 		.4byte	0x16c
 991 0147 0B       		.uleb128 0xb
 992 0148 84020000 		.4byte	.LASF27
 993 014c 01       		.sleb128 1
 994 014d 0B       		.uleb128 0xb
 995 014e 17030000 		.4byte	.LASF28
 996 0152 02       		.sleb128 2
 997 0153 0B       		.uleb128 0xb
 998 0154 3A050000 		.4byte	.LASF29
 999 0158 03       		.sleb128 3
 1000 0159 0B       		.uleb128 0xb
 1001 015a C1060000 		.4byte	.LASF30
 1002 015e 04       		.sleb128 4
 1003 015f 0B       		.uleb128 0xb
 1004 0160 6E050000 		.4byte	.LASF31
 1005 0164 05       		.sleb128 5
ARM GAS  C:\Users\Administrator\AppData\Local\Temp\ccrG5N5m.s 			page 45


 1006 0165 0B       		.uleb128 0xb
 1007 0166 2F040000 		.4byte	.LASF32
 1008 016a 06       		.sleb128 6
 1009 016b 00       		.byte	0
 1010 016c 09       		.uleb128 0x9
 1011 016d 10040000 		.4byte	.LASF33
 1012 0171 05       		.byte	0x5
 1013 0172 56       		.byte	0x56
 1014 0173 3F010000 		.4byte	0x13f
 1015 0177 0A       		.uleb128 0xa
 1016 0178 01       		.byte	0x1
 1017 0179 05       		.byte	0x5
 1018 017a 5D       		.byte	0x5d
 1019 017b 98010000 		.4byte	0x198
 1020 017f 0B       		.uleb128 0xb
 1021 0180 B1030000 		.4byte	.LASF34
 1022 0184 00       		.sleb128 0
 1023 0185 0B       		.uleb128 0xb
 1024 0186 72030000 		.4byte	.LASF35
 1025 018a 01       		.sleb128 1
 1026 018b 0B       		.uleb128 0xb
 1027 018c 0E000000 		.4byte	.LASF36
 1028 0190 02       		.sleb128 2
 1029 0191 0B       		.uleb128 0xb
 1030 0192 58020000 		.4byte	.LASF37
 1031 0196 03       		.sleb128 3
 1032 0197 00       		.byte	0
 1033 0198 07       		.uleb128 0x7
 1034 0199 12       		.byte	0x12
 1035 019a 05       		.byte	0x5
 1036 019b 7C       		.byte	0x7c
 1037 019c 3D020000 		.4byte	0x23d
 1038 01a0 08       		.uleb128 0x8
 1039 01a1 12060000 		.4byte	.LASF38
 1040 01a5 05       		.byte	0x5
 1041 01a6 82       		.byte	0x82
 1042 01a7 77000000 		.4byte	0x77
 1043 01ab 00       		.byte	0
 1044 01ac 08       		.uleb128 0x8
 1045 01ad DF030000 		.4byte	.LASF39
 1046 01b1 05       		.byte	0x5
 1047 01b2 87       		.byte	0x87
 1048 01b3 B9000000 		.4byte	0xb9
 1049 01b7 02       		.byte	0x2
 1050 01b8 08       		.uleb128 0x8
 1051 01b9 A9020000 		.4byte	.LASF40
 1052 01bd 05       		.byte	0x5
 1053 01be 8C       		.byte	0x8c
 1054 01bf 6B000000 		.4byte	0x6b
 1055 01c3 04       		.byte	0x4
 1056 01c4 08       		.uleb128 0x8
 1057 01c5 6B060000 		.4byte	.LASF41
 1058 01c9 05       		.byte	0x5
 1059 01ca 91       		.byte	0x91
 1060 01cb 6B000000 		.4byte	0x6b
 1061 01cf 05       		.byte	0x5
 1062 01d0 08       		.uleb128 0x8
ARM GAS  C:\Users\Administrator\AppData\Local\Temp\ccrG5N5m.s 			page 46


 1063 01d1 67040000 		.4byte	.LASF42
 1064 01d5 05       		.byte	0x5
 1065 01d6 96       		.byte	0x96
 1066 01d7 6B000000 		.4byte	0x6b
 1067 01db 06       		.byte	0x6
 1068 01dc 08       		.uleb128 0x8
 1069 01dd 05040000 		.4byte	.LASF43
 1070 01e1 05       		.byte	0x5
 1071 01e2 9B       		.byte	0x9b
 1072 01e3 6B000000 		.4byte	0x6b
 1073 01e7 07       		.byte	0x7
 1074 01e8 08       		.uleb128 0x8
 1075 01e9 80000000 		.4byte	.LASF44
 1076 01ed 05       		.byte	0x5
 1077 01ee A1       		.byte	0xa1
 1078 01ef C5000000 		.4byte	0xc5
 1079 01f3 08       		.byte	0x8
 1080 01f4 08       		.uleb128 0x8
 1081 01f5 44060000 		.4byte	.LASF45
 1082 01f9 05       		.byte	0x5
 1083 01fa A6       		.byte	0xa6
 1084 01fb 6B000000 		.4byte	0x6b
 1085 01ff 09       		.byte	0x9
 1086 0200 08       		.uleb128 0x8
 1087 0201 9C000000 		.4byte	.LASF46
 1088 0205 05       		.byte	0x5
 1089 0206 AD       		.byte	0xad
 1090 0207 3D020000 		.4byte	0x23d
 1091 020b 0A       		.byte	0xa
 1092 020c 08       		.uleb128 0x8
 1093 020d 3C020000 		.4byte	.LASF47
 1094 0211 05       		.byte	0x5
 1095 0212 B4       		.byte	0xb4
 1096 0213 6B000000 		.4byte	0x6b
 1097 0217 0B       		.byte	0xb
 1098 0218 08       		.uleb128 0x8
 1099 0219 4B020000 		.4byte	.LASF48
 1100 021d 05       		.byte	0x5
 1101 021e B9       		.byte	0xb9
 1102 021f 6B000000 		.4byte	0x6b
 1103 0223 0C       		.byte	0xc
 1104 0224 08       		.uleb128 0x8
 1105 0225 6B070000 		.4byte	.LASF49
 1106 0229 05       		.byte	0x5
 1107 022a BF       		.byte	0xbf
 1108 022b 77000000 		.4byte	0x77
 1109 022f 0E       		.byte	0xe
 1110 0230 08       		.uleb128 0x8
 1111 0231 7B060000 		.4byte	.LASF50
 1112 0235 05       		.byte	0x5
 1113 0236 C4       		.byte	0xc4
 1114 0237 77000000 		.4byte	0x77
 1115 023b 10       		.byte	0x10
 1116 023c 00       		.byte	0
 1117 023d 0C       		.uleb128 0xc
 1118 023e 6B000000 		.4byte	0x6b
 1119 0242 4D020000 		.4byte	0x24d
ARM GAS  C:\Users\Administrator\AppData\Local\Temp\ccrG5N5m.s 			page 47


 1120 0246 0D       		.uleb128 0xd
 1121 0247 B0000000 		.4byte	0xb0
 1122 024b 00       		.byte	0
 1123 024c 00       		.byte	0
 1124 024d 09       		.uleb128 0x9
 1125 024e D8010000 		.4byte	.LASF51
 1126 0252 05       		.byte	0x5
 1127 0253 C5       		.byte	0xc5
 1128 0254 98010000 		.4byte	0x198
 1129 0258 0E       		.uleb128 0xe
 1130 0259 0A       		.byte	0xa
 1131 025a 05       		.byte	0x5
 1132 025b 5C01     		.2byte	0x15c
 1133 025d B0020000 		.4byte	0x2b0
 1134 0261 0F       		.uleb128 0xf
 1135 0262 72617700 		.ascii	"raw\000"
 1136 0266 05       		.byte	0x5
 1137 0267 6101     		.2byte	0x161
 1138 0269 B0020000 		.4byte	0x2b0
 1139 026d 00       		.byte	0
 1140 026e 10       		.uleb128 0x10
 1141 026f B1020000 		.4byte	.LASF52
 1142 0273 05       		.byte	0x5
 1143 0274 6601     		.2byte	0x166
 1144 0276 B0020000 		.4byte	0x2b0
 1145 027a 02       		.byte	0x2
 1146 027b 10       		.uleb128 0x10
 1147 027c B9060000 		.4byte	.LASF53
 1148 0280 05       		.byte	0x5
 1149 0281 6C01     		.2byte	0x16c
 1150 0283 3D020000 		.4byte	0x23d
 1151 0287 04       		.byte	0x4
 1152 0288 10       		.uleb128 0x10
 1153 0289 8B000000 		.4byte	.LASF54
 1154 028d 05       		.byte	0x5
 1155 028e 7101     		.2byte	0x171
 1156 0290 B9000000 		.4byte	0xb9
 1157 0294 06       		.byte	0x6
 1158 0295 10       		.uleb128 0x10
 1159 0296 12070000 		.4byte	.LASF55
 1160 029a 05       		.byte	0x5
 1161 029b 7601     		.2byte	0x176
 1162 029d C0020000 		.4byte	0x2c0
 1163 02a1 08       		.byte	0x8
 1164 02a2 10       		.uleb128 0x10
 1165 02a3 CF010000 		.4byte	.LASF56
 1166 02a7 05       		.byte	0x5
 1167 02a8 7C01     		.2byte	0x17c
 1168 02aa 3D020000 		.4byte	0x23d
 1169 02ae 09       		.byte	0x9
 1170 02af 00       		.byte	0
 1171 02b0 0C       		.uleb128 0xc
 1172 02b1 77000000 		.4byte	0x77
 1173 02b5 C0020000 		.4byte	0x2c0
 1174 02b9 0D       		.uleb128 0xd
 1175 02ba B0000000 		.4byte	0xb0
 1176 02be 00       		.byte	0
ARM GAS  C:\Users\Administrator\AppData\Local\Temp\ccrG5N5m.s 			page 48


 1177 02bf 00       		.byte	0
 1178 02c0 0C       		.uleb128 0xc
 1179 02c1 C5000000 		.4byte	0xc5
 1180 02c5 D0020000 		.4byte	0x2d0
 1181 02c9 0D       		.uleb128 0xd
 1182 02ca B0000000 		.4byte	0xb0
 1183 02ce 00       		.byte	0
 1184 02cf 00       		.byte	0
 1185 02d0 04       		.uleb128 0x4
 1186 02d1 82060000 		.4byte	.LASF57
 1187 02d5 05       		.byte	0x5
 1188 02d6 7D01     		.2byte	0x17d
 1189 02d8 58020000 		.4byte	0x258
 1190 02dc 0E       		.uleb128 0xe
 1191 02dd 20       		.byte	0x20
 1192 02de 05       		.byte	0x5
 1193 02df 8202     		.2byte	0x282
 1194 02e1 68030000 		.4byte	0x368
 1195 02e5 10       		.uleb128 0x10
 1196 02e6 E1070000 		.4byte	.LASF58
 1197 02ea 05       		.byte	0x5
 1198 02eb 8B02     		.2byte	0x28b
 1199 02ed 68030000 		.4byte	0x368
 1200 02f1 00       		.byte	0
 1201 02f2 10       		.uleb128 0x10
 1202 02f3 F9030000 		.4byte	.LASF59
 1203 02f7 05       		.byte	0x5
 1204 02f8 9102     		.2byte	0x291
 1205 02fa B7000000 		.4byte	0xb7
 1206 02fe 04       		.byte	0x4
 1207 02ff 10       		.uleb128 0x10
 1208 0300 2B070000 		.4byte	.LASF60
 1209 0304 05       		.byte	0x5
 1210 0305 9702     		.2byte	0x297
 1211 0307 6F030000 		.4byte	0x36f
 1212 030b 08       		.byte	0x8
 1213 030c 10       		.uleb128 0x10
 1214 030d 36070000 		.4byte	.LASF61
 1215 0311 05       		.byte	0x5
 1216 0312 9C02     		.2byte	0x29c
 1217 0314 B7000000 		.4byte	0xb7
 1218 0318 0C       		.byte	0xc
 1219 0319 10       		.uleb128 0x10
 1220 031a BD020000 		.4byte	.LASF62
 1221 031e 05       		.byte	0x5
 1222 031f A302     		.2byte	0x2a3
 1223 0321 D1000000 		.4byte	0xd1
 1224 0325 10       		.byte	0x10
 1225 0326 10       		.uleb128 0x10
 1226 0327 12050000 		.4byte	.LASF63
 1227 032b 05       		.byte	0x5
 1228 032c A802     		.2byte	0x2a8
 1229 032e 77000000 		.4byte	0x77
 1230 0332 14       		.byte	0x14
 1231 0333 10       		.uleb128 0x10
 1232 0334 90000000 		.4byte	.LASF64
 1233 0338 05       		.byte	0x5
ARM GAS  C:\Users\Administrator\AppData\Local\Temp\ccrG5N5m.s 			page 49


 1234 0339 AF02     		.2byte	0x2af
 1235 033b 77000000 		.4byte	0x77
 1236 033f 16       		.byte	0x16
 1237 0340 10       		.uleb128 0x10
 1238 0341 D6030000 		.4byte	.LASF65
 1239 0345 05       		.byte	0x5
 1240 0346 BA02     		.2byte	0x2ba
 1241 0348 6B000000 		.4byte	0x6b
 1242 034c 18       		.byte	0x18
 1243 034d 10       		.uleb128 0x10
 1244 034e 27040000 		.4byte	.LASF66
 1245 0352 05       		.byte	0x5
 1246 0353 C202     		.2byte	0x2c2
 1247 0355 6B000000 		.4byte	0x6b
 1248 0359 19       		.byte	0x19
 1249 035a 10       		.uleb128 0x10
 1250 035b 5C060000 		.4byte	.LASF67
 1251 035f 05       		.byte	0x5
 1252 0360 CA02     		.2byte	0x2ca
 1253 0362 75030000 		.4byte	0x375
 1254 0366 1C       		.byte	0x1c
 1255 0367 00       		.byte	0
 1256 0368 06       		.uleb128 0x6
 1257 0369 04       		.byte	0x4
 1258 036a 6E030000 		.4byte	0x36e
 1259 036e 11       		.uleb128 0x11
 1260 036f 06       		.uleb128 0x6
 1261 0370 04       		.byte	0x4
 1262 0371 D0020000 		.4byte	0x2d0
 1263 0375 06       		.uleb128 0x6
 1264 0376 04       		.byte	0x4
 1265 0377 34010000 		.4byte	0x134
 1266 037b 04       		.uleb128 0x4
 1267 037c F8070000 		.4byte	.LASF68
 1268 0380 05       		.byte	0x5
 1269 0381 CB02     		.2byte	0x2cb
 1270 0383 DC020000 		.4byte	0x2dc
 1271 0387 12       		.uleb128 0x12
 1272 0388 8001     		.2byte	0x180
 1273 038a 05       		.byte	0x5
 1274 038b D102     		.2byte	0x2d1
 1275 038d 9F030000 		.4byte	0x39f
 1276 0391 10       		.uleb128 0x10
 1277 0392 46070000 		.4byte	.LASF69
 1278 0396 05       		.byte	0x5
 1279 0397 D602     		.2byte	0x2d6
 1280 0399 9F030000 		.4byte	0x39f
 1281 039d 00       		.byte	0
 1282 039e 00       		.byte	0
 1283 039f 0C       		.uleb128 0xc
 1284 03a0 7B030000 		.4byte	0x37b
 1285 03a4 AF030000 		.4byte	0x3af
 1286 03a8 0D       		.uleb128 0xd
 1287 03a9 B0000000 		.4byte	0xb0
 1288 03ad 0B       		.byte	0xb
 1289 03ae 00       		.byte	0
 1290 03af 04       		.uleb128 0x4
ARM GAS  C:\Users\Administrator\AppData\Local\Temp\ccrG5N5m.s 			page 50


 1291 03b0 57050000 		.4byte	.LASF70
 1292 03b4 05       		.byte	0x5
 1293 03b5 D702     		.2byte	0x2d7
 1294 03b7 87030000 		.4byte	0x387
 1295 03bb 0E       		.uleb128 0xe
 1296 03bc 02       		.byte	0x2
 1297 03bd 05       		.byte	0x5
 1298 03be 0C03     		.2byte	0x30c
 1299 03c0 D2030000 		.4byte	0x3d2
 1300 03c4 10       		.uleb128 0x10
 1301 03c5 A1020000 		.4byte	.LASF71
 1302 03c9 05       		.byte	0x5
 1303 03ca 0E03     		.2byte	0x30e
 1304 03cc 77000000 		.4byte	0x77
 1305 03d0 00       		.byte	0
 1306 03d1 00       		.byte	0
 1307 03d2 04       		.uleb128 0x4
 1308 03d3 99050000 		.4byte	.LASF72
 1309 03d7 05       		.byte	0x5
 1310 03d8 0F03     		.2byte	0x30f
 1311 03da BB030000 		.4byte	0x3bb
 1312 03de 0E       		.uleb128 0xe
 1313 03df 02       		.byte	0x2
 1314 03e0 05       		.byte	0x5
 1315 03e1 1403     		.2byte	0x314
 1316 03e3 F5030000 		.4byte	0x3f5
 1317 03e7 10       		.uleb128 0x10
 1318 03e8 03050000 		.4byte	.LASF73
 1319 03ec 05       		.byte	0x5
 1320 03ed 1903     		.2byte	0x319
 1321 03ef F5030000 		.4byte	0x3f5
 1322 03f3 00       		.byte	0
 1323 03f4 00       		.byte	0
 1324 03f5 0C       		.uleb128 0xc
 1325 03f6 D2030000 		.4byte	0x3d2
 1326 03fa 05040000 		.4byte	0x405
 1327 03fe 0D       		.uleb128 0xd
 1328 03ff B0000000 		.4byte	0xb0
 1329 0403 00       		.byte	0
 1330 0404 00       		.byte	0
 1331 0405 04       		.uleb128 0x4
 1332 0406 CD020000 		.4byte	.LASF74
 1333 040a 05       		.byte	0x5
 1334 040b 1A03     		.2byte	0x31a
 1335 040d DE030000 		.4byte	0x3de
 1336 0411 13       		.uleb128 0x13
 1337 0412 04       		.byte	0x4
 1338 0413 05       		.byte	0x5
 1339 0414 1F03     		.2byte	0x31f
 1340 0416 33040000 		.4byte	0x433
 1341 041a 14       		.uleb128 0x14
 1342 041b 70747200 		.ascii	"ptr\000"
 1343 041f 05       		.byte	0x5
 1344 0420 2403     		.2byte	0x324
 1345 0422 B7000000 		.4byte	0xb7
 1346 0426 15       		.uleb128 0x15
 1347 0427 F5010000 		.4byte	.LASF75
ARM GAS  C:\Users\Administrator\AppData\Local\Temp\ccrG5N5m.s 			page 51


 1348 042b 05       		.byte	0x5
 1349 042c 2903     		.2byte	0x329
 1350 042e 33040000 		.4byte	0x433
 1351 0432 00       		.byte	0
 1352 0433 06       		.uleb128 0x6
 1353 0434 04       		.byte	0x4
 1354 0435 05040000 		.4byte	0x405
 1355 0439 04       		.uleb128 0x4
 1356 043a 83070000 		.4byte	.LASF76
 1357 043e 05       		.byte	0x5
 1358 043f 2A03     		.2byte	0x32a
 1359 0441 11040000 		.4byte	0x411
 1360 0445 16       		.uleb128 0x16
 1361 0446 48040000 		.4byte	.LASF108
 1362 044a 01       		.byte	0x1
 1363 044b 3802     		.2byte	0x238
 1364 044d 03       		.byte	0x3
 1365 044e 77040000 		.4byte	0x477
 1366 0452 17       		.uleb128 0x17
 1367 0453 EE070000 		.4byte	.LASF77
 1368 0457 01       		.byte	0x1
 1369 0458 3802     		.2byte	0x238
 1370 045a 6F030000 		.4byte	0x36f
 1371 045e 17       		.uleb128 0x17
 1372 045f 74060000 		.4byte	.LASF78
 1373 0463 01       		.byte	0x1
 1374 0464 3802     		.2byte	0x238
 1375 0466 83000000 		.4byte	0x83
 1376 046a 18       		.uleb128 0x18
 1377 046b 3C060000 		.4byte	.LASF83
 1378 046f 01       		.byte	0x1
 1379 0470 3A02     		.2byte	0x23a
 1380 0472 83000000 		.4byte	0x83
 1381 0476 00       		.byte	0
 1382 0477 19       		.uleb128 0x19
 1383 0478 CF050000 		.4byte	.LASF87
 1384 047c 01       		.byte	0x1
 1385 047d 3D       		.byte	0x3d
 1386 047e 00000000 		.4byte	.LFB1
 1387 0482 48000000 		.4byte	.LFE1-.LFB1
 1388 0486 01       		.uleb128 0x1
 1389 0487 9C       		.byte	0x9c
 1390 0488 0A050000 		.4byte	0x50a
 1391 048c 1A       		.uleb128 0x1a
 1392 048d C6050000 		.4byte	.LASF79
 1393 0491 01       		.byte	0x1
 1394 0492 3F       		.byte	0x3f
 1395 0493 83000000 		.4byte	0x83
 1396 0497 00000000 		.4byte	.LLST0
 1397 049b 1A       		.uleb128 0x1a
 1398 049c 2B000000 		.4byte	.LASF80
 1399 04a0 01       		.byte	0x1
 1400 04a1 40       		.byte	0x40
 1401 04a2 83000000 		.4byte	0x83
 1402 04a6 42000000 		.4byte	.LLST1
 1403 04aa 1A       		.uleb128 0x1a
 1404 04ab 4E060000 		.4byte	.LASF81
ARM GAS  C:\Users\Administrator\AppData\Local\Temp\ccrG5N5m.s 			page 52


 1405 04af 01       		.byte	0x1
 1406 04b0 41       		.byte	0x41
 1407 04b1 83000000 		.4byte	0x83
 1408 04b5 76000000 		.4byte	.LLST2
 1409 04b9 1A       		.uleb128 0x1a
 1410 04ba C4040000 		.4byte	.LASF82
 1411 04be 01       		.byte	0x1
 1412 04bf 43       		.byte	0x43
 1413 04c0 0A050000 		.4byte	0x50a
 1414 04c4 89000000 		.4byte	.LLST3
 1415 04c8 1A       		.uleb128 0x1a
 1416 04c9 EE070000 		.4byte	.LASF77
 1417 04cd 01       		.byte	0x1
 1418 04ce 44       		.byte	0x44
 1419 04cf 6F030000 		.4byte	0x36f
 1420 04d3 9C000000 		.4byte	.LLST4
 1421 04d7 1B       		.uleb128 0x1b
 1422 04d8 A4000000 		.4byte	.LASF84
 1423 04dc 01       		.byte	0x1
 1424 04dd 45       		.byte	0x45
 1425 04de 39040000 		.4byte	0x439
 1426 04e2 1A       		.uleb128 0x1a
 1427 04e3 F1020000 		.4byte	.LASF85
 1428 04e7 01       		.byte	0x1
 1429 04e8 48       		.byte	0x48
 1430 04e9 15050000 		.4byte	0x515
 1431 04ed E2000000 		.4byte	.LLST5
 1432 04f1 1A       		.uleb128 0x1a
 1433 04f2 E8030000 		.4byte	.LASF86
 1434 04f6 01       		.byte	0x1
 1435 04f7 49       		.byte	0x49
 1436 04f8 75030000 		.4byte	0x375
 1437 04fc F5000000 		.4byte	.LLST6
 1438 0500 1C       		.uleb128 0x1c
 1439 0501 32000000 		.4byte	.LVL11
 1440 0505 820A0000 		.4byte	0xa82
 1441 0509 00       		.byte	0
 1442 050a 06       		.uleb128 0x6
 1443 050b 04       		.byte	0x4
 1444 050c 10050000 		.4byte	0x510
 1445 0510 1D       		.uleb128 0x1d
 1446 0511 7B030000 		.4byte	0x37b
 1447 0515 06       		.uleb128 0x6
 1448 0516 04       		.byte	0x4
 1449 0517 4D020000 		.4byte	0x24d
 1450 051b 1E       		.uleb128 0x1e
 1451 051c 83010000 		.4byte	.LASF88
 1452 0520 01       		.byte	0x1
 1453 0521 5302     		.2byte	0x253
 1454 0523 00000000 		.4byte	.LFB10
 1455 0527 1C000000 		.4byte	.LFE10-.LFB10
 1456 052b 01       		.uleb128 0x1
 1457 052c 9C       		.byte	0x9c
 1458 052d 60050000 		.4byte	0x560
 1459 0531 1F       		.uleb128 0x1f
 1460 0532 EE070000 		.4byte	.LASF77
 1461 0536 01       		.byte	0x1
ARM GAS  C:\Users\Administrator\AppData\Local\Temp\ccrG5N5m.s 			page 53


 1462 0537 5302     		.2byte	0x253
 1463 0539 6F030000 		.4byte	0x36f
 1464 053d 01       		.uleb128 0x1
 1465 053e 50       		.byte	0x50
 1466 053f 20       		.uleb128 0x20
 1467 0540 74060000 		.4byte	.LASF78
 1468 0544 01       		.byte	0x1
 1469 0545 5302     		.2byte	0x253
 1470 0547 83000000 		.4byte	0x83
 1471 054b 14010000 		.4byte	.LLST7
 1472 054f 20       		.uleb128 0x20
 1473 0550 3C060000 		.4byte	.LASF83
 1474 0554 01       		.byte	0x1
 1475 0555 5302     		.2byte	0x253
 1476 0557 83000000 		.4byte	0x83
 1477 055b 35010000 		.4byte	.LLST8
 1478 055f 00       		.byte	0
 1479 0560 21       		.uleb128 0x21
 1480 0561 45040000 		.4byte	0x445
 1481 0565 00000000 		.4byte	.LFB9
 1482 0569 1E000000 		.4byte	.LFE9-.LFB9
 1483 056d 01       		.uleb128 0x1
 1484 056e 9C       		.byte	0x9c
 1485 056f AB050000 		.4byte	0x5ab
 1486 0573 22       		.uleb128 0x22
 1487 0574 52040000 		.4byte	0x452
 1488 0578 56010000 		.4byte	.LLST9
 1489 057c 22       		.uleb128 0x22
 1490 057d 5E040000 		.4byte	0x45e
 1491 0581 82010000 		.4byte	.LLST10
 1492 0585 23       		.uleb128 0x23
 1493 0586 6A040000 		.4byte	0x46a
 1494 058a AE010000 		.4byte	.LLST11
 1495 058e 24       		.uleb128 0x24
 1496 058f 14000000 		.4byte	.LVL23
 1497 0593 1B050000 		.4byte	0x51b
 1498 0597 25       		.uleb128 0x25
 1499 0598 01       		.uleb128 0x1
 1500 0599 52       		.byte	0x52
 1501 059a 02       		.uleb128 0x2
 1502 059b 74       		.byte	0x74
 1503 059c 00       		.sleb128 0
 1504 059d 25       		.uleb128 0x25
 1505 059e 01       		.uleb128 0x1
 1506 059f 51       		.byte	0x51
 1507 05a0 02       		.uleb128 0x2
 1508 05a1 75       		.byte	0x75
 1509 05a2 00       		.sleb128 0
 1510 05a3 25       		.uleb128 0x25
 1511 05a4 01       		.uleb128 0x1
 1512 05a5 50       		.byte	0x50
 1513 05a6 02       		.uleb128 0x2
 1514 05a7 76       		.byte	0x76
 1515 05a8 00       		.sleb128 0
 1516 05a9 00       		.byte	0
 1517 05aa 00       		.byte	0
 1518 05ab 1E       		.uleb128 0x1e
ARM GAS  C:\Users\Administrator\AppData\Local\Temp\ccrG5N5m.s 			page 54


 1519 05ac B5000000 		.4byte	.LASF89
 1520 05b0 01       		.byte	0x1
 1521 05b1 1C02     		.2byte	0x21c
 1522 05b3 00000000 		.4byte	.LFB8
 1523 05b7 30000000 		.4byte	.LFE8-.LFB8
 1524 05bb 01       		.uleb128 0x1
 1525 05bc 9C       		.byte	0x9c
 1526 05bd 54060000 		.4byte	0x654
 1527 05c1 20       		.uleb128 0x20
 1528 05c2 C6050000 		.4byte	.LASF79
 1529 05c6 01       		.byte	0x1
 1530 05c7 1C02     		.2byte	0x21c
 1531 05c9 83000000 		.4byte	0x83
 1532 05cd F0010000 		.4byte	.LLST12
 1533 05d1 20       		.uleb128 0x20
 1534 05d2 2B000000 		.4byte	.LASF80
 1535 05d6 01       		.byte	0x1
 1536 05d7 1C02     		.2byte	0x21c
 1537 05d9 83000000 		.4byte	0x83
 1538 05dd 11020000 		.4byte	.LLST13
 1539 05e1 26       		.uleb128 0x26
 1540 05e2 EE070000 		.4byte	.LASF77
 1541 05e6 01       		.byte	0x1
 1542 05e7 1E02     		.2byte	0x21e
 1543 05e9 6F030000 		.4byte	0x36f
 1544 05ed 32020000 		.4byte	.LLST14
 1545 05f1 26       		.uleb128 0x26
 1546 05f2 C4040000 		.4byte	.LASF82
 1547 05f6 01       		.byte	0x1
 1548 05f7 1F02     		.2byte	0x21f
 1549 05f9 0A050000 		.4byte	0x50a
 1550 05fd 5D020000 		.4byte	.LLST15
 1551 0601 27       		.uleb128 0x27
 1552 0602 45040000 		.4byte	0x445
 1553 0606 14000000 		.4byte	.LBB4
 1554 060a 16000000 		.4byte	.LBE4-.LBB4
 1555 060e 01       		.byte	0x1
 1556 060f 2602     		.2byte	0x226
 1557 0611 22       		.uleb128 0x22
 1558 0612 5E040000 		.4byte	0x45e
 1559 0616 70020000 		.4byte	.LLST16
 1560 061a 22       		.uleb128 0x22
 1561 061b 52040000 		.4byte	0x452
 1562 061f 83020000 		.4byte	.LLST17
 1563 0623 28       		.uleb128 0x28
 1564 0624 14000000 		.4byte	.LBB5
 1565 0628 16000000 		.4byte	.LBE5-.LBB5
 1566 062c 23       		.uleb128 0x23
 1567 062d 6A040000 		.4byte	0x46a
 1568 0631 96020000 		.4byte	.LLST18
 1569 0635 24       		.uleb128 0x24
 1570 0636 22000000 		.4byte	.LVL37
 1571 063a 1B050000 		.4byte	0x51b
 1572 063e 25       		.uleb128 0x25
 1573 063f 01       		.uleb128 0x1
 1574 0640 52       		.byte	0x52
 1575 0641 02       		.uleb128 0x2
ARM GAS  C:\Users\Administrator\AppData\Local\Temp\ccrG5N5m.s 			page 55


 1576 0642 75       		.byte	0x75
 1577 0643 00       		.sleb128 0
 1578 0644 25       		.uleb128 0x25
 1579 0645 01       		.uleb128 0x1
 1580 0646 51       		.byte	0x51
 1581 0647 02       		.uleb128 0x2
 1582 0648 76       		.byte	0x76
 1583 0649 00       		.sleb128 0
 1584 064a 25       		.uleb128 0x25
 1585 064b 01       		.uleb128 0x1
 1586 064c 50       		.byte	0x50
 1587 064d 02       		.uleb128 0x2
 1588 064e 74       		.byte	0x74
 1589 064f 00       		.sleb128 0
 1590 0650 00       		.byte	0
 1591 0651 00       		.byte	0
 1592 0652 00       		.byte	0
 1593 0653 00       		.byte	0
 1594 0654 1E       		.uleb128 0x1e
 1595 0655 72040000 		.4byte	.LASF90
 1596 0659 01       		.byte	0x1
 1597 065a F001     		.2byte	0x1f0
 1598 065c 00000000 		.4byte	.LFB7
 1599 0660 24000000 		.4byte	.LFE7-.LFB7
 1600 0664 01       		.uleb128 0x1
 1601 0665 9C       		.byte	0x9c
 1602 0666 C1060000 		.4byte	0x6c1
 1603 066a 20       		.uleb128 0x20
 1604 066b C6050000 		.4byte	.LASF79
 1605 066f 01       		.byte	0x1
 1606 0670 F001     		.2byte	0x1f0
 1607 0672 83000000 		.4byte	0x83
 1608 0676 D8020000 		.4byte	.LLST19
 1609 067a 26       		.uleb128 0x26
 1610 067b 2B000000 		.4byte	.LASF80
 1611 067f 01       		.byte	0x1
 1612 0680 F201     		.2byte	0x1f2
 1613 0682 83000000 		.4byte	0x83
 1614 0686 04030000 		.4byte	.LLST20
 1615 068a 26       		.uleb128 0x26
 1616 068b 4E060000 		.4byte	.LASF81
 1617 068f 01       		.byte	0x1
 1618 0690 F301     		.2byte	0x1f3
 1619 0692 83000000 		.4byte	0x83
 1620 0696 45030000 		.4byte	.LLST21
 1621 069a 26       		.uleb128 0x26
 1622 069b C4040000 		.4byte	.LASF82
 1623 069f 01       		.byte	0x1
 1624 06a0 F501     		.2byte	0x1f5
 1625 06a2 0A050000 		.4byte	0x50a
 1626 06a6 58030000 		.4byte	.LLST22
 1627 06aa 24       		.uleb128 0x24
 1628 06ab 16000000 		.4byte	.LVL48
 1629 06af AB050000 		.4byte	0x5ab
 1630 06b3 25       		.uleb128 0x25
 1631 06b4 01       		.uleb128 0x1
 1632 06b5 51       		.byte	0x51
ARM GAS  C:\Users\Administrator\AppData\Local\Temp\ccrG5N5m.s 			page 56


 1633 06b6 02       		.uleb128 0x2
 1634 06b7 74       		.byte	0x74
 1635 06b8 00       		.sleb128 0
 1636 06b9 25       		.uleb128 0x25
 1637 06ba 01       		.uleb128 0x1
 1638 06bb 50       		.byte	0x50
 1639 06bc 02       		.uleb128 0x2
 1640 06bd 75       		.byte	0x75
 1641 06be 00       		.sleb128 0
 1642 06bf 00       		.byte	0
 1643 06c0 00       		.byte	0
 1644 06c1 1E       		.uleb128 0x1e
 1645 06c2 A3040000 		.4byte	.LASF91
 1646 06c6 01       		.byte	0x1
 1647 06c7 D101     		.2byte	0x1d1
 1648 06c9 00000000 		.4byte	.LFB6
 1649 06cd 16000000 		.4byte	.LFE6-.LFB6
 1650 06d1 01       		.uleb128 0x1
 1651 06d2 9C       		.byte	0x9c
 1652 06d3 F8060000 		.4byte	0x6f8
 1653 06d7 26       		.uleb128 0x26
 1654 06d8 C6050000 		.4byte	.LASF79
 1655 06dc 01       		.byte	0x1
 1656 06dd D301     		.2byte	0x1d3
 1657 06df 83000000 		.4byte	0x83
 1658 06e3 6B030000 		.4byte	.LLST23
 1659 06e7 24       		.uleb128 0x24
 1660 06e8 0C000000 		.4byte	.LVL55
 1661 06ec 54060000 		.4byte	0x654
 1662 06f0 25       		.uleb128 0x25
 1663 06f1 01       		.uleb128 0x1
 1664 06f2 50       		.byte	0x50
 1665 06f3 02       		.uleb128 0x2
 1666 06f4 74       		.byte	0x74
 1667 06f5 00       		.sleb128 0
 1668 06f6 00       		.byte	0
 1669 06f7 00       		.byte	0
 1670 06f8 1E       		.uleb128 0x1e
 1671 06f9 50070000 		.4byte	.LASF92
 1672 06fd 01       		.byte	0x1
 1673 06fe 1D05     		.2byte	0x51d
 1674 0700 00000000 		.4byte	.LFB11
 1675 0704 2C000000 		.4byte	.LFE11-.LFB11
 1676 0708 01       		.uleb128 0x1
 1677 0709 9C       		.byte	0x9c
 1678 070a 78070000 		.4byte	0x778
 1679 070e 20       		.uleb128 0x20
 1680 070f C6050000 		.4byte	.LASF79
 1681 0713 01       		.byte	0x1
 1682 0714 1D05     		.2byte	0x51d
 1683 0716 83000000 		.4byte	0x83
 1684 071a AD030000 		.4byte	.LLST24
 1685 071e 20       		.uleb128 0x20
 1686 071f 2B000000 		.4byte	.LASF80
 1687 0723 01       		.byte	0x1
 1688 0724 1D05     		.2byte	0x51d
 1689 0726 83000000 		.4byte	0x83
ARM GAS  C:\Users\Administrator\AppData\Local\Temp\ccrG5N5m.s 			page 57


 1690 072a CE030000 		.4byte	.LLST25
 1691 072e 26       		.uleb128 0x26
 1692 072f C4040000 		.4byte	.LASF82
 1693 0733 01       		.byte	0x1
 1694 0734 1F05     		.2byte	0x51f
 1695 0736 0A050000 		.4byte	0x50a
 1696 073a EF030000 		.4byte	.LLST26
 1697 073e 26       		.uleb128 0x26
 1698 073f F1020000 		.4byte	.LASF85
 1699 0743 01       		.byte	0x1
 1700 0744 2005     		.2byte	0x520
 1701 0746 15050000 		.4byte	0x515
 1702 074a 02040000 		.4byte	.LLST27
 1703 074e 26       		.uleb128 0x26
 1704 074f EE070000 		.4byte	.LASF77
 1705 0753 01       		.byte	0x1
 1706 0754 2105     		.2byte	0x521
 1707 0756 6F030000 		.4byte	0x36f
 1708 075a 15040000 		.4byte	.LLST28
 1709 075e 26       		.uleb128 0x26
 1710 075f E8030000 		.4byte	.LASF86
 1711 0763 01       		.byte	0x1
 1712 0764 2205     		.2byte	0x522
 1713 0766 75030000 		.4byte	0x375
 1714 076a 5D040000 		.4byte	.LLST29
 1715 076e 1C       		.uleb128 0x1c
 1716 076f 24000000 		.4byte	.LVL70
 1717 0773 9D0A0000 		.4byte	0xa9d
 1718 0777 00       		.byte	0
 1719 0778 1E       		.uleb128 0x1e
 1720 0779 5E000000 		.4byte	.LASF93
 1721 077d 01       		.byte	0x1
 1722 077e 3C05     		.2byte	0x53c
 1723 0780 00000000 		.4byte	.LFB12
 1724 0784 2C000000 		.4byte	.LFE12-.LFB12
 1725 0788 01       		.uleb128 0x1
 1726 0789 9C       		.byte	0x9c
 1727 078a F8070000 		.4byte	0x7f8
 1728 078e 20       		.uleb128 0x20
 1729 078f C6050000 		.4byte	.LASF79
 1730 0793 01       		.byte	0x1
 1731 0794 3C05     		.2byte	0x53c
 1732 0796 83000000 		.4byte	0x83
 1733 079a 7C040000 		.4byte	.LLST30
 1734 079e 20       		.uleb128 0x20
 1735 079f 2B000000 		.4byte	.LASF80
 1736 07a3 01       		.byte	0x1
 1737 07a4 3C05     		.2byte	0x53c
 1738 07a6 83000000 		.4byte	0x83
 1739 07aa 9D040000 		.4byte	.LLST31
 1740 07ae 26       		.uleb128 0x26
 1741 07af C4040000 		.4byte	.LASF82
 1742 07b3 01       		.byte	0x1
 1743 07b4 3E05     		.2byte	0x53e
 1744 07b6 0A050000 		.4byte	0x50a
 1745 07ba BE040000 		.4byte	.LLST32
 1746 07be 26       		.uleb128 0x26
ARM GAS  C:\Users\Administrator\AppData\Local\Temp\ccrG5N5m.s 			page 58


 1747 07bf F1020000 		.4byte	.LASF85
 1748 07c3 01       		.byte	0x1
 1749 07c4 3F05     		.2byte	0x53f
 1750 07c6 15050000 		.4byte	0x515
 1751 07ca D1040000 		.4byte	.LLST33
 1752 07ce 26       		.uleb128 0x26
 1753 07cf EE070000 		.4byte	.LASF77
 1754 07d3 01       		.byte	0x1
 1755 07d4 4005     		.2byte	0x540
 1756 07d6 6F030000 		.4byte	0x36f
 1757 07da E4040000 		.4byte	.LLST34
 1758 07de 26       		.uleb128 0x26
 1759 07df E8030000 		.4byte	.LASF86
 1760 07e3 01       		.byte	0x1
 1761 07e4 4105     		.2byte	0x541
 1762 07e6 75030000 		.4byte	0x375
 1763 07ea 2C050000 		.4byte	.LLST35
 1764 07ee 1C       		.uleb128 0x1c
 1765 07ef 24000000 		.4byte	.LVL84
 1766 07f3 820A0000 		.4byte	0xa82
 1767 07f7 00       		.byte	0
 1768 07f8 29       		.uleb128 0x29
 1769 07f9 DE060000 		.4byte	.LASF98
 1770 07fd 01       		.byte	0x1
 1771 07fe 8605     		.2byte	0x586
 1772 0800 83000000 		.4byte	0x83
 1773 0804 00000000 		.4byte	.LFB13
 1774 0808 14000000 		.4byte	.LFE13-.LFB13
 1775 080c 01       		.uleb128 0x1
 1776 080d 9C       		.byte	0x9c
 1777 080e 5D080000 		.4byte	0x85d
 1778 0812 20       		.uleb128 0x20
 1779 0813 E2000000 		.4byte	.LASF94
 1780 0817 01       		.byte	0x1
 1781 0818 8605     		.2byte	0x586
 1782 081a 83000000 		.4byte	0x83
 1783 081e 4B050000 		.4byte	.LLST36
 1784 0822 20       		.uleb128 0x20
 1785 0823 20070000 		.4byte	.LASF95
 1786 0827 01       		.byte	0x1
 1787 0828 8605     		.2byte	0x586
 1788 082a 83000000 		.4byte	0x83
 1789 082e 6C050000 		.4byte	.LLST37
 1790 0832 2A       		.uleb128 0x2a
 1791 0833 6E00     		.ascii	"n\000"
 1792 0835 01       		.byte	0x1
 1793 0836 8605     		.2byte	0x586
 1794 0838 83000000 		.4byte	0x83
 1795 083c 01       		.uleb128 0x1
 1796 083d 52       		.byte	0x52
 1797 083e 20       		.uleb128 0x20
 1798 083f D0030000 		.4byte	.LASF96
 1799 0843 01       		.byte	0x1
 1800 0844 8605     		.2byte	0x586
 1801 0846 83000000 		.4byte	0x83
 1802 084a 8D050000 		.4byte	.LLST38
 1803 084e 2B       		.uleb128 0x2b
ARM GAS  C:\Users\Administrator\AppData\Local\Temp\ccrG5N5m.s 			page 59


 1804 084f 75070000 		.4byte	.LASF97
 1805 0853 01       		.byte	0x1
 1806 0854 8805     		.2byte	0x588
 1807 0856 83000000 		.4byte	0x83
 1808 085a 01       		.uleb128 0x1
 1809 085b 50       		.byte	0x50
 1810 085c 00       		.byte	0
 1811 085d 29       		.uleb128 0x29
 1812 085e B4010000 		.4byte	.LASF99
 1813 0862 01       		.byte	0x1
 1814 0863 4101     		.2byte	0x141
 1815 0865 83000000 		.4byte	0x83
 1816 0869 00000000 		.4byte	.LFB5
 1817 086d 92000000 		.4byte	.LFE5-.LFB5
 1818 0871 01       		.uleb128 0x1
 1819 0872 9C       		.byte	0x9c
 1820 0873 2A090000 		.4byte	0x92a
 1821 0877 20       		.uleb128 0x20
 1822 0878 F1020000 		.4byte	.LASF85
 1823 087c 01       		.byte	0x1
 1824 087d 4201     		.2byte	0x142
 1825 087f 15050000 		.4byte	0x515
 1826 0883 AE050000 		.4byte	.LLST39
 1827 0887 20       		.uleb128 0x20
 1828 0888 EE070000 		.4byte	.LASF77
 1829 088c 01       		.byte	0x1
 1830 088d 4301     		.2byte	0x143
 1831 088f 6F030000 		.4byte	0x36f
 1832 0893 DA050000 		.4byte	.LLST40
 1833 0897 20       		.uleb128 0x20
 1834 0898 74060000 		.4byte	.LASF78
 1835 089c 01       		.byte	0x1
 1836 089d 4401     		.2byte	0x144
 1837 089f 83000000 		.4byte	0x83
 1838 08a3 06060000 		.4byte	.LLST41
 1839 08a7 26       		.uleb128 0x26
 1840 08a8 AD060000 		.4byte	.LASF100
 1841 08ac 01       		.byte	0x1
 1842 08ad 4601     		.2byte	0x146
 1843 08af 83000000 		.4byte	0x83
 1844 08b3 27060000 		.4byte	.LLST42
 1845 08b7 26       		.uleb128 0x26
 1846 08b8 A9010000 		.4byte	.LASF101
 1847 08bc 01       		.byte	0x1
 1848 08bd 4701     		.2byte	0x147
 1849 08bf 83000000 		.4byte	0x83
 1850 08c3 5D060000 		.4byte	.LLST43
 1851 08c7 26       		.uleb128 0x26
 1852 08c8 3C060000 		.4byte	.LASF83
 1853 08cc 01       		.byte	0x1
 1854 08cd 4801     		.2byte	0x148
 1855 08cf 83000000 		.4byte	0x83
 1856 08d3 86060000 		.4byte	.LLST44
 1857 08d7 2C       		.uleb128 0x2c
 1858 08d8 07000000 		.4byte	.LASF102
 1859 08dc 01       		.byte	0x1
 1860 08dd 4901     		.2byte	0x149
ARM GAS  C:\Users\Administrator\AppData\Local\Temp\ccrG5N5m.s 			page 60


 1861 08df 83000000 		.4byte	0x83
 1862 08e3 00       		.byte	0
 1863 08e4 26       		.uleb128 0x26
 1864 08e5 43020000 		.4byte	.LASF103
 1865 08e9 01       		.byte	0x1
 1866 08ea 4C01     		.2byte	0x14c
 1867 08ec 83000000 		.4byte	0x83
 1868 08f0 C8060000 		.4byte	.LLST45
 1869 08f4 2D       		.uleb128 0x2d
 1870 08f5 48000000 		.4byte	.LVL101
 1871 08f9 1B050000 		.4byte	0x51b
 1872 08fd 15090000 		.4byte	0x915
 1873 0901 25       		.uleb128 0x25
 1874 0902 01       		.uleb128 0x1
 1875 0903 52       		.byte	0x52
 1876 0904 02       		.uleb128 0x2
 1877 0905 74       		.byte	0x74
 1878 0906 00       		.sleb128 0
 1879 0907 25       		.uleb128 0x25
 1880 0908 01       		.uleb128 0x1
 1881 0909 51       		.byte	0x51
 1882 090a 03       		.uleb128 0x3
 1883 090b 91       		.byte	0x91
 1884 090c 64       		.sleb128 -28
 1885 090d 06       		.byte	0x6
 1886 090e 25       		.uleb128 0x25
 1887 090f 01       		.uleb128 0x1
 1888 0910 50       		.byte	0x50
 1889 0911 02       		.uleb128 0x2
 1890 0912 76       		.byte	0x76
 1891 0913 00       		.sleb128 0
 1892 0914 00       		.byte	0
 1893 0915 24       		.uleb128 0x24
 1894 0916 7A000000 		.4byte	.LVL107
 1895 091a F8070000 		.4byte	0x7f8
 1896 091e 25       		.uleb128 0x25
 1897 091f 01       		.uleb128 0x1
 1898 0920 53       		.byte	0x53
 1899 0921 01       		.uleb128 0x1
 1900 0922 38       		.byte	0x38
 1901 0923 25       		.uleb128 0x25
 1902 0924 01       		.uleb128 0x1
 1903 0925 52       		.byte	0x52
 1904 0926 01       		.uleb128 0x1
 1905 0927 31       		.byte	0x31
 1906 0928 00       		.byte	0
 1907 0929 00       		.byte	0
 1908 092a 29       		.uleb128 0x29
 1909 092b 1D060000 		.4byte	.LASF104
 1910 092f 01       		.byte	0x1
 1911 0930 0A01     		.2byte	0x10a
 1912 0932 A4000000 		.4byte	0xa4
 1913 0936 00000000 		.4byte	.LFB4
 1914 093a 24000000 		.4byte	.LFE4-.LFB4
 1915 093e 01       		.uleb128 0x1
 1916 093f 9C       		.byte	0x9c
 1917 0940 AE090000 		.4byte	0x9ae
ARM GAS  C:\Users\Administrator\AppData\Local\Temp\ccrG5N5m.s 			page 61


 1918 0944 20       		.uleb128 0x20
 1919 0945 C6050000 		.4byte	.LASF79
 1920 0949 01       		.byte	0x1
 1921 094a 0A01     		.2byte	0x10a
 1922 094c 83000000 		.4byte	0x83
 1923 0950 E6060000 		.4byte	.LLST46
 1924 0954 20       		.uleb128 0x20
 1925 0955 2B000000 		.4byte	.LASF80
 1926 0959 01       		.byte	0x1
 1927 095a 0A01     		.2byte	0x10a
 1928 095c 83000000 		.4byte	0x83
 1929 0960 07070000 		.4byte	.LLST47
 1930 0964 26       		.uleb128 0x26
 1931 0965 07000000 		.4byte	.LASF102
 1932 0969 01       		.byte	0x1
 1933 096a 0C01     		.2byte	0x10c
 1934 096c 83000000 		.4byte	0x83
 1935 0970 28070000 		.4byte	.LLST48
 1936 0974 26       		.uleb128 0x26
 1937 0975 EE070000 		.4byte	.LASF77
 1938 0979 01       		.byte	0x1
 1939 097a 0E01     		.2byte	0x10e
 1940 097c 6F030000 		.4byte	0x36f
 1941 0980 47070000 		.4byte	.LLST49
 1942 0984 26       		.uleb128 0x26
 1943 0985 C4040000 		.4byte	.LASF82
 1944 0989 01       		.byte	0x1
 1945 098a 0F01     		.2byte	0x10f
 1946 098c 0A050000 		.4byte	0x50a
 1947 0990 72070000 		.4byte	.LLST50
 1948 0994 26       		.uleb128 0x26
 1949 0995 F1020000 		.4byte	.LASF85
 1950 0999 01       		.byte	0x1
 1951 099a 1001     		.2byte	0x110
 1952 099c 15050000 		.4byte	0x515
 1953 09a0 85070000 		.4byte	.LLST51
 1954 09a4 1C       		.uleb128 0x1c
 1955 09a5 1C000000 		.4byte	.LVL121
 1956 09a9 5D080000 		.4byte	0x85d
 1957 09ad 00       		.byte	0
 1958 09ae 2E       		.uleb128 0x2e
 1959 09af 34000000 		.4byte	.LASF105
 1960 09b3 01       		.byte	0x1
 1961 09b4 D1       		.byte	0xd1
 1962 09b5 A4000000 		.4byte	0xa4
 1963 09b9 00000000 		.4byte	.LFB3
 1964 09bd 2C000000 		.4byte	.LFE3-.LFB3
 1965 09c1 01       		.uleb128 0x1
 1966 09c2 9C       		.byte	0x9c
 1967 09c3 290A0000 		.4byte	0xa29
 1968 09c7 2F       		.uleb128 0x2f
 1969 09c8 C6050000 		.4byte	.LASF79
 1970 09cc 01       		.byte	0x1
 1971 09cd D1       		.byte	0xd1
 1972 09ce 83000000 		.4byte	0x83
 1973 09d2 98070000 		.4byte	.LLST52
 1974 09d6 1A       		.uleb128 0x1a
ARM GAS  C:\Users\Administrator\AppData\Local\Temp\ccrG5N5m.s 			page 62


 1975 09d7 2B000000 		.4byte	.LASF80
 1976 09db 01       		.byte	0x1
 1977 09dc D3       		.byte	0xd3
 1978 09dd 83000000 		.4byte	0x83
 1979 09e1 C4070000 		.4byte	.LLST53
 1980 09e5 1A       		.uleb128 0x1a
 1981 09e6 4E060000 		.4byte	.LASF81
 1982 09ea 01       		.byte	0x1
 1983 09eb D4       		.byte	0xd4
 1984 09ec 83000000 		.4byte	0x83
 1985 09f0 05080000 		.4byte	.LLST54
 1986 09f4 1A       		.uleb128 0x1a
 1987 09f5 C4040000 		.4byte	.LASF82
 1988 09f9 01       		.byte	0x1
 1989 09fa D6       		.byte	0xd6
 1990 09fb 0A050000 		.4byte	0x50a
 1991 09ff 18080000 		.4byte	.LLST55
 1992 0a03 1A       		.uleb128 0x1a
 1993 0a04 53000000 		.4byte	.LASF106
 1994 0a08 01       		.byte	0x1
 1995 0a09 D7       		.byte	0xd7
 1996 0a0a A4000000 		.4byte	0xa4
 1997 0a0e 2B080000 		.4byte	.LLST56
 1998 0a12 24       		.uleb128 0x24
 1999 0a13 18000000 		.4byte	.LVL127
 2000 0a17 2A090000 		.4byte	0x92a
 2001 0a1b 25       		.uleb128 0x25
 2002 0a1c 01       		.uleb128 0x1
 2003 0a1d 51       		.byte	0x51
 2004 0a1e 02       		.uleb128 0x2
 2005 0a1f 74       		.byte	0x74
 2006 0a20 00       		.sleb128 0
 2007 0a21 25       		.uleb128 0x25
 2008 0a22 01       		.uleb128 0x1
 2009 0a23 50       		.byte	0x50
 2010 0a24 02       		.uleb128 0x2
 2011 0a25 76       		.byte	0x76
 2012 0a26 00       		.sleb128 0
 2013 0a27 00       		.byte	0
 2014 0a28 00       		.byte	0
 2015 0a29 2E       		.uleb128 0x2e
 2016 0a2a 8F030000 		.4byte	.LASF107
 2017 0a2e 01       		.byte	0x1
 2018 0a2f A4       		.byte	0xa4
 2019 0a30 A4000000 		.4byte	0xa4
 2020 0a34 00000000 		.4byte	.LFB2
 2021 0a38 1C000000 		.4byte	.LFE2-.LFB2
 2022 0a3c 01       		.uleb128 0x1
 2023 0a3d 9C       		.byte	0x9c
 2024 0a3e 710A0000 		.4byte	0xa71
 2025 0a42 1A       		.uleb128 0x1a
 2026 0a43 C6050000 		.4byte	.LASF79
 2027 0a47 01       		.byte	0x1
 2028 0a48 A6       		.byte	0xa6
 2029 0a49 83000000 		.4byte	0x83
 2030 0a4d 55080000 		.4byte	.LLST57
 2031 0a51 1A       		.uleb128 0x1a
ARM GAS  C:\Users\Administrator\AppData\Local\Temp\ccrG5N5m.s 			page 63


 2032 0a52 53000000 		.4byte	.LASF106
 2033 0a56 01       		.byte	0x1
 2034 0a57 A7       		.byte	0xa7
 2035 0a58 A4000000 		.4byte	0xa4
 2036 0a5c 97080000 		.4byte	.LLST58
 2037 0a60 24       		.uleb128 0x24
 2038 0a61 0E000000 		.4byte	.LVL136
 2039 0a65 AE090000 		.4byte	0x9ae
 2040 0a69 25       		.uleb128 0x25
 2041 0a6a 01       		.uleb128 0x1
 2042 0a6b 50       		.byte	0x50
 2043 0a6c 02       		.uleb128 0x2
 2044 0a6d 74       		.byte	0x74
 2045 0a6e 00       		.sleb128 0
 2046 0a6f 00       		.byte	0
 2047 0a70 00       		.byte	0
 2048 0a71 30       		.uleb128 0x30
 2049 0a72 DA040000 		.4byte	.LASF113
 2050 0a76 05       		.byte	0x5
 2051 0a77 2C04     		.2byte	0x42c
 2052 0a79 7D0A0000 		.4byte	0xa7d
 2053 0a7d 1D       		.uleb128 0x1d
 2054 0a7e AF030000 		.4byte	0x3af
 2055 0a82 31       		.uleb128 0x31
 2056 0a83 EF050000 		.4byte	.LASF109
 2057 0a87 04       		.byte	0x4
 2058 0a88 9E       		.byte	0x9e
 2059 0a89 9D0A0000 		.4byte	0xa9d
 2060 0a8d 32       		.uleb128 0x32
 2061 0a8e 77000000 		.4byte	0x77
 2062 0a92 32       		.uleb128 0x32
 2063 0a93 77000000 		.4byte	0x77
 2064 0a97 32       		.uleb128 0x32
 2065 0a98 75030000 		.4byte	0x375
 2066 0a9c 00       		.byte	0
 2067 0a9d 33       		.uleb128 0x33
 2068 0a9e F6060000 		.4byte	.LASF114
 2069 0aa2 04       		.byte	0x4
 2070 0aa3 A2       		.byte	0xa2
 2071 0aa4 32       		.uleb128 0x32
 2072 0aa5 77000000 		.4byte	0x77
 2073 0aa9 32       		.uleb128 0x32
 2074 0aaa 77000000 		.4byte	0x77
 2075 0aae 32       		.uleb128 0x32
 2076 0aaf 75030000 		.4byte	0x375
 2077 0ab3 00       		.byte	0
 2078 0ab4 00       		.byte	0
 2079              		.section	.debug_abbrev,"",%progbits
 2080              	.Ldebug_abbrev0:
 2081 0000 01       		.uleb128 0x1
 2082 0001 11       		.uleb128 0x11
 2083 0002 01       		.byte	0x1
 2084 0003 25       		.uleb128 0x25
 2085 0004 0E       		.uleb128 0xe
 2086 0005 13       		.uleb128 0x13
 2087 0006 0B       		.uleb128 0xb
 2088 0007 03       		.uleb128 0x3
ARM GAS  C:\Users\Administrator\AppData\Local\Temp\ccrG5N5m.s 			page 64


 2089 0008 0E       		.uleb128 0xe
 2090 0009 1B       		.uleb128 0x1b
 2091 000a 0E       		.uleb128 0xe
 2092 000b 55       		.uleb128 0x55
 2093 000c 17       		.uleb128 0x17
 2094 000d 11       		.uleb128 0x11
 2095 000e 01       		.uleb128 0x1
 2096 000f 10       		.uleb128 0x10
 2097 0010 17       		.uleb128 0x17
 2098 0011 00       		.byte	0
 2099 0012 00       		.byte	0
 2100 0013 02       		.uleb128 0x2
 2101 0014 24       		.uleb128 0x24
 2102 0015 00       		.byte	0
 2103 0016 0B       		.uleb128 0xb
 2104 0017 0B       		.uleb128 0xb
 2105 0018 3E       		.uleb128 0x3e
 2106 0019 0B       		.uleb128 0xb
 2107 001a 03       		.uleb128 0x3
 2108 001b 0E       		.uleb128 0xe
 2109 001c 00       		.byte	0
 2110 001d 00       		.byte	0
 2111 001e 03       		.uleb128 0x3
 2112 001f 24       		.uleb128 0x24
 2113 0020 00       		.byte	0
 2114 0021 0B       		.uleb128 0xb
 2115 0022 0B       		.uleb128 0xb
 2116 0023 3E       		.uleb128 0x3e
 2117 0024 0B       		.uleb128 0xb
 2118 0025 03       		.uleb128 0x3
 2119 0026 08       		.uleb128 0x8
 2120 0027 00       		.byte	0
 2121 0028 00       		.byte	0
 2122 0029 04       		.uleb128 0x4
 2123 002a 16       		.uleb128 0x16
 2124 002b 00       		.byte	0
 2125 002c 03       		.uleb128 0x3
 2126 002d 0E       		.uleb128 0xe
 2127 002e 3A       		.uleb128 0x3a
 2128 002f 0B       		.uleb128 0xb
 2129 0030 3B       		.uleb128 0x3b
 2130 0031 05       		.uleb128 0x5
 2131 0032 49       		.uleb128 0x49
 2132 0033 13       		.uleb128 0x13
 2133 0034 00       		.byte	0
 2134 0035 00       		.byte	0
 2135 0036 05       		.uleb128 0x5
 2136 0037 0F       		.uleb128 0xf
 2137 0038 00       		.byte	0
 2138 0039 0B       		.uleb128 0xb
 2139 003a 0B       		.uleb128 0xb
 2140 003b 00       		.byte	0
 2141 003c 00       		.byte	0
 2142 003d 06       		.uleb128 0x6
 2143 003e 0F       		.uleb128 0xf
 2144 003f 00       		.byte	0
 2145 0040 0B       		.uleb128 0xb
ARM GAS  C:\Users\Administrator\AppData\Local\Temp\ccrG5N5m.s 			page 65


 2146 0041 0B       		.uleb128 0xb
 2147 0042 49       		.uleb128 0x49
 2148 0043 13       		.uleb128 0x13
 2149 0044 00       		.byte	0
 2150 0045 00       		.byte	0
 2151 0046 07       		.uleb128 0x7
 2152 0047 13       		.uleb128 0x13
 2153 0048 01       		.byte	0x1
 2154 0049 0B       		.uleb128 0xb
 2155 004a 0B       		.uleb128 0xb
 2156 004b 3A       		.uleb128 0x3a
 2157 004c 0B       		.uleb128 0xb
 2158 004d 3B       		.uleb128 0x3b
 2159 004e 0B       		.uleb128 0xb
 2160 004f 01       		.uleb128 0x1
 2161 0050 13       		.uleb128 0x13
 2162 0051 00       		.byte	0
 2163 0052 00       		.byte	0
 2164 0053 08       		.uleb128 0x8
 2165 0054 0D       		.uleb128 0xd
 2166 0055 00       		.byte	0
 2167 0056 03       		.uleb128 0x3
 2168 0057 0E       		.uleb128 0xe
 2169 0058 3A       		.uleb128 0x3a
 2170 0059 0B       		.uleb128 0xb
 2171 005a 3B       		.uleb128 0x3b
 2172 005b 0B       		.uleb128 0xb
 2173 005c 49       		.uleb128 0x49
 2174 005d 13       		.uleb128 0x13
 2175 005e 38       		.uleb128 0x38
 2176 005f 0B       		.uleb128 0xb
 2177 0060 00       		.byte	0
 2178 0061 00       		.byte	0
 2179 0062 09       		.uleb128 0x9
 2180 0063 16       		.uleb128 0x16
 2181 0064 00       		.byte	0
 2182 0065 03       		.uleb128 0x3
 2183 0066 0E       		.uleb128 0xe
 2184 0067 3A       		.uleb128 0x3a
 2185 0068 0B       		.uleb128 0xb
 2186 0069 3B       		.uleb128 0x3b
 2187 006a 0B       		.uleb128 0xb
 2188 006b 49       		.uleb128 0x49
 2189 006c 13       		.uleb128 0x13
 2190 006d 00       		.byte	0
 2191 006e 00       		.byte	0
 2192 006f 0A       		.uleb128 0xa
 2193 0070 04       		.uleb128 0x4
 2194 0071 01       		.byte	0x1
 2195 0072 0B       		.uleb128 0xb
 2196 0073 0B       		.uleb128 0xb
 2197 0074 3A       		.uleb128 0x3a
 2198 0075 0B       		.uleb128 0xb
 2199 0076 3B       		.uleb128 0x3b
 2200 0077 0B       		.uleb128 0xb
 2201 0078 01       		.uleb128 0x1
 2202 0079 13       		.uleb128 0x13
ARM GAS  C:\Users\Administrator\AppData\Local\Temp\ccrG5N5m.s 			page 66


 2203 007a 00       		.byte	0
 2204 007b 00       		.byte	0
 2205 007c 0B       		.uleb128 0xb
 2206 007d 28       		.uleb128 0x28
 2207 007e 00       		.byte	0
 2208 007f 03       		.uleb128 0x3
 2209 0080 0E       		.uleb128 0xe
 2210 0081 1C       		.uleb128 0x1c
 2211 0082 0D       		.uleb128 0xd
 2212 0083 00       		.byte	0
 2213 0084 00       		.byte	0
 2214 0085 0C       		.uleb128 0xc
 2215 0086 01       		.uleb128 0x1
 2216 0087 01       		.byte	0x1
 2217 0088 49       		.uleb128 0x49
 2218 0089 13       		.uleb128 0x13
 2219 008a 01       		.uleb128 0x1
 2220 008b 13       		.uleb128 0x13
 2221 008c 00       		.byte	0
 2222 008d 00       		.byte	0
 2223 008e 0D       		.uleb128 0xd
 2224 008f 21       		.uleb128 0x21
 2225 0090 00       		.byte	0
 2226 0091 49       		.uleb128 0x49
 2227 0092 13       		.uleb128 0x13
 2228 0093 2F       		.uleb128 0x2f
 2229 0094 0B       		.uleb128 0xb
 2230 0095 00       		.byte	0
 2231 0096 00       		.byte	0
 2232 0097 0E       		.uleb128 0xe
 2233 0098 13       		.uleb128 0x13
 2234 0099 01       		.byte	0x1
 2235 009a 0B       		.uleb128 0xb
 2236 009b 0B       		.uleb128 0xb
 2237 009c 3A       		.uleb128 0x3a
 2238 009d 0B       		.uleb128 0xb
 2239 009e 3B       		.uleb128 0x3b
 2240 009f 05       		.uleb128 0x5
 2241 00a0 01       		.uleb128 0x1
 2242 00a1 13       		.uleb128 0x13
 2243 00a2 00       		.byte	0
 2244 00a3 00       		.byte	0
 2245 00a4 0F       		.uleb128 0xf
 2246 00a5 0D       		.uleb128 0xd
 2247 00a6 00       		.byte	0
 2248 00a7 03       		.uleb128 0x3
 2249 00a8 08       		.uleb128 0x8
 2250 00a9 3A       		.uleb128 0x3a
 2251 00aa 0B       		.uleb128 0xb
 2252 00ab 3B       		.uleb128 0x3b
 2253 00ac 05       		.uleb128 0x5
 2254 00ad 49       		.uleb128 0x49
 2255 00ae 13       		.uleb128 0x13
 2256 00af 38       		.uleb128 0x38
 2257 00b0 0B       		.uleb128 0xb
 2258 00b1 00       		.byte	0
 2259 00b2 00       		.byte	0
ARM GAS  C:\Users\Administrator\AppData\Local\Temp\ccrG5N5m.s 			page 67


 2260 00b3 10       		.uleb128 0x10
 2261 00b4 0D       		.uleb128 0xd
 2262 00b5 00       		.byte	0
 2263 00b6 03       		.uleb128 0x3
 2264 00b7 0E       		.uleb128 0xe
 2265 00b8 3A       		.uleb128 0x3a
 2266 00b9 0B       		.uleb128 0xb
 2267 00ba 3B       		.uleb128 0x3b
 2268 00bb 05       		.uleb128 0x5
 2269 00bc 49       		.uleb128 0x49
 2270 00bd 13       		.uleb128 0x13
 2271 00be 38       		.uleb128 0x38
 2272 00bf 0B       		.uleb128 0xb
 2273 00c0 00       		.byte	0
 2274 00c1 00       		.byte	0
 2275 00c2 11       		.uleb128 0x11
 2276 00c3 26       		.uleb128 0x26
 2277 00c4 00       		.byte	0
 2278 00c5 00       		.byte	0
 2279 00c6 00       		.byte	0
 2280 00c7 12       		.uleb128 0x12
 2281 00c8 13       		.uleb128 0x13
 2282 00c9 01       		.byte	0x1
 2283 00ca 0B       		.uleb128 0xb
 2284 00cb 05       		.uleb128 0x5
 2285 00cc 3A       		.uleb128 0x3a
 2286 00cd 0B       		.uleb128 0xb
 2287 00ce 3B       		.uleb128 0x3b
 2288 00cf 05       		.uleb128 0x5
 2289 00d0 01       		.uleb128 0x1
 2290 00d1 13       		.uleb128 0x13
 2291 00d2 00       		.byte	0
 2292 00d3 00       		.byte	0
 2293 00d4 13       		.uleb128 0x13
 2294 00d5 17       		.uleb128 0x17
 2295 00d6 01       		.byte	0x1
 2296 00d7 0B       		.uleb128 0xb
 2297 00d8 0B       		.uleb128 0xb
 2298 00d9 3A       		.uleb128 0x3a
 2299 00da 0B       		.uleb128 0xb
 2300 00db 3B       		.uleb128 0x3b
 2301 00dc 05       		.uleb128 0x5
 2302 00dd 01       		.uleb128 0x1
 2303 00de 13       		.uleb128 0x13
 2304 00df 00       		.byte	0
 2305 00e0 00       		.byte	0
 2306 00e1 14       		.uleb128 0x14
 2307 00e2 0D       		.uleb128 0xd
 2308 00e3 00       		.byte	0
 2309 00e4 03       		.uleb128 0x3
 2310 00e5 08       		.uleb128 0x8
 2311 00e6 3A       		.uleb128 0x3a
 2312 00e7 0B       		.uleb128 0xb
 2313 00e8 3B       		.uleb128 0x3b
 2314 00e9 05       		.uleb128 0x5
 2315 00ea 49       		.uleb128 0x49
 2316 00eb 13       		.uleb128 0x13
ARM GAS  C:\Users\Administrator\AppData\Local\Temp\ccrG5N5m.s 			page 68


 2317 00ec 00       		.byte	0
 2318 00ed 00       		.byte	0
 2319 00ee 15       		.uleb128 0x15
 2320 00ef 0D       		.uleb128 0xd
 2321 00f0 00       		.byte	0
 2322 00f1 03       		.uleb128 0x3
 2323 00f2 0E       		.uleb128 0xe
 2324 00f3 3A       		.uleb128 0x3a
 2325 00f4 0B       		.uleb128 0xb
 2326 00f5 3B       		.uleb128 0x3b
 2327 00f6 05       		.uleb128 0x5
 2328 00f7 49       		.uleb128 0x49
 2329 00f8 13       		.uleb128 0x13
 2330 00f9 00       		.byte	0
 2331 00fa 00       		.byte	0
 2332 00fb 16       		.uleb128 0x16
 2333 00fc 2E       		.uleb128 0x2e
 2334 00fd 01       		.byte	0x1
 2335 00fe 3F       		.uleb128 0x3f
 2336 00ff 19       		.uleb128 0x19
 2337 0100 03       		.uleb128 0x3
 2338 0101 0E       		.uleb128 0xe
 2339 0102 3A       		.uleb128 0x3a
 2340 0103 0B       		.uleb128 0xb
 2341 0104 3B       		.uleb128 0x3b
 2342 0105 05       		.uleb128 0x5
 2343 0106 27       		.uleb128 0x27
 2344 0107 19       		.uleb128 0x19
 2345 0108 20       		.uleb128 0x20
 2346 0109 0B       		.uleb128 0xb
 2347 010a 01       		.uleb128 0x1
 2348 010b 13       		.uleb128 0x13
 2349 010c 00       		.byte	0
 2350 010d 00       		.byte	0
 2351 010e 17       		.uleb128 0x17
 2352 010f 05       		.uleb128 0x5
 2353 0110 00       		.byte	0
 2354 0111 03       		.uleb128 0x3
 2355 0112 0E       		.uleb128 0xe
 2356 0113 3A       		.uleb128 0x3a
 2357 0114 0B       		.uleb128 0xb
 2358 0115 3B       		.uleb128 0x3b
 2359 0116 05       		.uleb128 0x5
 2360 0117 49       		.uleb128 0x49
 2361 0118 13       		.uleb128 0x13
 2362 0119 00       		.byte	0
 2363 011a 00       		.byte	0
 2364 011b 18       		.uleb128 0x18
 2365 011c 34       		.uleb128 0x34
 2366 011d 00       		.byte	0
 2367 011e 03       		.uleb128 0x3
 2368 011f 0E       		.uleb128 0xe
 2369 0120 3A       		.uleb128 0x3a
 2370 0121 0B       		.uleb128 0xb
 2371 0122 3B       		.uleb128 0x3b
 2372 0123 05       		.uleb128 0x5
 2373 0124 49       		.uleb128 0x49
ARM GAS  C:\Users\Administrator\AppData\Local\Temp\ccrG5N5m.s 			page 69


 2374 0125 13       		.uleb128 0x13
 2375 0126 00       		.byte	0
 2376 0127 00       		.byte	0
 2377 0128 19       		.uleb128 0x19
 2378 0129 2E       		.uleb128 0x2e
 2379 012a 01       		.byte	0x1
 2380 012b 3F       		.uleb128 0x3f
 2381 012c 19       		.uleb128 0x19
 2382 012d 03       		.uleb128 0x3
 2383 012e 0E       		.uleb128 0xe
 2384 012f 3A       		.uleb128 0x3a
 2385 0130 0B       		.uleb128 0xb
 2386 0131 3B       		.uleb128 0x3b
 2387 0132 0B       		.uleb128 0xb
 2388 0133 27       		.uleb128 0x27
 2389 0134 19       		.uleb128 0x19
 2390 0135 11       		.uleb128 0x11
 2391 0136 01       		.uleb128 0x1
 2392 0137 12       		.uleb128 0x12
 2393 0138 06       		.uleb128 0x6
 2394 0139 40       		.uleb128 0x40
 2395 013a 18       		.uleb128 0x18
 2396 013b 9742     		.uleb128 0x2117
 2397 013d 19       		.uleb128 0x19
 2398 013e 01       		.uleb128 0x1
 2399 013f 13       		.uleb128 0x13
 2400 0140 00       		.byte	0
 2401 0141 00       		.byte	0
 2402 0142 1A       		.uleb128 0x1a
 2403 0143 34       		.uleb128 0x34
 2404 0144 00       		.byte	0
 2405 0145 03       		.uleb128 0x3
 2406 0146 0E       		.uleb128 0xe
 2407 0147 3A       		.uleb128 0x3a
 2408 0148 0B       		.uleb128 0xb
 2409 0149 3B       		.uleb128 0x3b
 2410 014a 0B       		.uleb128 0xb
 2411 014b 49       		.uleb128 0x49
 2412 014c 13       		.uleb128 0x13
 2413 014d 02       		.uleb128 0x2
 2414 014e 17       		.uleb128 0x17
 2415 014f 00       		.byte	0
 2416 0150 00       		.byte	0
 2417 0151 1B       		.uleb128 0x1b
 2418 0152 34       		.uleb128 0x34
 2419 0153 00       		.byte	0
 2420 0154 03       		.uleb128 0x3
 2421 0155 0E       		.uleb128 0xe
 2422 0156 3A       		.uleb128 0x3a
 2423 0157 0B       		.uleb128 0xb
 2424 0158 3B       		.uleb128 0x3b
 2425 0159 0B       		.uleb128 0xb
 2426 015a 49       		.uleb128 0x49
 2427 015b 13       		.uleb128 0x13
 2428 015c 00       		.byte	0
 2429 015d 00       		.byte	0
 2430 015e 1C       		.uleb128 0x1c
ARM GAS  C:\Users\Administrator\AppData\Local\Temp\ccrG5N5m.s 			page 70


 2431 015f 898201   		.uleb128 0x4109
 2432 0162 00       		.byte	0
 2433 0163 11       		.uleb128 0x11
 2434 0164 01       		.uleb128 0x1
 2435 0165 31       		.uleb128 0x31
 2436 0166 13       		.uleb128 0x13
 2437 0167 00       		.byte	0
 2438 0168 00       		.byte	0
 2439 0169 1D       		.uleb128 0x1d
 2440 016a 26       		.uleb128 0x26
 2441 016b 00       		.byte	0
 2442 016c 49       		.uleb128 0x49
 2443 016d 13       		.uleb128 0x13
 2444 016e 00       		.byte	0
 2445 016f 00       		.byte	0
 2446 0170 1E       		.uleb128 0x1e
 2447 0171 2E       		.uleb128 0x2e
 2448 0172 01       		.byte	0x1
 2449 0173 3F       		.uleb128 0x3f
 2450 0174 19       		.uleb128 0x19
 2451 0175 03       		.uleb128 0x3
 2452 0176 0E       		.uleb128 0xe
 2453 0177 3A       		.uleb128 0x3a
 2454 0178 0B       		.uleb128 0xb
 2455 0179 3B       		.uleb128 0x3b
 2456 017a 05       		.uleb128 0x5
 2457 017b 27       		.uleb128 0x27
 2458 017c 19       		.uleb128 0x19
 2459 017d 11       		.uleb128 0x11
 2460 017e 01       		.uleb128 0x1
 2461 017f 12       		.uleb128 0x12
 2462 0180 06       		.uleb128 0x6
 2463 0181 40       		.uleb128 0x40
 2464 0182 18       		.uleb128 0x18
 2465 0183 9742     		.uleb128 0x2117
 2466 0185 19       		.uleb128 0x19
 2467 0186 01       		.uleb128 0x1
 2468 0187 13       		.uleb128 0x13
 2469 0188 00       		.byte	0
 2470 0189 00       		.byte	0
 2471 018a 1F       		.uleb128 0x1f
 2472 018b 05       		.uleb128 0x5
 2473 018c 00       		.byte	0
 2474 018d 03       		.uleb128 0x3
 2475 018e 0E       		.uleb128 0xe
 2476 018f 3A       		.uleb128 0x3a
 2477 0190 0B       		.uleb128 0xb
 2478 0191 3B       		.uleb128 0x3b
 2479 0192 05       		.uleb128 0x5
 2480 0193 49       		.uleb128 0x49
 2481 0194 13       		.uleb128 0x13
 2482 0195 02       		.uleb128 0x2
 2483 0196 18       		.uleb128 0x18
 2484 0197 00       		.byte	0
 2485 0198 00       		.byte	0
 2486 0199 20       		.uleb128 0x20
 2487 019a 05       		.uleb128 0x5
ARM GAS  C:\Users\Administrator\AppData\Local\Temp\ccrG5N5m.s 			page 71


 2488 019b 00       		.byte	0
 2489 019c 03       		.uleb128 0x3
 2490 019d 0E       		.uleb128 0xe
 2491 019e 3A       		.uleb128 0x3a
 2492 019f 0B       		.uleb128 0xb
 2493 01a0 3B       		.uleb128 0x3b
 2494 01a1 05       		.uleb128 0x5
 2495 01a2 49       		.uleb128 0x49
 2496 01a3 13       		.uleb128 0x13
 2497 01a4 02       		.uleb128 0x2
 2498 01a5 17       		.uleb128 0x17
 2499 01a6 00       		.byte	0
 2500 01a7 00       		.byte	0
 2501 01a8 21       		.uleb128 0x21
 2502 01a9 2E       		.uleb128 0x2e
 2503 01aa 01       		.byte	0x1
 2504 01ab 31       		.uleb128 0x31
 2505 01ac 13       		.uleb128 0x13
 2506 01ad 11       		.uleb128 0x11
 2507 01ae 01       		.uleb128 0x1
 2508 01af 12       		.uleb128 0x12
 2509 01b0 06       		.uleb128 0x6
 2510 01b1 40       		.uleb128 0x40
 2511 01b2 18       		.uleb128 0x18
 2512 01b3 9742     		.uleb128 0x2117
 2513 01b5 19       		.uleb128 0x19
 2514 01b6 01       		.uleb128 0x1
 2515 01b7 13       		.uleb128 0x13
 2516 01b8 00       		.byte	0
 2517 01b9 00       		.byte	0
 2518 01ba 22       		.uleb128 0x22
 2519 01bb 05       		.uleb128 0x5
 2520 01bc 00       		.byte	0
 2521 01bd 31       		.uleb128 0x31
 2522 01be 13       		.uleb128 0x13
 2523 01bf 02       		.uleb128 0x2
 2524 01c0 17       		.uleb128 0x17
 2525 01c1 00       		.byte	0
 2526 01c2 00       		.byte	0
 2527 01c3 23       		.uleb128 0x23
 2528 01c4 34       		.uleb128 0x34
 2529 01c5 00       		.byte	0
 2530 01c6 31       		.uleb128 0x31
 2531 01c7 13       		.uleb128 0x13
 2532 01c8 02       		.uleb128 0x2
 2533 01c9 17       		.uleb128 0x17
 2534 01ca 00       		.byte	0
 2535 01cb 00       		.byte	0
 2536 01cc 24       		.uleb128 0x24
 2537 01cd 898201   		.uleb128 0x4109
 2538 01d0 01       		.byte	0x1
 2539 01d1 11       		.uleb128 0x11
 2540 01d2 01       		.uleb128 0x1
 2541 01d3 31       		.uleb128 0x31
 2542 01d4 13       		.uleb128 0x13
 2543 01d5 00       		.byte	0
 2544 01d6 00       		.byte	0
ARM GAS  C:\Users\Administrator\AppData\Local\Temp\ccrG5N5m.s 			page 72


 2545 01d7 25       		.uleb128 0x25
 2546 01d8 8A8201   		.uleb128 0x410a
 2547 01db 00       		.byte	0
 2548 01dc 02       		.uleb128 0x2
 2549 01dd 18       		.uleb128 0x18
 2550 01de 9142     		.uleb128 0x2111
 2551 01e0 18       		.uleb128 0x18
 2552 01e1 00       		.byte	0
 2553 01e2 00       		.byte	0
 2554 01e3 26       		.uleb128 0x26
 2555 01e4 34       		.uleb128 0x34
 2556 01e5 00       		.byte	0
 2557 01e6 03       		.uleb128 0x3
 2558 01e7 0E       		.uleb128 0xe
 2559 01e8 3A       		.uleb128 0x3a
 2560 01e9 0B       		.uleb128 0xb
 2561 01ea 3B       		.uleb128 0x3b
 2562 01eb 05       		.uleb128 0x5
 2563 01ec 49       		.uleb128 0x49
 2564 01ed 13       		.uleb128 0x13
 2565 01ee 02       		.uleb128 0x2
 2566 01ef 17       		.uleb128 0x17
 2567 01f0 00       		.byte	0
 2568 01f1 00       		.byte	0
 2569 01f2 27       		.uleb128 0x27
 2570 01f3 1D       		.uleb128 0x1d
 2571 01f4 01       		.byte	0x1
 2572 01f5 31       		.uleb128 0x31
 2573 01f6 13       		.uleb128 0x13
 2574 01f7 11       		.uleb128 0x11
 2575 01f8 01       		.uleb128 0x1
 2576 01f9 12       		.uleb128 0x12
 2577 01fa 06       		.uleb128 0x6
 2578 01fb 58       		.uleb128 0x58
 2579 01fc 0B       		.uleb128 0xb
 2580 01fd 59       		.uleb128 0x59
 2581 01fe 05       		.uleb128 0x5
 2582 01ff 00       		.byte	0
 2583 0200 00       		.byte	0
 2584 0201 28       		.uleb128 0x28
 2585 0202 0B       		.uleb128 0xb
 2586 0203 01       		.byte	0x1
 2587 0204 11       		.uleb128 0x11
 2588 0205 01       		.uleb128 0x1
 2589 0206 12       		.uleb128 0x12
 2590 0207 06       		.uleb128 0x6
 2591 0208 00       		.byte	0
 2592 0209 00       		.byte	0
 2593 020a 29       		.uleb128 0x29
 2594 020b 2E       		.uleb128 0x2e
 2595 020c 01       		.byte	0x1
 2596 020d 3F       		.uleb128 0x3f
 2597 020e 19       		.uleb128 0x19
 2598 020f 03       		.uleb128 0x3
 2599 0210 0E       		.uleb128 0xe
 2600 0211 3A       		.uleb128 0x3a
 2601 0212 0B       		.uleb128 0xb
ARM GAS  C:\Users\Administrator\AppData\Local\Temp\ccrG5N5m.s 			page 73


 2602 0213 3B       		.uleb128 0x3b
 2603 0214 05       		.uleb128 0x5
 2604 0215 27       		.uleb128 0x27
 2605 0216 19       		.uleb128 0x19
 2606 0217 49       		.uleb128 0x49
 2607 0218 13       		.uleb128 0x13
 2608 0219 11       		.uleb128 0x11
 2609 021a 01       		.uleb128 0x1
 2610 021b 12       		.uleb128 0x12
 2611 021c 06       		.uleb128 0x6
 2612 021d 40       		.uleb128 0x40
 2613 021e 18       		.uleb128 0x18
 2614 021f 9742     		.uleb128 0x2117
 2615 0221 19       		.uleb128 0x19
 2616 0222 01       		.uleb128 0x1
 2617 0223 13       		.uleb128 0x13
 2618 0224 00       		.byte	0
 2619 0225 00       		.byte	0
 2620 0226 2A       		.uleb128 0x2a
 2621 0227 05       		.uleb128 0x5
 2622 0228 00       		.byte	0
 2623 0229 03       		.uleb128 0x3
 2624 022a 08       		.uleb128 0x8
 2625 022b 3A       		.uleb128 0x3a
 2626 022c 0B       		.uleb128 0xb
 2627 022d 3B       		.uleb128 0x3b
 2628 022e 05       		.uleb128 0x5
 2629 022f 49       		.uleb128 0x49
 2630 0230 13       		.uleb128 0x13
 2631 0231 02       		.uleb128 0x2
 2632 0232 18       		.uleb128 0x18
 2633 0233 00       		.byte	0
 2634 0234 00       		.byte	0
 2635 0235 2B       		.uleb128 0x2b
 2636 0236 34       		.uleb128 0x34
 2637 0237 00       		.byte	0
 2638 0238 03       		.uleb128 0x3
 2639 0239 0E       		.uleb128 0xe
 2640 023a 3A       		.uleb128 0x3a
 2641 023b 0B       		.uleb128 0xb
 2642 023c 3B       		.uleb128 0x3b
 2643 023d 05       		.uleb128 0x5
 2644 023e 49       		.uleb128 0x49
 2645 023f 13       		.uleb128 0x13
 2646 0240 02       		.uleb128 0x2
 2647 0241 18       		.uleb128 0x18
 2648 0242 00       		.byte	0
 2649 0243 00       		.byte	0
 2650 0244 2C       		.uleb128 0x2c
 2651 0245 34       		.uleb128 0x34
 2652 0246 00       		.byte	0
 2653 0247 03       		.uleb128 0x3
 2654 0248 0E       		.uleb128 0xe
 2655 0249 3A       		.uleb128 0x3a
 2656 024a 0B       		.uleb128 0xb
 2657 024b 3B       		.uleb128 0x3b
 2658 024c 05       		.uleb128 0x5
ARM GAS  C:\Users\Administrator\AppData\Local\Temp\ccrG5N5m.s 			page 74


 2659 024d 49       		.uleb128 0x49
 2660 024e 13       		.uleb128 0x13
 2661 024f 1C       		.uleb128 0x1c
 2662 0250 0B       		.uleb128 0xb
 2663 0251 00       		.byte	0
 2664 0252 00       		.byte	0
 2665 0253 2D       		.uleb128 0x2d
 2666 0254 898201   		.uleb128 0x4109
 2667 0257 01       		.byte	0x1
 2668 0258 11       		.uleb128 0x11
 2669 0259 01       		.uleb128 0x1
 2670 025a 31       		.uleb128 0x31
 2671 025b 13       		.uleb128 0x13
 2672 025c 01       		.uleb128 0x1
 2673 025d 13       		.uleb128 0x13
 2674 025e 00       		.byte	0
 2675 025f 00       		.byte	0
 2676 0260 2E       		.uleb128 0x2e
 2677 0261 2E       		.uleb128 0x2e
 2678 0262 01       		.byte	0x1
 2679 0263 3F       		.uleb128 0x3f
 2680 0264 19       		.uleb128 0x19
 2681 0265 03       		.uleb128 0x3
 2682 0266 0E       		.uleb128 0xe
 2683 0267 3A       		.uleb128 0x3a
 2684 0268 0B       		.uleb128 0xb
 2685 0269 3B       		.uleb128 0x3b
 2686 026a 0B       		.uleb128 0xb
 2687 026b 27       		.uleb128 0x27
 2688 026c 19       		.uleb128 0x19
 2689 026d 49       		.uleb128 0x49
 2690 026e 13       		.uleb128 0x13
 2691 026f 11       		.uleb128 0x11
 2692 0270 01       		.uleb128 0x1
 2693 0271 12       		.uleb128 0x12
 2694 0272 06       		.uleb128 0x6
 2695 0273 40       		.uleb128 0x40
 2696 0274 18       		.uleb128 0x18
 2697 0275 9742     		.uleb128 0x2117
 2698 0277 19       		.uleb128 0x19
 2699 0278 01       		.uleb128 0x1
 2700 0279 13       		.uleb128 0x13
 2701 027a 00       		.byte	0
 2702 027b 00       		.byte	0
 2703 027c 2F       		.uleb128 0x2f
 2704 027d 05       		.uleb128 0x5
 2705 027e 00       		.byte	0
 2706 027f 03       		.uleb128 0x3
 2707 0280 0E       		.uleb128 0xe
 2708 0281 3A       		.uleb128 0x3a
 2709 0282 0B       		.uleb128 0xb
 2710 0283 3B       		.uleb128 0x3b
 2711 0284 0B       		.uleb128 0xb
 2712 0285 49       		.uleb128 0x49
 2713 0286 13       		.uleb128 0x13
 2714 0287 02       		.uleb128 0x2
 2715 0288 17       		.uleb128 0x17
ARM GAS  C:\Users\Administrator\AppData\Local\Temp\ccrG5N5m.s 			page 75


 2716 0289 00       		.byte	0
 2717 028a 00       		.byte	0
 2718 028b 30       		.uleb128 0x30
 2719 028c 34       		.uleb128 0x34
 2720 028d 00       		.byte	0
 2721 028e 03       		.uleb128 0x3
 2722 028f 0E       		.uleb128 0xe
 2723 0290 3A       		.uleb128 0x3a
 2724 0291 0B       		.uleb128 0xb
 2725 0292 3B       		.uleb128 0x3b
 2726 0293 05       		.uleb128 0x5
 2727 0294 49       		.uleb128 0x49
 2728 0295 13       		.uleb128 0x13
 2729 0296 3F       		.uleb128 0x3f
 2730 0297 19       		.uleb128 0x19
 2731 0298 3C       		.uleb128 0x3c
 2732 0299 19       		.uleb128 0x19
 2733 029a 00       		.byte	0
 2734 029b 00       		.byte	0
 2735 029c 31       		.uleb128 0x31
 2736 029d 2E       		.uleb128 0x2e
 2737 029e 01       		.byte	0x1
 2738 029f 3F       		.uleb128 0x3f
 2739 02a0 19       		.uleb128 0x19
 2740 02a1 03       		.uleb128 0x3
 2741 02a2 0E       		.uleb128 0xe
 2742 02a3 3A       		.uleb128 0x3a
 2743 02a4 0B       		.uleb128 0xb
 2744 02a5 3B       		.uleb128 0x3b
 2745 02a6 0B       		.uleb128 0xb
 2746 02a7 27       		.uleb128 0x27
 2747 02a8 19       		.uleb128 0x19
 2748 02a9 3C       		.uleb128 0x3c
 2749 02aa 19       		.uleb128 0x19
 2750 02ab 01       		.uleb128 0x1
 2751 02ac 13       		.uleb128 0x13
 2752 02ad 00       		.byte	0
 2753 02ae 00       		.byte	0
 2754 02af 32       		.uleb128 0x32
 2755 02b0 05       		.uleb128 0x5
 2756 02b1 00       		.byte	0
 2757 02b2 49       		.uleb128 0x49
 2758 02b3 13       		.uleb128 0x13
 2759 02b4 00       		.byte	0
 2760 02b5 00       		.byte	0
 2761 02b6 33       		.uleb128 0x33
 2762 02b7 2E       		.uleb128 0x2e
 2763 02b8 01       		.byte	0x1
 2764 02b9 3F       		.uleb128 0x3f
 2765 02ba 19       		.uleb128 0x19
 2766 02bb 03       		.uleb128 0x3
 2767 02bc 0E       		.uleb128 0xe
 2768 02bd 3A       		.uleb128 0x3a
 2769 02be 0B       		.uleb128 0xb
 2770 02bf 3B       		.uleb128 0x3b
 2771 02c0 0B       		.uleb128 0xb
 2772 02c1 27       		.uleb128 0x27
ARM GAS  C:\Users\Administrator\AppData\Local\Temp\ccrG5N5m.s 			page 76


 2773 02c2 19       		.uleb128 0x19
 2774 02c3 3C       		.uleb128 0x3c
 2775 02c4 19       		.uleb128 0x19
 2776 02c5 00       		.byte	0
 2777 02c6 00       		.byte	0
 2778 02c7 00       		.byte	0
 2779              		.section	.debug_loc,"",%progbits
 2780              	.Ldebug_loc0:
 2781              	.LLST0:
 2782 0000 02000000 		.4byte	.LVL0
 2783 0004 06000000 		.4byte	.LVL1
 2784 0008 0200     		.2byte	0x2
 2785 000a 3C       		.byte	0x3c
 2786 000b 9F       		.byte	0x9f
 2787 000c 06000000 		.4byte	.LVL1
 2788 0010 3C000000 		.4byte	.LVL14
 2789 0014 0100     		.2byte	0x1
 2790 0016 55       		.byte	0x55
 2791 0017 3C000000 		.4byte	.LVL14
 2792 001b 3E000000 		.4byte	.LVL15
 2793 001f 0100     		.2byte	0x1
 2794 0021 53       		.byte	0x53
 2795 0022 3E000000 		.4byte	.LVL15
 2796 0026 42000000 		.4byte	.LVL16
 2797 002a 0100     		.2byte	0x1
 2798 002c 55       		.byte	0x55
 2799 002d 42000000 		.4byte	.LVL16
 2800 0031 48000000 		.4byte	.LFE1
 2801 0035 0300     		.2byte	0x3
 2802 0037 73       		.byte	0x73
 2803 0038 7F       		.sleb128 -1
 2804 0039 9F       		.byte	0x9f
 2805 003a 00000000 		.4byte	0
 2806 003e 00000000 		.4byte	0
 2807              	.LLST1:
 2808 0042 10000000 		.4byte	.LVL4
 2809 0046 12000000 		.4byte	.LVL5
 2810 004a 0100     		.2byte	0x1
 2811 004c 53       		.byte	0x53
 2812 004d 12000000 		.4byte	.LVL5
 2813 0051 34000000 		.4byte	.LVL12
 2814 0055 0100     		.2byte	0x1
 2815 0057 54       		.byte	0x54
 2816 0058 34000000 		.4byte	.LVL12
 2817 005c 36000000 		.4byte	.LVL13
 2818 0060 0100     		.2byte	0x1
 2819 0062 53       		.byte	0x53
 2820 0063 36000000 		.4byte	.LVL13
 2821 0067 3C000000 		.4byte	.LVL14
 2822 006b 0100     		.2byte	0x1
 2823 006d 54       		.byte	0x54
 2824 006e 00000000 		.4byte	0
 2825 0072 00000000 		.4byte	0
 2826              	.LLST2:
 2827 0076 10000000 		.4byte	.LVL4
 2828 007a 12000000 		.4byte	.LVL5
 2829 007e 0100     		.2byte	0x1
ARM GAS  C:\Users\Administrator\AppData\Local\Temp\ccrG5N5m.s 			page 77


 2830 0080 53       		.byte	0x53
 2831 0081 00000000 		.4byte	0
 2832 0085 00000000 		.4byte	0
 2833              	.LLST3:
 2834 0089 0C000000 		.4byte	.LVL2
 2835 008d 10000000 		.4byte	.LVL4
 2836 0091 0100     		.2byte	0x1
 2837 0093 53       		.byte	0x53
 2838 0094 00000000 		.4byte	0
 2839 0098 00000000 		.4byte	0
 2840              	.LLST4:
 2841 009c 02000000 		.4byte	.LVL0
 2842 00a0 06000000 		.4byte	.LVL1
 2843 00a4 0200     		.2byte	0x2
 2844 00a6 30       		.byte	0x30
 2845 00a7 9F       		.byte	0x9f
 2846 00a8 1A000000 		.4byte	.LVL6
 2847 00ac 20000000 		.4byte	.LVL7
 2848 00b0 0100     		.2byte	0x1
 2849 00b2 57       		.byte	0x57
 2850 00b3 20000000 		.4byte	.LVL7
 2851 00b7 2C000000 		.4byte	.LVL10
 2852 00bb 0600     		.2byte	0x6
 2853 00bd 77       		.byte	0x77
 2854 00be 00       		.sleb128 0
 2855 00bf 70       		.byte	0x70
 2856 00c0 00       		.sleb128 0
 2857 00c1 22       		.byte	0x22
 2858 00c2 9F       		.byte	0x9f
 2859 00c3 2C000000 		.4byte	.LVL10
 2860 00c7 34000000 		.4byte	.LVL12
 2861 00cb 0D00     		.2byte	0xd
 2862 00cd 74       		.byte	0x74
 2863 00ce 00       		.sleb128 0
 2864 00cf 32       		.byte	0x32
 2865 00d0 24       		.byte	0x24
 2866 00d1 74       		.byte	0x74
 2867 00d2 00       		.sleb128 0
 2868 00d3 22       		.byte	0x22
 2869 00d4 31       		.byte	0x31
 2870 00d5 24       		.byte	0x24
 2871 00d6 77       		.byte	0x77
 2872 00d7 00       		.sleb128 0
 2873 00d8 22       		.byte	0x22
 2874 00d9 9F       		.byte	0x9f
 2875 00da 00000000 		.4byte	0
 2876 00de 00000000 		.4byte	0
 2877              	.LLST5:
 2878 00e2 0E000000 		.4byte	.LVL3
 2879 00e6 3C000000 		.4byte	.LVL14
 2880 00ea 0100     		.2byte	0x1
 2881 00ec 56       		.byte	0x56
 2882 00ed 00000000 		.4byte	0
 2883 00f1 00000000 		.4byte	0
 2884              	.LLST6:
 2885 00f5 02000000 		.4byte	.LVL0
 2886 00f9 06000000 		.4byte	.LVL1
ARM GAS  C:\Users\Administrator\AppData\Local\Temp\ccrG5N5m.s 			page 78


 2887 00fd 0200     		.2byte	0x2
 2888 00ff 30       		.byte	0x30
 2889 0100 9F       		.byte	0x9f
 2890 0101 22000000 		.4byte	.LVL8
 2891 0105 31000000 		.4byte	.LVL11-1
 2892 0109 0100     		.2byte	0x1
 2893 010b 52       		.byte	0x52
 2894 010c 00000000 		.4byte	0
 2895 0110 00000000 		.4byte	0
 2896              	.LLST7:
 2897 0114 00000000 		.4byte	.LVL17
 2898 0118 02000000 		.4byte	.LVL18
 2899 011c 0100     		.2byte	0x1
 2900 011e 51       		.byte	0x51
 2901 011f 02000000 		.4byte	.LVL18
 2902 0123 1C000000 		.4byte	.LFE10
 2903 0127 0400     		.2byte	0x4
 2904 0129 F3       		.byte	0xf3
 2905 012a 01       		.uleb128 0x1
 2906 012b 51       		.byte	0x51
 2907 012c 9F       		.byte	0x9f
 2908 012d 00000000 		.4byte	0
 2909 0131 00000000 		.4byte	0
 2910              	.LLST8:
 2911 0135 00000000 		.4byte	.LVL17
 2912 0139 16000000 		.4byte	.LVL19
 2913 013d 0100     		.2byte	0x1
 2914 013f 52       		.byte	0x52
 2915 0140 16000000 		.4byte	.LVL19
 2916 0144 1C000000 		.4byte	.LFE10
 2917 0148 0400     		.2byte	0x4
 2918 014a F3       		.byte	0xf3
 2919 014b 01       		.uleb128 0x1
 2920 014c 52       		.byte	0x52
 2921 014d 9F       		.byte	0x9f
 2922 014e 00000000 		.4byte	0
 2923 0152 00000000 		.4byte	0
 2924              	.LLST9:
 2925 0156 00000000 		.4byte	.LVL20
 2926 015a 0A000000 		.4byte	.LVL22
 2927 015e 0100     		.2byte	0x1
 2928 0160 50       		.byte	0x50
 2929 0161 0A000000 		.4byte	.LVL22
 2930 0165 1C000000 		.4byte	.LVL28
 2931 0169 0100     		.2byte	0x1
 2932 016b 56       		.byte	0x56
 2933 016c 1C000000 		.4byte	.LVL28
 2934 0170 1E000000 		.4byte	.LFE9
 2935 0174 0400     		.2byte	0x4
 2936 0176 F3       		.byte	0xf3
 2937 0177 01       		.uleb128 0x1
 2938 0178 50       		.byte	0x50
 2939 0179 9F       		.byte	0x9f
 2940 017a 00000000 		.4byte	0
 2941 017e 00000000 		.4byte	0
 2942              	.LLST10:
 2943 0182 00000000 		.4byte	.LVL20
ARM GAS  C:\Users\Administrator\AppData\Local\Temp\ccrG5N5m.s 			page 79


 2944 0186 0A000000 		.4byte	.LVL22
 2945 018a 0100     		.2byte	0x1
 2946 018c 51       		.byte	0x51
 2947 018d 0A000000 		.4byte	.LVL22
 2948 0191 1C000000 		.4byte	.LVL27
 2949 0195 0100     		.2byte	0x1
 2950 0197 55       		.byte	0x55
 2951 0198 1C000000 		.4byte	.LVL27
 2952 019c 1E000000 		.4byte	.LFE9
 2953 01a0 0400     		.2byte	0x4
 2954 01a2 F3       		.byte	0xf3
 2955 01a3 01       		.uleb128 0x1
 2956 01a4 51       		.byte	0x51
 2957 01a5 9F       		.byte	0x9f
 2958 01a6 00000000 		.4byte	0
 2959 01aa 00000000 		.4byte	0
 2960              	.LLST11:
 2961 01ae 06000000 		.4byte	.LVL21
 2962 01b2 0A000000 		.4byte	.LVL22
 2963 01b6 0200     		.2byte	0x2
 2964 01b8 31       		.byte	0x31
 2965 01b9 9F       		.byte	0x9f
 2966 01ba 0A000000 		.4byte	.LVL22
 2967 01be 16000000 		.4byte	.LVL24
 2968 01c2 0100     		.2byte	0x1
 2969 01c4 54       		.byte	0x54
 2970 01c5 16000000 		.4byte	.LVL24
 2971 01c9 18000000 		.4byte	.LVL25
 2972 01cd 0100     		.2byte	0x1
 2973 01cf 53       		.byte	0x53
 2974 01d0 18000000 		.4byte	.LVL25
 2975 01d4 1C000000 		.4byte	.LVL26
 2976 01d8 0100     		.2byte	0x1
 2977 01da 54       		.byte	0x54
 2978 01db 1C000000 		.4byte	.LVL26
 2979 01df 1E000000 		.4byte	.LFE9
 2980 01e3 0300     		.2byte	0x3
 2981 01e5 73       		.byte	0x73
 2982 01e6 7F       		.sleb128 -1
 2983 01e7 9F       		.byte	0x9f
 2984 01e8 00000000 		.4byte	0
 2985 01ec 00000000 		.4byte	0
 2986              	.LLST12:
 2987 01f0 00000000 		.4byte	.LVL29
 2988 01f4 04000000 		.4byte	.LVL31
 2989 01f8 0100     		.2byte	0x1
 2990 01fa 50       		.byte	0x50
 2991 01fb 04000000 		.4byte	.LVL31
 2992 01ff 30000000 		.4byte	.LFE8
 2993 0203 0400     		.2byte	0x4
 2994 0205 F3       		.byte	0xf3
 2995 0206 01       		.uleb128 0x1
 2996 0207 50       		.byte	0x50
 2997 0208 9F       		.byte	0x9f
 2998 0209 00000000 		.4byte	0
 2999 020d 00000000 		.4byte	0
 3000              	.LLST13:
ARM GAS  C:\Users\Administrator\AppData\Local\Temp\ccrG5N5m.s 			page 80


 3001 0211 00000000 		.4byte	.LVL29
 3002 0215 0C000000 		.4byte	.LVL33
 3003 0219 0100     		.2byte	0x1
 3004 021b 51       		.byte	0x51
 3005 021c 0C000000 		.4byte	.LVL33
 3006 0220 30000000 		.4byte	.LFE8
 3007 0224 0400     		.2byte	0x4
 3008 0226 F3       		.byte	0xf3
 3009 0227 01       		.uleb128 0x1
 3010 0228 51       		.byte	0x51
 3011 0229 9F       		.byte	0x9f
 3012 022a 00000000 		.4byte	0
 3013 022e 00000000 		.4byte	0
 3014              	.LLST14:
 3015 0232 02000000 		.4byte	.LVL30
 3016 0236 08000000 		.4byte	.LVL32
 3017 023a 0200     		.2byte	0x2
 3018 023c 30       		.byte	0x30
 3019 023d 9F       		.byte	0x9f
 3020 023e 08000000 		.4byte	.LVL32
 3021 0242 12000000 		.4byte	.LVL34
 3022 0246 0200     		.2byte	0x2
 3023 0248 70       		.byte	0x70
 3024 0249 08       		.sleb128 8
 3025 024a 12000000 		.4byte	.LVL34
 3026 024e 2A000000 		.4byte	.LVL40
 3027 0252 0100     		.2byte	0x1
 3028 0254 54       		.byte	0x54
 3029 0255 00000000 		.4byte	0
 3030 0259 00000000 		.4byte	0
 3031              	.LLST15:
 3032 025d 08000000 		.4byte	.LVL32
 3033 0261 18000000 		.4byte	.LVL36
 3034 0265 0100     		.2byte	0x1
 3035 0267 50       		.byte	0x50
 3036 0268 00000000 		.4byte	0
 3037 026c 00000000 		.4byte	0
 3038              	.LLST16:
 3039 0270 14000000 		.4byte	.LVL35
 3040 0274 2A000000 		.4byte	.LVL42
 3041 0278 0100     		.2byte	0x1
 3042 027a 56       		.byte	0x56
 3043 027b 00000000 		.4byte	0
 3044 027f 00000000 		.4byte	0
 3045              	.LLST17:
 3046 0283 14000000 		.4byte	.LVL35
 3047 0287 2A000000 		.4byte	.LVL40
 3048 028b 0100     		.2byte	0x1
 3049 028d 54       		.byte	0x54
 3050 028e 00000000 		.4byte	0
 3051 0292 00000000 		.4byte	0
 3052              	.LLST18:
 3053 0296 14000000 		.4byte	.LVL35
 3054 029a 18000000 		.4byte	.LVL36
 3055 029e 0200     		.2byte	0x2
 3056 02a0 31       		.byte	0x31
 3057 02a1 9F       		.byte	0x9f
ARM GAS  C:\Users\Administrator\AppData\Local\Temp\ccrG5N5m.s 			page 81


 3058 02a2 18000000 		.4byte	.LVL36
 3059 02a6 24000000 		.4byte	.LVL38
 3060 02aa 0100     		.2byte	0x1
 3061 02ac 55       		.byte	0x55
 3062 02ad 24000000 		.4byte	.LVL38
 3063 02b1 26000000 		.4byte	.LVL39
 3064 02b5 0100     		.2byte	0x1
 3065 02b7 53       		.byte	0x53
 3066 02b8 26000000 		.4byte	.LVL39
 3067 02bc 2A000000 		.4byte	.LVL41
 3068 02c0 0100     		.2byte	0x1
 3069 02c2 55       		.byte	0x55
 3070 02c3 2A000000 		.4byte	.LVL41
 3071 02c7 30000000 		.4byte	.LFE8
 3072 02cb 0300     		.2byte	0x3
 3073 02cd 73       		.byte	0x73
 3074 02ce 7F       		.sleb128 -1
 3075 02cf 9F       		.byte	0x9f
 3076 02d0 00000000 		.4byte	0
 3077 02d4 00000000 		.4byte	0
 3078              	.LLST19:
 3079 02d8 00000000 		.4byte	.LVL43
 3080 02dc 0E000000 		.4byte	.LVL47
 3081 02e0 0100     		.2byte	0x1
 3082 02e2 50       		.byte	0x50
 3083 02e3 0E000000 		.4byte	.LVL47
 3084 02e7 1E000000 		.4byte	.LVL52
 3085 02eb 0100     		.2byte	0x1
 3086 02ed 55       		.byte	0x55
 3087 02ee 1E000000 		.4byte	.LVL52
 3088 02f2 24000000 		.4byte	.LFE7
 3089 02f6 0400     		.2byte	0x4
 3090 02f8 F3       		.byte	0xf3
 3091 02f9 01       		.uleb128 0x1
 3092 02fa 50       		.byte	0x50
 3093 02fb 9F       		.byte	0x9f
 3094 02fc 00000000 		.4byte	0
 3095 0300 00000000 		.4byte	0
 3096              	.LLST20:
 3097 0304 0C000000 		.4byte	.LVL46
 3098 0308 0E000000 		.4byte	.LVL47
 3099 030c 0100     		.2byte	0x1
 3100 030e 53       		.byte	0x53
 3101 030f 0E000000 		.4byte	.LVL47
 3102 0313 18000000 		.4byte	.LVL49
 3103 0317 0100     		.2byte	0x1
 3104 0319 54       		.byte	0x54
 3105 031a 18000000 		.4byte	.LVL49
 3106 031e 1A000000 		.4byte	.LVL50
 3107 0322 0100     		.2byte	0x1
 3108 0324 53       		.byte	0x53
 3109 0325 1A000000 		.4byte	.LVL50
 3110 0329 1E000000 		.4byte	.LVL51
 3111 032d 0100     		.2byte	0x1
 3112 032f 54       		.byte	0x54
 3113 0330 1E000000 		.4byte	.LVL51
 3114 0334 24000000 		.4byte	.LFE7
ARM GAS  C:\Users\Administrator\AppData\Local\Temp\ccrG5N5m.s 			page 82


 3115 0338 0300     		.2byte	0x3
 3116 033a 73       		.byte	0x73
 3117 033b 7F       		.sleb128 -1
 3118 033c 9F       		.byte	0x9f
 3119 033d 00000000 		.4byte	0
 3120 0341 00000000 		.4byte	0
 3121              	.LLST21:
 3122 0345 0C000000 		.4byte	.LVL46
 3123 0349 0E000000 		.4byte	.LVL47
 3124 034d 0100     		.2byte	0x1
 3125 034f 53       		.byte	0x53
 3126 0350 00000000 		.4byte	0
 3127 0354 00000000 		.4byte	0
 3128              	.LLST22:
 3129 0358 0A000000 		.4byte	.LVL45
 3130 035c 0C000000 		.4byte	.LVL46
 3131 0360 0100     		.2byte	0x1
 3132 0362 53       		.byte	0x53
 3133 0363 00000000 		.4byte	0
 3134 0367 00000000 		.4byte	0
 3135              	.LLST23:
 3136 036b 02000000 		.4byte	.LVL53
 3137 036f 06000000 		.4byte	.LVL54
 3138 0373 0200     		.2byte	0x2
 3139 0375 3C       		.byte	0x3c
 3140 0376 9F       		.byte	0x9f
 3141 0377 06000000 		.4byte	.LVL54
 3142 037b 0E000000 		.4byte	.LVL56
 3143 037f 0100     		.2byte	0x1
 3144 0381 54       		.byte	0x54
 3145 0382 0E000000 		.4byte	.LVL56
 3146 0386 10000000 		.4byte	.LVL57
 3147 038a 0100     		.2byte	0x1
 3148 038c 53       		.byte	0x53
 3149 038d 10000000 		.4byte	.LVL57
 3150 0391 14000000 		.4byte	.LVL58
 3151 0395 0100     		.2byte	0x1
 3152 0397 54       		.byte	0x54
 3153 0398 14000000 		.4byte	.LVL58
 3154 039c 16000000 		.4byte	.LFE6
 3155 03a0 0300     		.2byte	0x3
 3156 03a2 73       		.byte	0x73
 3157 03a3 7F       		.sleb128 -1
 3158 03a4 9F       		.byte	0x9f
 3159 03a5 00000000 		.4byte	0
 3160 03a9 00000000 		.4byte	0
 3161              	.LLST24:
 3162 03ad 00000000 		.4byte	.LVL59
 3163 03b1 04000000 		.4byte	.LVL61
 3164 03b5 0100     		.2byte	0x1
 3165 03b7 50       		.byte	0x50
 3166 03b8 04000000 		.4byte	.LVL61
 3167 03bc 2C000000 		.4byte	.LFE11
 3168 03c0 0400     		.2byte	0x4
 3169 03c2 F3       		.byte	0xf3
 3170 03c3 01       		.uleb128 0x1
 3171 03c4 50       		.byte	0x50
ARM GAS  C:\Users\Administrator\AppData\Local\Temp\ccrG5N5m.s 			page 83


 3172 03c5 9F       		.byte	0x9f
 3173 03c6 00000000 		.4byte	0
 3174 03ca 00000000 		.4byte	0
 3175              	.LLST25:
 3176 03ce 00000000 		.4byte	.LVL59
 3177 03d2 18000000 		.4byte	.LVL68
 3178 03d6 0100     		.2byte	0x1
 3179 03d8 51       		.byte	0x51
 3180 03d9 18000000 		.4byte	.LVL68
 3181 03dd 2C000000 		.4byte	.LFE11
 3182 03e1 0400     		.2byte	0x4
 3183 03e3 F3       		.byte	0xf3
 3184 03e4 01       		.uleb128 0x1
 3185 03e5 51       		.byte	0x51
 3186 03e6 9F       		.byte	0x9f
 3187 03e7 00000000 		.4byte	0
 3188 03eb 00000000 		.4byte	0
 3189              	.LLST26:
 3190 03ef 08000000 		.4byte	.LVL62
 3191 03f3 16000000 		.4byte	.LVL67
 3192 03f7 0100     		.2byte	0x1
 3193 03f9 50       		.byte	0x50
 3194 03fa 00000000 		.4byte	0
 3195 03fe 00000000 		.4byte	0
 3196              	.LLST27:
 3197 0402 0A000000 		.4byte	.LVL63
 3198 0406 24000000 		.4byte	.LVL71
 3199 040a 0100     		.2byte	0x1
 3200 040c 54       		.byte	0x54
 3201 040d 00000000 		.4byte	0
 3202 0411 00000000 		.4byte	0
 3203              	.LLST28:
 3204 0415 0A000000 		.4byte	.LVL63
 3205 0419 0C000000 		.4byte	.LVL64
 3206 041d 0200     		.2byte	0x2
 3207 041f 30       		.byte	0x30
 3208 0420 9F       		.byte	0x9f
 3209 0421 0C000000 		.4byte	.LVL64
 3210 0425 12000000 		.4byte	.LVL65
 3211 0429 0100     		.2byte	0x1
 3212 042b 55       		.byte	0x55
 3213 042c 12000000 		.4byte	.LVL65
 3214 0430 23000000 		.4byte	.LVL70-1
 3215 0434 0600     		.2byte	0x6
 3216 0436 75       		.byte	0x75
 3217 0437 00       		.sleb128 0
 3218 0438 73       		.byte	0x73
 3219 0439 00       		.sleb128 0
 3220 043a 22       		.byte	0x22
 3221 043b 9F       		.byte	0x9f
 3222 043c 23000000 		.4byte	.LVL70-1
 3223 0440 24000000 		.4byte	.LVL72
 3224 0444 0F00     		.2byte	0xf
 3225 0446 F3       		.byte	0xf3
 3226 0447 01       		.uleb128 0x1
 3227 0448 51       		.byte	0x51
 3228 0449 32       		.byte	0x32
ARM GAS  C:\Users\Administrator\AppData\Local\Temp\ccrG5N5m.s 			page 84


 3229 044a 24       		.byte	0x24
 3230 044b F3       		.byte	0xf3
 3231 044c 01       		.uleb128 0x1
 3232 044d 51       		.byte	0x51
 3233 044e 22       		.byte	0x22
 3234 044f 31       		.byte	0x31
 3235 0450 24       		.byte	0x24
 3236 0451 75       		.byte	0x75
 3237 0452 00       		.sleb128 0
 3238 0453 22       		.byte	0x22
 3239 0454 9F       		.byte	0x9f
 3240 0455 00000000 		.4byte	0
 3241 0459 00000000 		.4byte	0
 3242              	.LLST29:
 3243 045d 0A000000 		.4byte	.LVL63
 3244 0461 14000000 		.4byte	.LVL66
 3245 0465 0200     		.2byte	0x2
 3246 0467 30       		.byte	0x30
 3247 0468 9F       		.byte	0x9f
 3248 0469 14000000 		.4byte	.LVL66
 3249 046d 23000000 		.4byte	.LVL70-1
 3250 0471 0100     		.2byte	0x1
 3251 0473 52       		.byte	0x52
 3252 0474 00000000 		.4byte	0
 3253 0478 00000000 		.4byte	0
 3254              	.LLST30:
 3255 047c 00000000 		.4byte	.LVL73
 3256 0480 04000000 		.4byte	.LVL75
 3257 0484 0100     		.2byte	0x1
 3258 0486 50       		.byte	0x50
 3259 0487 04000000 		.4byte	.LVL75
 3260 048b 2C000000 		.4byte	.LFE12
 3261 048f 0400     		.2byte	0x4
 3262 0491 F3       		.byte	0xf3
 3263 0492 01       		.uleb128 0x1
 3264 0493 50       		.byte	0x50
 3265 0494 9F       		.byte	0x9f
 3266 0495 00000000 		.4byte	0
 3267 0499 00000000 		.4byte	0
 3268              	.LLST31:
 3269 049d 00000000 		.4byte	.LVL73
 3270 04a1 18000000 		.4byte	.LVL82
 3271 04a5 0100     		.2byte	0x1
 3272 04a7 51       		.byte	0x51
 3273 04a8 18000000 		.4byte	.LVL82
 3274 04ac 2C000000 		.4byte	.LFE12
 3275 04b0 0400     		.2byte	0x4
 3276 04b2 F3       		.byte	0xf3
 3277 04b3 01       		.uleb128 0x1
 3278 04b4 51       		.byte	0x51
 3279 04b5 9F       		.byte	0x9f
 3280 04b6 00000000 		.4byte	0
 3281 04ba 00000000 		.4byte	0
 3282              	.LLST32:
 3283 04be 08000000 		.4byte	.LVL76
 3284 04c2 16000000 		.4byte	.LVL81
 3285 04c6 0100     		.2byte	0x1
ARM GAS  C:\Users\Administrator\AppData\Local\Temp\ccrG5N5m.s 			page 85


 3286 04c8 50       		.byte	0x50
 3287 04c9 00000000 		.4byte	0
 3288 04cd 00000000 		.4byte	0
 3289              	.LLST33:
 3290 04d1 0A000000 		.4byte	.LVL77
 3291 04d5 24000000 		.4byte	.LVL85
 3292 04d9 0100     		.2byte	0x1
 3293 04db 54       		.byte	0x54
 3294 04dc 00000000 		.4byte	0
 3295 04e0 00000000 		.4byte	0
 3296              	.LLST34:
 3297 04e4 0A000000 		.4byte	.LVL77
 3298 04e8 0C000000 		.4byte	.LVL78
 3299 04ec 0200     		.2byte	0x2
 3300 04ee 30       		.byte	0x30
 3301 04ef 9F       		.byte	0x9f
 3302 04f0 0C000000 		.4byte	.LVL78
 3303 04f4 12000000 		.4byte	.LVL79
 3304 04f8 0100     		.2byte	0x1
 3305 04fa 55       		.byte	0x55
 3306 04fb 12000000 		.4byte	.LVL79
 3307 04ff 23000000 		.4byte	.LVL84-1
 3308 0503 0600     		.2byte	0x6
 3309 0505 75       		.byte	0x75
 3310 0506 00       		.sleb128 0
 3311 0507 73       		.byte	0x73
 3312 0508 00       		.sleb128 0
 3313 0509 22       		.byte	0x22
 3314 050a 9F       		.byte	0x9f
 3315 050b 23000000 		.4byte	.LVL84-1
 3316 050f 24000000 		.4byte	.LVL86
 3317 0513 0F00     		.2byte	0xf
 3318 0515 F3       		.byte	0xf3
 3319 0516 01       		.uleb128 0x1
 3320 0517 51       		.byte	0x51
 3321 0518 32       		.byte	0x32
 3322 0519 24       		.byte	0x24
 3323 051a F3       		.byte	0xf3
 3324 051b 01       		.uleb128 0x1
 3325 051c 51       		.byte	0x51
 3326 051d 22       		.byte	0x22
 3327 051e 31       		.byte	0x31
 3328 051f 24       		.byte	0x24
 3329 0520 75       		.byte	0x75
 3330 0521 00       		.sleb128 0
 3331 0522 22       		.byte	0x22
 3332 0523 9F       		.byte	0x9f
 3333 0524 00000000 		.4byte	0
 3334 0528 00000000 		.4byte	0
 3335              	.LLST35:
 3336 052c 0A000000 		.4byte	.LVL77
 3337 0530 14000000 		.4byte	.LVL80
 3338 0534 0200     		.2byte	0x2
 3339 0536 30       		.byte	0x30
 3340 0537 9F       		.byte	0x9f
 3341 0538 14000000 		.4byte	.LVL80
 3342 053c 23000000 		.4byte	.LVL84-1
ARM GAS  C:\Users\Administrator\AppData\Local\Temp\ccrG5N5m.s 			page 86


 3343 0540 0100     		.2byte	0x1
 3344 0542 52       		.byte	0x52
 3345 0543 00000000 		.4byte	0
 3346 0547 00000000 		.4byte	0
 3347              	.LLST36:
 3348 054b 00000000 		.4byte	.LVL87
 3349 054f 02000000 		.4byte	.LVL88
 3350 0553 0100     		.2byte	0x1
 3351 0555 50       		.byte	0x50
 3352 0556 02000000 		.4byte	.LVL88
 3353 055a 14000000 		.4byte	.LFE13
 3354 055e 0400     		.2byte	0x4
 3355 0560 F3       		.byte	0xf3
 3356 0561 01       		.uleb128 0x1
 3357 0562 50       		.byte	0x50
 3358 0563 9F       		.byte	0x9f
 3359 0564 00000000 		.4byte	0
 3360 0568 00000000 		.4byte	0
 3361              	.LLST37:
 3362 056c 00000000 		.4byte	.LVL87
 3363 0570 0E000000 		.4byte	.LVL90
 3364 0574 0100     		.2byte	0x1
 3365 0576 51       		.byte	0x51
 3366 0577 0E000000 		.4byte	.LVL90
 3367 057b 14000000 		.4byte	.LFE13
 3368 057f 0400     		.2byte	0x4
 3369 0581 F3       		.byte	0xf3
 3370 0582 01       		.uleb128 0x1
 3371 0583 51       		.byte	0x51
 3372 0584 9F       		.byte	0x9f
 3373 0585 00000000 		.4byte	0
 3374 0589 00000000 		.4byte	0
 3375              	.LLST38:
 3376 058d 00000000 		.4byte	.LVL87
 3377 0591 04000000 		.4byte	.LVL89
 3378 0595 0100     		.2byte	0x1
 3379 0597 53       		.byte	0x53
 3380 0598 04000000 		.4byte	.LVL89
 3381 059c 14000000 		.4byte	.LFE13
 3382 05a0 0400     		.2byte	0x4
 3383 05a2 F3       		.byte	0xf3
 3384 05a3 01       		.uleb128 0x1
 3385 05a4 53       		.byte	0x53
 3386 05a5 9F       		.byte	0x9f
 3387 05a6 00000000 		.4byte	0
 3388 05aa 00000000 		.4byte	0
 3389              	.LLST39:
 3390 05ae 00000000 		.4byte	.LVL92
 3391 05b2 0E000000 		.4byte	.LVL94
 3392 05b6 0100     		.2byte	0x1
 3393 05b8 50       		.byte	0x50
 3394 05b9 0E000000 		.4byte	.LVL94
 3395 05bd 90000000 		.4byte	.LVL113
 3396 05c1 0100     		.2byte	0x1
 3397 05c3 57       		.byte	0x57
 3398 05c4 90000000 		.4byte	.LVL113
 3399 05c8 92000000 		.4byte	.LFE5
ARM GAS  C:\Users\Administrator\AppData\Local\Temp\ccrG5N5m.s 			page 87


 3400 05cc 0400     		.2byte	0x4
 3401 05ce F3       		.byte	0xf3
 3402 05cf 01       		.uleb128 0x1
 3403 05d0 50       		.byte	0x50
 3404 05d1 9F       		.byte	0x9f
 3405 05d2 00000000 		.4byte	0
 3406 05d6 00000000 		.4byte	0
 3407              	.LLST40:
 3408 05da 00000000 		.4byte	.LVL92
 3409 05de 0E000000 		.4byte	.LVL94
 3410 05e2 0100     		.2byte	0x1
 3411 05e4 51       		.byte	0x51
 3412 05e5 0E000000 		.4byte	.LVL94
 3413 05e9 90000000 		.4byte	.LVL112
 3414 05ed 0100     		.2byte	0x1
 3415 05ef 56       		.byte	0x56
 3416 05f0 90000000 		.4byte	.LVL112
 3417 05f4 92000000 		.4byte	.LFE5
 3418 05f8 0400     		.2byte	0x4
 3419 05fa F3       		.byte	0xf3
 3420 05fb 01       		.uleb128 0x1
 3421 05fc 51       		.byte	0x51
 3422 05fd 9F       		.byte	0x9f
 3423 05fe 00000000 		.4byte	0
 3424 0602 00000000 		.4byte	0
 3425              	.LLST41:
 3426 0606 00000000 		.4byte	.LVL92
 3427 060a 0E000000 		.4byte	.LVL94
 3428 060e 0100     		.2byte	0x1
 3429 0610 52       		.byte	0x52
 3430 0611 0E000000 		.4byte	.LVL94
 3431 0615 92000000 		.4byte	.LFE5
 3432 0619 0400     		.2byte	0x4
 3433 061b F3       		.byte	0xf3
 3434 061c 01       		.uleb128 0x1
 3435 061d 52       		.byte	0x52
 3436 061e 9F       		.byte	0x9f
 3437 061f 00000000 		.4byte	0
 3438 0623 00000000 		.4byte	0
 3439              	.LLST42:
 3440 0627 1C000000 		.4byte	.LVL95
 3441 062b 26000000 		.4byte	.LVL96
 3442 062f 0200     		.2byte	0x2
 3443 0631 31       		.byte	0x31
 3444 0632 9F       		.byte	0x9f
 3445 0633 28000000 		.4byte	.LVL97
 3446 0637 2A000000 		.4byte	.LVL98
 3447 063b 0200     		.2byte	0x2
 3448 063d 30       		.byte	0x30
 3449 063e 9F       		.byte	0x9f
 3450 063f 2A000000 		.4byte	.LVL98
 3451 0643 3A000000 		.4byte	.LVL100
 3452 0647 0100     		.2byte	0x1
 3453 0649 52       		.byte	0x52
 3454 064a 52000000 		.4byte	.LVL102
 3455 064e 74000000 		.4byte	.LVL106
 3456 0652 0100     		.2byte	0x1
ARM GAS  C:\Users\Administrator\AppData\Local\Temp\ccrG5N5m.s 			page 88


 3457 0654 52       		.byte	0x52
 3458 0655 00000000 		.4byte	0
 3459 0659 00000000 		.4byte	0
 3460              	.LLST43:
 3461 065d 1C000000 		.4byte	.LVL95
 3462 0661 26000000 		.4byte	.LVL96
 3463 0665 0100     		.2byte	0x1
 3464 0667 53       		.byte	0x53
 3465 0668 28000000 		.4byte	.LVL97
 3466 066c 36000000 		.4byte	.LVL99
 3467 0670 0100     		.2byte	0x1
 3468 0672 53       		.byte	0x53
 3469 0673 52000000 		.4byte	.LVL102
 3470 0677 64000000 		.4byte	.LVL103
 3471 067b 0100     		.2byte	0x1
 3472 067d 53       		.byte	0x53
 3473 067e 00000000 		.4byte	0
 3474 0682 00000000 		.4byte	0
 3475              	.LLST44:
 3476 0686 0A000000 		.4byte	.LVL93
 3477 068a 0E000000 		.4byte	.LVL94
 3478 068e 0200     		.2byte	0x2
 3479 0690 31       		.byte	0x31
 3480 0691 9F       		.byte	0x9f
 3481 0692 0E000000 		.4byte	.LVL94
 3482 0696 86000000 		.4byte	.LVL109
 3483 069a 0100     		.2byte	0x1
 3484 069c 54       		.byte	0x54
 3485 069d 86000000 		.4byte	.LVL109
 3486 06a1 88000000 		.4byte	.LVL110
 3487 06a5 0100     		.2byte	0x1
 3488 06a7 53       		.byte	0x53
 3489 06a8 88000000 		.4byte	.LVL110
 3490 06ac 90000000 		.4byte	.LVL111
 3491 06b0 0100     		.2byte	0x1
 3492 06b2 54       		.byte	0x54
 3493 06b3 90000000 		.4byte	.LVL111
 3494 06b7 92000000 		.4byte	.LFE5
 3495 06bb 0300     		.2byte	0x3
 3496 06bd 73       		.byte	0x73
 3497 06be 7F       		.sleb128 -1
 3498 06bf 9F       		.byte	0x9f
 3499 06c0 00000000 		.4byte	0
 3500 06c4 00000000 		.4byte	0
 3501              	.LLST45:
 3502 06c8 6C000000 		.4byte	.LVL104
 3503 06cc 79000000 		.4byte	.LVL107-1
 3504 06d0 0100     		.2byte	0x1
 3505 06d2 51       		.byte	0x51
 3506 06d3 7A000000 		.4byte	.LVL107
 3507 06d7 84000000 		.4byte	.LVL108
 3508 06db 0100     		.2byte	0x1
 3509 06dd 50       		.byte	0x50
 3510 06de 00000000 		.4byte	0
 3511 06e2 00000000 		.4byte	0
 3512              	.LLST46:
 3513 06e6 00000000 		.4byte	.LVL114
ARM GAS  C:\Users\Administrator\AppData\Local\Temp\ccrG5N5m.s 			page 89


 3514 06ea 04000000 		.4byte	.LVL116
 3515 06ee 0100     		.2byte	0x1
 3516 06f0 50       		.byte	0x50
 3517 06f1 04000000 		.4byte	.LVL116
 3518 06f5 24000000 		.4byte	.LFE4
 3519 06f9 0400     		.2byte	0x4
 3520 06fb F3       		.byte	0xf3
 3521 06fc 01       		.uleb128 0x1
 3522 06fd 50       		.byte	0x50
 3523 06fe 9F       		.byte	0x9f
 3524 06ff 00000000 		.4byte	0
 3525 0703 00000000 		.4byte	0
 3526              	.LLST47:
 3527 0707 00000000 		.4byte	.LVL114
 3528 070b 0E000000 		.4byte	.LVL119
 3529 070f 0100     		.2byte	0x1
 3530 0711 51       		.byte	0x51
 3531 0712 0E000000 		.4byte	.LVL119
 3532 0716 24000000 		.4byte	.LFE4
 3533 071a 0400     		.2byte	0x4
 3534 071c F3       		.byte	0xf3
 3535 071d 01       		.uleb128 0x1
 3536 071e 51       		.byte	0x51
 3537 071f 9F       		.byte	0x9f
 3538 0720 00000000 		.4byte	0
 3539 0724 00000000 		.4byte	0
 3540              	.LLST48:
 3541 0728 02000000 		.4byte	.LVL115
 3542 072c 1C000000 		.4byte	.LVL121
 3543 0730 0200     		.2byte	0x2
 3544 0732 30       		.byte	0x30
 3545 0733 9F       		.byte	0x9f
 3546 0734 1C000000 		.4byte	.LVL121
 3547 0738 24000000 		.4byte	.LFE4
 3548 073c 0100     		.2byte	0x1
 3549 073e 50       		.byte	0x50
 3550 073f 00000000 		.4byte	0
 3551 0743 00000000 		.4byte	0
 3552              	.LLST49:
 3553 0747 02000000 		.4byte	.LVL115
 3554 074b 0A000000 		.4byte	.LVL118
 3555 074f 0200     		.2byte	0x2
 3556 0751 30       		.byte	0x30
 3557 0752 9F       		.byte	0x9f
 3558 0753 0A000000 		.4byte	.LVL118
 3559 0757 16000000 		.4byte	.LVL120
 3560 075b 0200     		.2byte	0x2
 3561 075d 73       		.byte	0x73
 3562 075e 08       		.sleb128 8
 3563 075f 16000000 		.4byte	.LVL120
 3564 0763 1B000000 		.4byte	.LVL121-1
 3565 0767 0100     		.2byte	0x1
 3566 0769 51       		.byte	0x51
 3567 076a 00000000 		.4byte	0
 3568 076e 00000000 		.4byte	0
 3569              	.LLST50:
 3570 0772 08000000 		.4byte	.LVL117
ARM GAS  C:\Users\Administrator\AppData\Local\Temp\ccrG5N5m.s 			page 90


 3571 0776 1B000000 		.4byte	.LVL121-1
 3572 077a 0100     		.2byte	0x1
 3573 077c 53       		.byte	0x53
 3574 077d 00000000 		.4byte	0
 3575 0781 00000000 		.4byte	0
 3576              	.LLST51:
 3577 0785 0A000000 		.4byte	.LVL118
 3578 0789 1B000000 		.4byte	.LVL121-1
 3579 078d 0100     		.2byte	0x1
 3580 078f 50       		.byte	0x50
 3581 0790 00000000 		.4byte	0
 3582 0794 00000000 		.4byte	0
 3583              	.LLST52:
 3584 0798 00000000 		.4byte	.LVL122
 3585 079c 10000000 		.4byte	.LVL126
 3586 07a0 0100     		.2byte	0x1
 3587 07a2 50       		.byte	0x50
 3588 07a3 10000000 		.4byte	.LVL126
 3589 07a7 24000000 		.4byte	.LVL133
 3590 07ab 0100     		.2byte	0x1
 3591 07ad 56       		.byte	0x56
 3592 07ae 24000000 		.4byte	.LVL133
 3593 07b2 2C000000 		.4byte	.LFE3
 3594 07b6 0400     		.2byte	0x4
 3595 07b8 F3       		.byte	0xf3
 3596 07b9 01       		.uleb128 0x1
 3597 07ba 50       		.byte	0x50
 3598 07bb 9F       		.byte	0x9f
 3599 07bc 00000000 		.4byte	0
 3600 07c0 00000000 		.4byte	0
 3601              	.LLST53:
 3602 07c4 0C000000 		.4byte	.LVL125
 3603 07c8 10000000 		.4byte	.LVL126
 3604 07cc 0100     		.2byte	0x1
 3605 07ce 53       		.byte	0x53
 3606 07cf 10000000 		.4byte	.LVL126
 3607 07d3 1C000000 		.4byte	.LVL129
 3608 07d7 0100     		.2byte	0x1
 3609 07d9 54       		.byte	0x54
 3610 07da 1C000000 		.4byte	.LVL129
 3611 07de 1E000000 		.4byte	.LVL130
 3612 07e2 0100     		.2byte	0x1
 3613 07e4 53       		.byte	0x53
 3614 07e5 1E000000 		.4byte	.LVL130
 3615 07e9 24000000 		.4byte	.LVL131
 3616 07ed 0100     		.2byte	0x1
 3617 07ef 54       		.byte	0x54
 3618 07f0 24000000 		.4byte	.LVL131
 3619 07f4 2C000000 		.4byte	.LFE3
 3620 07f8 0300     		.2byte	0x3
 3621 07fa 73       		.byte	0x73
 3622 07fb 7F       		.sleb128 -1
 3623 07fc 9F       		.byte	0x9f
 3624 07fd 00000000 		.4byte	0
 3625 0801 00000000 		.4byte	0
 3626              	.LLST54:
 3627 0805 0C000000 		.4byte	.LVL125
ARM GAS  C:\Users\Administrator\AppData\Local\Temp\ccrG5N5m.s 			page 91


 3628 0809 10000000 		.4byte	.LVL126
 3629 080d 0100     		.2byte	0x1
 3630 080f 53       		.byte	0x53
 3631 0810 00000000 		.4byte	0
 3632 0814 00000000 		.4byte	0
 3633              	.LLST55:
 3634 0818 0A000000 		.4byte	.LVL124
 3635 081c 0C000000 		.4byte	.LVL125
 3636 0820 0100     		.2byte	0x1
 3637 0822 53       		.byte	0x53
 3638 0823 00000000 		.4byte	0
 3639 0827 00000000 		.4byte	0
 3640              	.LLST56:
 3641 082b 04000000 		.4byte	.LVL123
 3642 082f 10000000 		.4byte	.LVL126
 3643 0833 0200     		.2byte	0x2
 3644 0835 30       		.byte	0x30
 3645 0836 9F       		.byte	0x9f
 3646 0837 10000000 		.4byte	.LVL126
 3647 083b 24000000 		.4byte	.LVL132
 3648 083f 0100     		.2byte	0x1
 3649 0841 55       		.byte	0x55
 3650 0842 24000000 		.4byte	.LVL132
 3651 0846 2C000000 		.4byte	.LFE3
 3652 084a 0100     		.2byte	0x1
 3653 084c 50       		.byte	0x50
 3654 084d 00000000 		.4byte	0
 3655 0851 00000000 		.4byte	0
 3656              	.LLST57:
 3657 0855 02000000 		.4byte	.LVL134
 3658 0859 08000000 		.4byte	.LVL135
 3659 085d 0200     		.2byte	0x2
 3660 085f 3C       		.byte	0x3c
 3661 0860 9F       		.byte	0x9f
 3662 0861 08000000 		.4byte	.LVL135
 3663 0865 12000000 		.4byte	.LVL138
 3664 0869 0100     		.2byte	0x1
 3665 086b 54       		.byte	0x54
 3666 086c 12000000 		.4byte	.LVL138
 3667 0870 14000000 		.4byte	.LVL139
 3668 0874 0100     		.2byte	0x1
 3669 0876 53       		.byte	0x53
 3670 0877 14000000 		.4byte	.LVL139
 3671 087b 1A000000 		.4byte	.LVL140
 3672 087f 0100     		.2byte	0x1
 3673 0881 54       		.byte	0x54
 3674 0882 1A000000 		.4byte	.LVL140
 3675 0886 1C000000 		.4byte	.LFE2
 3676 088a 0300     		.2byte	0x3
 3677 088c 73       		.byte	0x73
 3678 088d 7F       		.sleb128 -1
 3679 088e 9F       		.byte	0x9f
 3680 088f 00000000 		.4byte	0
 3681 0893 00000000 		.4byte	0
 3682              	.LLST58:
 3683 0897 02000000 		.4byte	.LVL134
 3684 089b 08000000 		.4byte	.LVL135
ARM GAS  C:\Users\Administrator\AppData\Local\Temp\ccrG5N5m.s 			page 92


 3685 089f 0200     		.2byte	0x2
 3686 08a1 30       		.byte	0x30
 3687 08a2 9F       		.byte	0x9f
 3688 08a3 08000000 		.4byte	.LVL135
 3689 08a7 1A000000 		.4byte	.LVL141
 3690 08ab 0100     		.2byte	0x1
 3691 08ad 55       		.byte	0x55
 3692 08ae 1A000000 		.4byte	.LVL141
 3693 08b2 1C000000 		.4byte	.LFE2
 3694 08b6 0100     		.2byte	0x1
 3695 08b8 50       		.byte	0x50
 3696 08b9 00000000 		.4byte	0
 3697 08bd 00000000 		.4byte	0
 3698              		.section	.debug_aranges,"",%progbits
 3699 0000 7C000000 		.4byte	0x7c
 3700 0004 0200     		.2byte	0x2
 3701 0006 00000000 		.4byte	.Ldebug_info0
 3702 000a 04       		.byte	0x4
 3703 000b 00       		.byte	0
 3704 000c 0000     		.2byte	0
 3705 000e 0000     		.2byte	0
 3706 0010 00000000 		.4byte	.LFB1
 3707 0014 48000000 		.4byte	.LFE1-.LFB1
 3708 0018 00000000 		.4byte	.LFB10
 3709 001c 1C000000 		.4byte	.LFE10-.LFB10
 3710 0020 00000000 		.4byte	.LFB9
 3711 0024 1E000000 		.4byte	.LFE9-.LFB9
 3712 0028 00000000 		.4byte	.LFB8
 3713 002c 30000000 		.4byte	.LFE8-.LFB8
 3714 0030 00000000 		.4byte	.LFB7
 3715 0034 24000000 		.4byte	.LFE7-.LFB7
 3716 0038 00000000 		.4byte	.LFB6
 3717 003c 16000000 		.4byte	.LFE6-.LFB6
 3718 0040 00000000 		.4byte	.LFB11
 3719 0044 2C000000 		.4byte	.LFE11-.LFB11
 3720 0048 00000000 		.4byte	.LFB12
 3721 004c 2C000000 		.4byte	.LFE12-.LFB12
 3722 0050 00000000 		.4byte	.LFB13
 3723 0054 14000000 		.4byte	.LFE13-.LFB13
 3724 0058 00000000 		.4byte	.LFB5
 3725 005c 92000000 		.4byte	.LFE5-.LFB5
 3726 0060 00000000 		.4byte	.LFB4
 3727 0064 24000000 		.4byte	.LFE4-.LFB4
 3728 0068 00000000 		.4byte	.LFB3
 3729 006c 2C000000 		.4byte	.LFE3-.LFB3
 3730 0070 00000000 		.4byte	.LFB2
 3731 0074 1C000000 		.4byte	.LFE2-.LFB2
 3732 0078 00000000 		.4byte	0
 3733 007c 00000000 		.4byte	0
 3734              		.section	.debug_ranges,"",%progbits
 3735              	.Ldebug_ranges0:
 3736 0000 00000000 		.4byte	.LFB1
 3737 0004 48000000 		.4byte	.LFE1
 3738 0008 00000000 		.4byte	.LFB10
 3739 000c 1C000000 		.4byte	.LFE10
 3740 0010 00000000 		.4byte	.LFB9
 3741 0014 1E000000 		.4byte	.LFE9
ARM GAS  C:\Users\Administrator\AppData\Local\Temp\ccrG5N5m.s 			page 93


 3742 0018 00000000 		.4byte	.LFB8
 3743 001c 30000000 		.4byte	.LFE8
 3744 0020 00000000 		.4byte	.LFB7
 3745 0024 24000000 		.4byte	.LFE7
 3746 0028 00000000 		.4byte	.LFB6
 3747 002c 16000000 		.4byte	.LFE6
 3748 0030 00000000 		.4byte	.LFB11
 3749 0034 2C000000 		.4byte	.LFE11
 3750 0038 00000000 		.4byte	.LFB12
 3751 003c 2C000000 		.4byte	.LFE12
 3752 0040 00000000 		.4byte	.LFB13
 3753 0044 14000000 		.4byte	.LFE13
 3754 0048 00000000 		.4byte	.LFB5
 3755 004c 92000000 		.4byte	.LFE5
 3756 0050 00000000 		.4byte	.LFB4
 3757 0054 24000000 		.4byte	.LFE4
 3758 0058 00000000 		.4byte	.LFB3
 3759 005c 2C000000 		.4byte	.LFE3
 3760 0060 00000000 		.4byte	.LFB2
 3761 0064 1C000000 		.4byte	.LFE2
 3762 0068 00000000 		.4byte	0
 3763 006c 00000000 		.4byte	0
 3764              		.section	.debug_line,"",%progbits
 3765              	.Ldebug_line0:
 3766 0000 30020000 		.section	.debug_str,"MS",%progbits,1
 3766      0200A000 
 3766      00000201 
 3766      FB0E0D00 
 3766      01010101 
 3767              	.LASF21:
 3768 0000 70617261 		.ascii	"param2\000"
 3768      6D3200
 3769              	.LASF102:
 3770 0007 72657375 		.ascii	"result\000"
 3770      6C7400
 3771              	.LASF36:
 3772 000e 6B65795F 		.ascii	"key_touch_SENSE_METHOD_CSX_E\000"
 3772      746F7563 
 3772      685F5345 
 3772      4E53455F 
 3772      4D455448 
 3773              	.LASF80:
 3774 002b 73656E73 		.ascii	"sensorId\000"
 3774      6F724964 
 3774      00
 3775              	.LASF105:
 3776 0034 6B65795F 		.ascii	"key_touch_UpdateWidgetBaseline\000"
 3776      746F7563 
 3776      685F5570 
 3776      64617465 
 3776      57696467 
 3777              	.LASF106:
 3778 0053 62736C6E 		.ascii	"bslnStatus\000"
 3778      53746174 
 3778      757300
 3779              	.LASF93:
 3780 005e 6B65795F 		.ascii	"key_touch_InitializeNoiseEnvelope\000"
ARM GAS  C:\Users\Administrator\AppData\Local\Temp\ccrG5N5m.s 			page 94


 3780      746F7563 
 3780      685F496E 
 3780      69746961 
 3780      6C697A65 
 3781              	.LASF44:
 3782 0080 6C6F7742 		.ascii	"lowBslnRst\000"
 3782      736C6E52 
 3782      737400
 3783              	.LASF54:
 3784 008b 64696666 		.ascii	"diff\000"
 3784      00
 3785              	.LASF64:
 3786 0090 746F7461 		.ascii	"totalNumSns\000"
 3786      6C4E756D 
 3786      536E7300 
 3787              	.LASF46:
 3788 009c 69646163 		.ascii	"idacMod\000"
 3788      4D6F6400 
 3789              	.LASF84:
 3790 00a4 70747246 		.ascii	"ptrFilterHistObj\000"
 3790      696C7465 
 3790      72486973 
 3790      744F626A 
 3790      00
 3791              	.LASF89:
 3792 00b5 6B65795F 		.ascii	"key_touch_InitializeSensorBaseline\000"
 3792      746F7563 
 3792      685F496E 
 3792      69746961 
 3792      6C697A65 
 3793              	.LASF2:
 3794 00d8 73686F72 		.ascii	"short int\000"
 3794      7420696E 
 3794      7400
 3795              	.LASF94:
 3796 00e2 696E7075 		.ascii	"input\000"
 3796      7400
 3797              	.LASF16:
 3798 00e8 73697A65 		.ascii	"sizetype\000"
 3798      74797065 
 3798      00
 3799              	.LASF110:
 3800 00f1 474E5520 		.ascii	"GNU C 4.9.3 20150303 (release) [ARM/embedded-4_9-br"
 3800      4320342E 
 3800      392E3320 
 3800      32303135 
 3800      30333033 
 3801 0124 616E6368 		.ascii	"anch revision 221220] -mcpu=cortex-m0plus -mthumb -"
 3801      20726576 
 3801      6973696F 
 3801      6E203232 
 3801      31323230 
 3802 0157 67202D4F 		.ascii	"g -Og -ffunction-sections -ffat-lto-objects\000"
 3802      67202D66 
 3802      66756E63 
 3802      74696F6E 
 3802      2D736563 
ARM GAS  C:\Users\Administrator\AppData\Local\Temp\ccrG5N5m.s 			page 95


 3803              	.LASF88:
 3804 0183 6B65795F 		.ascii	"key_touch_FtInitializeBaselineChannel\000"
 3804      746F7563 
 3804      685F4674 
 3804      496E6974 
 3804      69616C69 
 3805              	.LASF101:
 3806 01a9 64696666 		.ascii	"difference\000"
 3806      6572656E 
 3806      636500
 3807              	.LASF99:
 3808 01b4 6B65795F 		.ascii	"key_touch_FtUpdateBaseline\000"
 3808      746F7563 
 3808      685F4674 
 3808      55706461 
 3808      74654261 
 3809              	.LASF56:
 3810 01cf 69646163 		.ascii	"idacComp\000"
 3810      436F6D70 
 3810      00
 3811              	.LASF51:
 3812 01d8 6B65795F 		.ascii	"key_touch_RAM_WD_BASE_STRUCT\000"
 3812      746F7563 
 3812      685F5241 
 3812      4D5F5744 
 3812      5F424153 
 3813              	.LASF75:
 3814 01f5 70747252 		.ascii	"ptrRegular\000"
 3814      6567756C 
 3814      617200
 3815              	.LASF112:
 3816 0200 443A5C6C 		.ascii	"D:\\local_svn\\AYBR3000\\AYBR3000_V2.0\\AYBR3000\\A"
 3816      6F63616C 
 3816      5F73766E 
 3816      5C415942 
 3816      52333030 
 3817 022e 59425233 		.ascii	"YBR3000.cydsn\000"
 3817      3030302E 
 3817      63796473 
 3817      6E00
 3818              	.LASF47:
 3819 023c 736E7343 		.ascii	"snsClk\000"
 3819      6C6B00
 3820              	.LASF103:
 3821 0243 68697374 		.ascii	"history\000"
 3821      6F727900 
 3822              	.LASF48:
 3823 024b 736E7343 		.ascii	"snsClkSource\000"
 3823      6C6B536F 
 3823      75726365 
 3823      00
 3824              	.LASF37:
 3825 0258 6B65795F 		.ascii	"key_touch_SENSE_METHOD_BIST_E\000"
 3825      746F7563 
 3825      685F5345 
 3825      4E53455F 
 3825      4D455448 
ARM GAS  C:\Users\Administrator\AppData\Local\Temp\ccrG5N5m.s 			page 96


 3826              	.LASF22:
 3827 0276 70617261 		.ascii	"param3\000"
 3827      6D3300
 3828              	.LASF23:
 3829 027d 70617261 		.ascii	"param4\000"
 3829      6D3400
 3830              	.LASF27:
 3831 0284 6B65795F 		.ascii	"key_touch_WD_BUTTON_E\000"
 3831      746F7563 
 3831      685F5744 
 3831      5F425554 
 3831      544F4E5F 
 3832              	.LASF25:
 3833 029a 70617261 		.ascii	"param6\000"
 3833      6D3600
 3834              	.LASF71:
 3835 02a1 6E6F7455 		.ascii	"notUsed\000"
 3835      73656400 
 3836              	.LASF40:
 3837 02a9 6E6F6973 		.ascii	"noiseTh\000"
 3837      65546800 
 3838              	.LASF52:
 3839 02b1 62736C6E 		.ascii	"bsln\000"
 3839      00
 3840              	.LASF10:
 3841 02b6 75696E74 		.ascii	"uint16\000"
 3841      313600
 3842              	.LASF62:
 3843 02bd 70747232 		.ascii	"ptr2DebounceArr\000"
 3843      4465626F 
 3843      756E6365 
 3843      41727200 
 3844              	.LASF74:
 3845 02cd 6B65795F 		.ascii	"key_touch_REGULAR_FLTR_STRUCT\000"
 3845      746F7563 
 3845      685F5245 
 3845      47554C41 
 3845      525F464C 
 3846              	.LASF9:
 3847 02eb 75696E74 		.ascii	"uint8\000"
 3847      3800
 3848              	.LASF85:
 3849 02f1 70747257 		.ascii	"ptrWidgetRam\000"
 3849      69646765 
 3849      7452616D 
 3849      00
 3850              	.LASF17:
 3851 02fe 6B65795F 		.ascii	"key_touch_THRESHOLD_TYPE\000"
 3851      746F7563 
 3851      685F5448 
 3851      52455348 
 3851      4F4C445F 
 3852              	.LASF28:
 3853 0317 6B65795F 		.ascii	"key_touch_WD_LINEAR_SLIDER_E\000"
 3853      746F7563 
 3853      685F5744 
 3853      5F4C494E 
ARM GAS  C:\Users\Administrator\AppData\Local\Temp\ccrG5N5m.s 			page 97


 3853      4541525F 
 3854              	.LASF12:
 3855 0334 666C6F61 		.ascii	"float\000"
 3855      7400
 3856              	.LASF111:
 3857 033a 47656E65 		.ascii	"Generated_Source\\PSoC4\\key_touch_Filter.c\000"
 3857      72617465 
 3857      645F536F 
 3857      75726365 
 3857      5C50536F 
 3858              	.LASF6:
 3859 0364 6C6F6E67 		.ascii	"long long int\000"
 3859      206C6F6E 
 3859      6720696E 
 3859      7400
 3860              	.LASF35:
 3861 0372 6B65795F 		.ascii	"key_touch_SENSE_METHOD_CSD_E\000"
 3861      746F7563 
 3861      685F5345 
 3861      4E53455F 
 3861      4D455448 
 3862              	.LASF107:
 3863 038f 6B65795F 		.ascii	"key_touch_UpdateAllBaselines\000"
 3863      746F7563 
 3863      685F5570 
 3863      64617465 
 3863      416C6C42 
 3864              	.LASF14:
 3865 03ac 63686172 		.ascii	"char\000"
 3865      00
 3866              	.LASF34:
 3867 03b1 6B65795F 		.ascii	"key_touch_UNDEFINED_E\000"
 3867      746F7563 
 3867      685F554E 
 3867      44454649 
 3867      4E45445F 
 3868              	.LASF4:
 3869 03c7 6C6F6E67 		.ascii	"long int\000"
 3869      20696E74 
 3869      00
 3870              	.LASF96:
 3871 03d0 73686966 		.ascii	"shift\000"
 3871      7400
 3872              	.LASF65:
 3873 03d6 77646774 		.ascii	"wdgtType\000"
 3873      54797065 
 3873      00
 3874              	.LASF39:
 3875 03df 66696E67 		.ascii	"fingerTh\000"
 3875      65725468 
 3875      00
 3876              	.LASF86:
 3877 03e8 7074724E 		.ascii	"ptrNoiseEnvelope\000"
 3877      6F697365 
 3877      456E7665 
 3877      6C6F7065 
 3877      00
ARM GAS  C:\Users\Administrator\AppData\Local\Temp\ccrG5N5m.s 			page 98


 3878              	.LASF59:
 3879 03f9 70747232 		.ascii	"ptr2WdgtRam\000"
 3879      57646774 
 3879      52616D00 
 3880              	.LASF43:
 3881 0405 6F6E4465 		.ascii	"onDebounce\000"
 3881      626F756E 
 3881      636500
 3882              	.LASF33:
 3883 0410 6B65795F 		.ascii	"key_touch_WD_TYPE_ENUM\000"
 3883      746F7563 
 3883      685F5744 
 3883      5F545950 
 3883      455F454E 
 3884              	.LASF66:
 3885 0427 6E756D43 		.ascii	"numCols\000"
 3885      6F6C7300 
 3886              	.LASF32:
 3887 042f 6B65795F 		.ascii	"key_touch_WD_PROXIMITY_E\000"
 3887      746F7563 
 3887      685F5744 
 3887      5F50524F 
 3887      58494D49 
 3888              	.LASF108:
 3889 0448 6B65795F 		.ascii	"key_touch_FtInitializeBaseline\000"
 3889      746F7563 
 3889      685F4674 
 3889      496E6974 
 3889      69616C69 
 3890              	.LASF42:
 3891 0467 68797374 		.ascii	"hysteresis\000"
 3891      65726573 
 3891      697300
 3892              	.LASF90:
 3893 0472 6B65795F 		.ascii	"key_touch_InitializeWidgetBaseline\000"
 3893      746F7563 
 3893      685F496E 
 3893      69746961 
 3893      6C697A65 
 3894              	.LASF1:
 3895 0495 756E7369 		.ascii	"unsigned char\000"
 3895      676E6564 
 3895      20636861 
 3895      7200
 3896              	.LASF91:
 3897 04a3 6B65795F 		.ascii	"key_touch_InitializeAllBaselines\000"
 3897      746F7563 
 3897      685F496E 
 3897      69746961 
 3897      6C697A65 
 3898              	.LASF82:
 3899 04c4 70747257 		.ascii	"ptrWidget\000"
 3899      69646765 
 3899      7400
 3900              	.LASF0:
 3901 04ce 7369676E 		.ascii	"signed char\000"
 3901      65642063 
ARM GAS  C:\Users\Administrator\AppData\Local\Temp\ccrG5N5m.s 			page 99


 3901      68617200 
 3902              	.LASF113:
 3903 04da 6B65795F 		.ascii	"key_touch_dsFlash\000"
 3903      746F7563 
 3903      685F6473 
 3903      466C6173 
 3903      6800
 3904              	.LASF7:
 3905 04ec 6C6F6E67 		.ascii	"long long unsigned int\000"
 3905      206C6F6E 
 3905      6720756E 
 3905      7369676E 
 3905      65642069 
 3906              	.LASF73:
 3907 0503 72656775 		.ascii	"regularChannel\000"
 3907      6C617243 
 3907      68616E6E 
 3907      656C00
 3908              	.LASF63:
 3909 0512 73746174 		.ascii	"staticConfig\000"
 3909      6963436F 
 3909      6E666967 
 3909      00
 3910              	.LASF8:
 3911 051f 756E7369 		.ascii	"unsigned int\000"
 3911      676E6564 
 3911      20696E74 
 3911      00
 3912              	.LASF19:
 3913 052c 70617261 		.ascii	"param0\000"
 3913      6D3000
 3914              	.LASF20:
 3915 0533 70617261 		.ascii	"param1\000"
 3915      6D3100
 3916              	.LASF29:
 3917 053a 6B65795F 		.ascii	"key_touch_WD_RADIAL_SLIDER_E\000"
 3917      746F7563 
 3917      685F5744 
 3917      5F524144 
 3917      49414C5F 
 3918              	.LASF70:
 3919 0557 6B65795F 		.ascii	"key_touch_FLASH_STRUCT\000"
 3919      746F7563 
 3919      685F464C 
 3919      4153485F 
 3919      53545255 
 3920              	.LASF31:
 3921 056e 6B65795F 		.ascii	"key_touch_WD_TOUCHPAD_E\000"
 3921      746F7563 
 3921      685F5744 
 3921      5F544F55 
 3921      43485041 
 3922              	.LASF3:
 3923 0586 73686F72 		.ascii	"short unsigned int\000"
 3923      7420756E 
 3923      7369676E 
 3923      65642069 
ARM GAS  C:\Users\Administrator\AppData\Local\Temp\ccrG5N5m.s 			page 100


 3923      6E7400
 3924              	.LASF72:
 3925 0599 6B65795F 		.ascii	"key_touch_REGULAR_FLTR_CHANNEL_STRUCT\000"
 3925      746F7563 
 3925      685F5245 
 3925      47554C41 
 3925      525F464C 
 3926              	.LASF24:
 3927 05bf 70617261 		.ascii	"param5\000"
 3927      6D3500
 3928              	.LASF79:
 3929 05c6 77696467 		.ascii	"widgetId\000"
 3929      65744964 
 3929      00
 3930              	.LASF87:
 3931 05cf 6B65795F 		.ascii	"key_touch_FtInitialize\000"
 3931      746F7563 
 3931      685F4674 
 3931      496E6974 
 3931      69616C69 
 3932              	.LASF15:
 3933 05e6 63797374 		.ascii	"cystatus\000"
 3933      61747573 
 3933      00
 3934              	.LASF109:
 3935 05ef 536D6172 		.ascii	"SmartSense_InitializeNoiseEnvelope\000"
 3935      7453656E 
 3935      73655F49 
 3935      6E697469 
 3935      616C697A 
 3936              	.LASF38:
 3937 0612 7265736F 		.ascii	"resolution\000"
 3937      6C757469 
 3937      6F6E00
 3938              	.LASF104:
 3939 061d 6B65795F 		.ascii	"key_touch_UpdateSensorBaseline\000"
 3939      746F7563 
 3939      685F5570 
 3939      64617465 
 3939      53656E73 
 3940              	.LASF83:
 3941 063c 6368616E 		.ascii	"channel\000"
 3941      6E656C00 
 3942              	.LASF45:
 3943 0644 62736C6E 		.ascii	"bslnCoeff\000"
 3943      436F6566 
 3943      6600
 3944              	.LASF81:
 3945 064e 73656E73 		.ascii	"sensorsNumber\000"
 3945      6F72734E 
 3945      756D6265 
 3945      7200
 3946              	.LASF67:
 3947 065c 70747232 		.ascii	"ptr2NoiseEnvlp\000"
 3947      4E6F6973 
 3947      65456E76 
 3947      6C7000
ARM GAS  C:\Users\Administrator\AppData\Local\Temp\ccrG5N5m.s 			page 101


 3948              	.LASF41:
 3949 066b 6E4E6F69 		.ascii	"nNoiseTh\000"
 3949      73655468 
 3949      00
 3950              	.LASF78:
 3951 0674 77645479 		.ascii	"wdType\000"
 3951      706500
 3952              	.LASF50:
 3953 067b 73696750 		.ascii	"sigPFC\000"
 3953      464300
 3954              	.LASF57:
 3955 0682 6B65795F 		.ascii	"key_touch_RAM_SNS_STRUCT\000"
 3955      746F7563 
 3955      685F5241 
 3955      4D5F534E 
 3955      535F5354 
 3956              	.LASF5:
 3957 069b 6C6F6E67 		.ascii	"long unsigned int\000"
 3957      20756E73 
 3957      69676E65 
 3957      6420696E 
 3957      7400
 3958              	.LASF100:
 3959 06ad 7369676E 		.ascii	"sign\000"
 3959      00
 3960              	.LASF11:
 3961 06b2 75696E74 		.ascii	"uint32\000"
 3961      333200
 3962              	.LASF53:
 3963 06b9 62736C6E 		.ascii	"bslnExt\000"
 3963      45787400 
 3964              	.LASF30:
 3965 06c1 6B65795F 		.ascii	"key_touch_WD_MATRIX_BUTTON_E\000"
 3965      746F7563 
 3965      685F5744 
 3965      5F4D4154 
 3965      5249585F 
 3966              	.LASF98:
 3967 06de 6B65795F 		.ascii	"key_touch_FtIIR1stOrder\000"
 3967      746F7563 
 3967      685F4674 
 3967      49495231 
 3967      73744F72 
 3968              	.LASF114:
 3969 06f6 536D6172 		.ascii	"SmartSense_RunNoiseEnvelope\000"
 3969      7453656E 
 3969      73655F52 
 3969      756E4E6F 
 3969      69736545 
 3970              	.LASF55:
 3971 0712 6E656742 		.ascii	"negBslnRstCnt\000"
 3971      736C6E52 
 3971      7374436E 
 3971      7400
 3972              	.LASF95:
 3973 0720 70726576 		.ascii	"prevOutput\000"
 3973      4F757470 
ARM GAS  C:\Users\Administrator\AppData\Local\Temp\ccrG5N5m.s 			page 102


 3973      757400
 3974              	.LASF60:
 3975 072b 70747232 		.ascii	"ptr2SnsRam\000"
 3975      536E7352 
 3975      616D00
 3976              	.LASF61:
 3977 0736 70747232 		.ascii	"ptr2FltrHistory\000"
 3977      466C7472 
 3977      48697374 
 3977      6F727900 
 3978              	.LASF69:
 3979 0746 77646774 		.ascii	"wdgtArray\000"
 3979      41727261 
 3979      7900
 3980              	.LASF92:
 3981 0750 6B65795F 		.ascii	"key_touch_RunNoiseEnvelope\000"
 3981      746F7563 
 3981      685F5275 
 3981      6E4E6F69 
 3981      7365456E 
 3982              	.LASF49:
 3983 076b 66696E67 		.ascii	"fingerCap\000"
 3983      65724361 
 3983      7000
 3984              	.LASF97:
 3985 0775 6F757470 		.ascii	"output\000"
 3985      757400
 3986              	.LASF13:
 3987 077c 646F7562 		.ascii	"double\000"
 3987      6C6500
 3988              	.LASF76:
 3989 0783 6B65795F 		.ascii	"key_touch_PTR_FILTER_VARIANT\000"
 3989      746F7563 
 3989      685F5054 
 3989      525F4649 
 3989      4C544552 
 3990              	.LASF18:
 3991 07a0 6B65795F 		.ascii	"key_touch_LOW_BSLN_RST_TYPE\000"
 3991      746F7563 
 3991      685F4C4F 
 3991      575F4253 
 3991      4C4E5F52 
 3992              	.LASF26:
 3993 07bc 534D4152 		.ascii	"SMARTSENSE_CSD_NOISE_ENVELOPE_STRUCT\000"
 3993      5453454E 
 3993      53455F43 
 3993      53445F4E 
 3993      4F495345 
 3994              	.LASF58:
 3995 07e1 70747232 		.ascii	"ptr2SnsFlash\000"
 3995      536E7346 
 3995      6C617368 
 3995      00
 3996              	.LASF77:
 3997 07ee 70747253 		.ascii	"ptrSensor\000"
 3997      656E736F 
 3997      7200
ARM GAS  C:\Users\Administrator\AppData\Local\Temp\ccrG5N5m.s 			page 103


 3998              	.LASF68:
 3999 07f8 6B65795F 		.ascii	"key_touch_FLASH_WD_STRUCT\000"
 3999      746F7563 
 3999      685F464C 
 3999      4153485F 
 3999      57445F53 
 4000              		.ident	"GCC: (GNU Tools for ARM Embedded Processors) 4.9.3 20150303 (release) [ARM/embedded-4_9-br
