ARM GAS  C:\Users\Administrator\AppData\Local\Temp\ccgju7tf.s 			page 1


   1              		.cpu cortex-m0plus
   2              		.fpu softvfp
   3              		.eabi_attribute 20, 1
   4              		.eabi_attribute 21, 1
   5              		.eabi_attribute 23, 3
   6              		.eabi_attribute 24, 1
   7              		.eabi_attribute 25, 1
   8              		.eabi_attribute 26, 1
   9              		.eabi_attribute 30, 1
  10              		.eabi_attribute 34, 0
  11              		.eabi_attribute 18, 4
  12              		.code	16
  13              		.file	"key_touch_Tuner.c"
  14              		.text
  15              	.Ltext0:
  16              		.cfi_sections	.debug_frame
  17              		.section	.text.key_touch_TuInitialize,"ax",%progbits
  18              		.align	2
  19              		.global	key_touch_TuInitialize
  20              		.code	16
  21              		.thumb_func
  22              		.type	key_touch_TuInitialize, %function
  23              	key_touch_TuInitialize:
  24              	.LFB1:
  25              		.file 1 "Generated_Source\\PSoC4\\key_touch_Tuner.c"
   1:Generated_Source\PSoC4/key_touch_Tuner.c **** /***************************************************************************//**
   2:Generated_Source\PSoC4/key_touch_Tuner.c **** * \file key_touch_Tuner.c
   3:Generated_Source\PSoC4/key_touch_Tuner.c **** * \version 3.10
   4:Generated_Source\PSoC4/key_touch_Tuner.c **** *
   5:Generated_Source\PSoC4/key_touch_Tuner.c **** * \brief
   6:Generated_Source\PSoC4/key_touch_Tuner.c **** * This file provides the source code for the Tuner module API of the Component.
   7:Generated_Source\PSoC4/key_touch_Tuner.c **** *
   8:Generated_Source\PSoC4/key_touch_Tuner.c **** * \see CapSense P4 v3.10 Datasheet
   9:Generated_Source\PSoC4/key_touch_Tuner.c **** * 
  10:Generated_Source\PSoC4/key_touch_Tuner.c **** *//*****************************************************************************
  11:Generated_Source\PSoC4/key_touch_Tuner.c **** * Copyright (2016), Cypress Semiconductor Corporation.
  12:Generated_Source\PSoC4/key_touch_Tuner.c **** ********************************************************************************
  13:Generated_Source\PSoC4/key_touch_Tuner.c **** * This software is owned by Cypress Semiconductor Corporation (Cypress) and is
  14:Generated_Source\PSoC4/key_touch_Tuner.c **** * protected by and subject to worldwide patent protection (United States and
  15:Generated_Source\PSoC4/key_touch_Tuner.c **** * foreign), United States copyright laws and international treaty provisions.
  16:Generated_Source\PSoC4/key_touch_Tuner.c **** * Cypress hereby grants to licensee a personal, non-exclusive, non-transferable
  17:Generated_Source\PSoC4/key_touch_Tuner.c **** * license to copy, use, modify, create derivative works of, and compile the
  18:Generated_Source\PSoC4/key_touch_Tuner.c **** * Cypress Source Code and derivative works for the sole purpose of creating
  19:Generated_Source\PSoC4/key_touch_Tuner.c **** * custom software in support of licensee product to be used only in conjunction
  20:Generated_Source\PSoC4/key_touch_Tuner.c **** * with a Cypress integrated circuit as specified in the applicable agreement.
  21:Generated_Source\PSoC4/key_touch_Tuner.c **** * Any reproduction, modification, translation, compilation, or representation of
  22:Generated_Source\PSoC4/key_touch_Tuner.c **** * this software except as specified above is prohibited without the express
  23:Generated_Source\PSoC4/key_touch_Tuner.c **** * written permission of Cypress.
  24:Generated_Source\PSoC4/key_touch_Tuner.c **** *
  25:Generated_Source\PSoC4/key_touch_Tuner.c **** * Disclaimer: CYPRESS MAKES NO WARRANTY OF ANY KIND, EXPRESS OR IMPLIED, WITH
  26:Generated_Source\PSoC4/key_touch_Tuner.c **** * REGARD TO THIS MATERIAL, INCLUDING, BUT NOT LIMITED TO, THE IMPLIED
  27:Generated_Source\PSoC4/key_touch_Tuner.c **** * WARRANTIES OF MERCHANTABILITY AND FITNESS FOR A PARTICULAR PURPOSE.
  28:Generated_Source\PSoC4/key_touch_Tuner.c **** * Cypress reserves the right to make changes without further notice to the
  29:Generated_Source\PSoC4/key_touch_Tuner.c **** * materials described herein. Cypress does not assume any liability arising out
  30:Generated_Source\PSoC4/key_touch_Tuner.c **** * of the application or use of any product or circuit described herein. Cypress
  31:Generated_Source\PSoC4/key_touch_Tuner.c **** * does not authorize its products for use as critical components in life-support
  32:Generated_Source\PSoC4/key_touch_Tuner.c **** * systems where a malfunction or failure may reasonably be expected to result in
ARM GAS  C:\Users\Administrator\AppData\Local\Temp\ccgju7tf.s 			page 2


  33:Generated_Source\PSoC4/key_touch_Tuner.c **** * significant injury to the user. The inclusion of Cypress' product in a life-
  34:Generated_Source\PSoC4/key_touch_Tuner.c **** * support systems application implies that the manufacturer assumes all risk of
  35:Generated_Source\PSoC4/key_touch_Tuner.c **** * such use and in doing so indemnifies Cypress against all charges. Use may be
  36:Generated_Source\PSoC4/key_touch_Tuner.c **** * limited by and subject to the applicable Cypress software license agreement.
  37:Generated_Source\PSoC4/key_touch_Tuner.c **** *******************************************************************************/
  38:Generated_Source\PSoC4/key_touch_Tuner.c **** 
  39:Generated_Source\PSoC4/key_touch_Tuner.c **** #include "cytypes.h"
  40:Generated_Source\PSoC4/key_touch_Tuner.c **** #include "CyLib.h"
  41:Generated_Source\PSoC4/key_touch_Tuner.c **** #include "key_touch_Structure.h"
  42:Generated_Source\PSoC4/key_touch_Tuner.c **** #include "key_touch_Tuner.h"
  43:Generated_Source\PSoC4/key_touch_Tuner.c **** #include "key_touch_Control.h"
  44:Generated_Source\PSoC4/key_touch_Tuner.c **** 
  45:Generated_Source\PSoC4/key_touch_Tuner.c **** /* Tuner states definition */
  46:Generated_Source\PSoC4/key_touch_Tuner.c **** #define TU_FSM_RUNNING      (0u)
  47:Generated_Source\PSoC4/key_touch_Tuner.c **** #define TU_FSM_SUSPENDED    (1u)
  48:Generated_Source\PSoC4/key_touch_Tuner.c **** #define TU_FSM_SNR_TEST     (2u)
  49:Generated_Source\PSoC4/key_touch_Tuner.c **** 
  50:Generated_Source\PSoC4/key_touch_Tuner.c **** /* Tuner state variable */
  51:Generated_Source\PSoC4/key_touch_Tuner.c **** static uint32 tunerFsm = TU_FSM_RUNNING;
  52:Generated_Source\PSoC4/key_touch_Tuner.c **** 
  53:Generated_Source\PSoC4/key_touch_Tuner.c **** 
  54:Generated_Source\PSoC4/key_touch_Tuner.c **** /*******************************************************************************
  55:Generated_Source\PSoC4/key_touch_Tuner.c **** * Function Name: key_touch_TuInitialize
  56:Generated_Source\PSoC4/key_touch_Tuner.c **** ****************************************************************************//**
  57:Generated_Source\PSoC4/key_touch_Tuner.c **** *
  58:Generated_Source\PSoC4/key_touch_Tuner.c **** * \brief
  59:Generated_Source\PSoC4/key_touch_Tuner.c **** *   This function initializes the communication interface with the Tuner GUI.
  60:Generated_Source\PSoC4/key_touch_Tuner.c **** *
  61:Generated_Source\PSoC4/key_touch_Tuner.c **** * \details
  62:Generated_Source\PSoC4/key_touch_Tuner.c **** *   This API sets the tuner state machine to the default state. It is called by
  63:Generated_Source\PSoC4/key_touch_Tuner.c **** *   the key_touch_Start() API.
  64:Generated_Source\PSoC4/key_touch_Tuner.c **** *
  65:Generated_Source\PSoC4/key_touch_Tuner.c **** *******************************************************************************/
  66:Generated_Source\PSoC4/key_touch_Tuner.c **** void key_touch_TuInitialize(void)
  67:Generated_Source\PSoC4/key_touch_Tuner.c **** {
  26              		.loc 1 67 0
  27              		.cfi_startproc
  28              	.LVL0:
  68:Generated_Source\PSoC4/key_touch_Tuner.c ****     volatile key_touch_RAM_STRUCT *ptrDsRam = &key_touch_dsRam;
  69:Generated_Source\PSoC4/key_touch_Tuner.c ****     
  70:Generated_Source\PSoC4/key_touch_Tuner.c ****     ptrDsRam->tunerCmd = (uint16)key_touch_TU_CMD_NONE_E;
  29              		.loc 1 70 0
  30 0000 0023     		mov	r3, #0
  31 0002 024A     		ldr	r2, .L2
  32 0004 9380     		strh	r3, [r2, #4]
  71:Generated_Source\PSoC4/key_touch_Tuner.c ****     tunerFsm = TU_FSM_RUNNING;
  33              		.loc 1 71 0
  34 0006 024A     		ldr	r2, .L2+4
  35 0008 1360     		str	r3, [r2]
  72:Generated_Source\PSoC4/key_touch_Tuner.c **** }
  36              		.loc 1 72 0
  37              		@ sp needed
  38 000a 7047     		bx	lr
  39              	.L3:
  40              		.align	2
  41              	.L2:
  42 000c 00000000 		.word	key_touch_dsRam
ARM GAS  C:\Users\Administrator\AppData\Local\Temp\ccgju7tf.s 			page 3


  43 0010 00000000 		.word	.LANCHOR0
  44              		.cfi_endproc
  45              	.LFE1:
  46              		.size	key_touch_TuInitialize, .-key_touch_TuInitialize
  47              		.section	.text.key_touch_RunTuner,"ax",%progbits
  48              		.align	2
  49              		.global	key_touch_RunTuner
  50              		.code	16
  51              		.thumb_func
  52              		.type	key_touch_RunTuner, %function
  53              	key_touch_RunTuner:
  54              	.LFB2:
  73:Generated_Source\PSoC4/key_touch_Tuner.c **** 
  74:Generated_Source\PSoC4/key_touch_Tuner.c **** /*******************************************************************************
  75:Generated_Source\PSoC4/key_touch_Tuner.c **** * Function Name: key_touch_RunTuner
  76:Generated_Source\PSoC4/key_touch_Tuner.c **** ****************************************************************************//**
  77:Generated_Source\PSoC4/key_touch_Tuner.c **** *
  78:Generated_Source\PSoC4/key_touch_Tuner.c **** * \brief
  79:Generated_Source\PSoC4/key_touch_Tuner.c **** *  Establishes synchronized communication with the Tuner application.
  80:Generated_Source\PSoC4/key_touch_Tuner.c **** *
  81:Generated_Source\PSoC4/key_touch_Tuner.c **** * \details
  82:Generated_Source\PSoC4/key_touch_Tuner.c **** *  This function is used to establish synchronized communication between the 
  83:Generated_Source\PSoC4/key_touch_Tuner.c **** *  key_touch component and Tuner application (or other host controllers).
  84:Generated_Source\PSoC4/key_touch_Tuner.c **** *  This function should be called periodically in the application program loop 
  85:Generated_Source\PSoC4/key_touch_Tuner.c **** *  to serve the Tuner application (or host controller) requests and commands. 
  86:Generated_Source\PSoC4/key_touch_Tuner.c **** *  In most cases, the best place to call this function is after processing and 
  87:Generated_Source\PSoC4/key_touch_Tuner.c **** *  before next scanning. 
  88:Generated_Source\PSoC4/key_touch_Tuner.c **** *  
  89:Generated_Source\PSoC4/key_touch_Tuner.c **** *  If this function is absent in the application program, then communication is 
  90:Generated_Source\PSoC4/key_touch_Tuner.c **** *  asynchronous and the following disadvantages are applicable:
  91:Generated_Source\PSoC4/key_touch_Tuner.c **** *    - The raw counts displayed in the tuner may be filtered and/or unfiltered 
  92:Generated_Source\PSoC4/key_touch_Tuner.c **** *      firmware and as a result, noise and SNR measurements will not be 
  93:Generated_Source\PSoC4/key_touch_Tuner.c **** *      accurate.
  94:Generated_Source\PSoC4/key_touch_Tuner.c **** *    - The Tuner may read the sensor data such as raw counts from a scan 
  95:Generated_Source\PSoC4/key_touch_Tuner.c **** *      multiple times, as a result, noise and SNR measurement will not be 
  96:Generated_Source\PSoC4/key_touch_Tuner.c **** *      accurate.
  97:Generated_Source\PSoC4/key_touch_Tuner.c **** *    - The Tuner and host controller should not change the component parameters 
  98:Generated_Source\PSoC4/key_touch_Tuner.c **** *      via the tuner interface. Changing the component parameters via the tuner 
  99:Generated_Source\PSoC4/key_touch_Tuner.c **** *      interface in the async mode will result in abnormal behavior from the 
 100:Generated_Source\PSoC4/key_touch_Tuner.c **** *      component.
 101:Generated_Source\PSoC4/key_touch_Tuner.c **** *  
 102:Generated_Source\PSoC4/key_touch_Tuner.c **** *  Note that calling this function is not mandatory for the application, but 
 103:Generated_Source\PSoC4/key_touch_Tuner.c **** *  required only to synchronize the communication with the host controller or 
 104:Generated_Source\PSoC4/key_touch_Tuner.c **** *  tuner application.
 105:Generated_Source\PSoC4/key_touch_Tuner.c **** *
 106:Generated_Source\PSoC4/key_touch_Tuner.c **** * \return
 107:Generated_Source\PSoC4/key_touch_Tuner.c **** *  In some cases, the application program may need to know if the component was
 108:Generated_Source\PSoC4/key_touch_Tuner.c **** *  re-initialized. The return indicates if a restart command was executed or not: 
 109:Generated_Source\PSoC4/key_touch_Tuner.c **** *    - key_touch_STATUS_RESTART_DONE based on a received command, the 
 110:Generated_Source\PSoC4/key_touch_Tuner.c **** *      component was restarted.
 111:Generated_Source\PSoC4/key_touch_Tuner.c **** *    -  key_touch_STATUS_RESTART_NONE, no restart was executed by this 
 112:Generated_Source\PSoC4/key_touch_Tuner.c **** *      function.
 113:Generated_Source\PSoC4/key_touch_Tuner.c **** *
 114:Generated_Source\PSoC4/key_touch_Tuner.c **** *******************************************************************************/
 115:Generated_Source\PSoC4/key_touch_Tuner.c **** uint32 key_touch_RunTuner(void)
 116:Generated_Source\PSoC4/key_touch_Tuner.c **** {
  55              		.loc 1 116 0
ARM GAS  C:\Users\Administrator\AppData\Local\Temp\ccgju7tf.s 			page 4


  56              		.cfi_startproc
  57 0000 38B5     		push	{r3, r4, r5, lr}
  58              		.cfi_def_cfa_offset 16
  59              		.cfi_offset 3, -16
  60              		.cfi_offset 4, -12
  61              		.cfi_offset 5, -8
  62              		.cfi_offset 14, -4
  63              	.LVL1:
 117:Generated_Source\PSoC4/key_touch_Tuner.c ****     uint8  critSect;
 118:Generated_Source\PSoC4/key_touch_Tuner.c ****     uint32 widgetId;
 119:Generated_Source\PSoC4/key_touch_Tuner.c ****     uint32 sensorId;
 120:Generated_Source\PSoC4/key_touch_Tuner.c ****     uint32 updateFlag = 0Lu;
 121:Generated_Source\PSoC4/key_touch_Tuner.c ****     key_touch_TU_CMD_ENUM command;
 122:Generated_Source\PSoC4/key_touch_Tuner.c ****     uint32 tunerStatus = key_touch_STATUS_RESTART_NONE;
  64              		.loc 1 122 0
  65 0002 0025     		mov	r5, #0
 120:Generated_Source\PSoC4/key_touch_Tuner.c ****     key_touch_TU_CMD_ENUM command;
  66              		.loc 1 120 0
  67 0004 0022     		mov	r2, #0
  68              	.LVL2:
  69              	.L14:
 123:Generated_Source\PSoC4/key_touch_Tuner.c ****     
 124:Generated_Source\PSoC4/key_touch_Tuner.c ****     volatile key_touch_RAM_STRUCT *ptrDsRam;
 125:Generated_Source\PSoC4/key_touch_Tuner.c ****     volatile key_touch_RAM_SNS_STRUCT *ptrSns;
 126:Generated_Source\PSoC4/key_touch_Tuner.c ****     
 127:Generated_Source\PSoC4/key_touch_Tuner.c ****     ptrDsRam = &key_touch_dsRam;
 128:Generated_Source\PSoC4/key_touch_Tuner.c ****     
 129:Generated_Source\PSoC4/key_touch_Tuner.c ****     do 
 130:Generated_Source\PSoC4/key_touch_Tuner.c ****     {
 131:Generated_Source\PSoC4/key_touch_Tuner.c ****         command = (key_touch_TU_CMD_ENUM)ptrDsRam->tunerCmd;
  70              		.loc 1 131 0
  71 0006 344B     		ldr	r3, .L17
  72 0008 9C88     		ldrh	r4, [r3, #4]
  73 000a E4B2     		uxtb	r4, r4
  74              	.LVL3:
 132:Generated_Source\PSoC4/key_touch_Tuner.c ****         
 133:Generated_Source\PSoC4/key_touch_Tuner.c ****         /* Check command register */
 134:Generated_Source\PSoC4/key_touch_Tuner.c ****         switch (command)
  75              		.loc 1 134 0
  76 000c 052C     		cmp	r4, #5
  77 000e 1AD8     		bhi	.L11
  78 0010 A300     		lsl	r3, r4, #2
  79 0012 3249     		ldr	r1, .L17+4
  80 0014 CB58     		ldr	r3, [r1, r3]
  81 0016 9F46     		mov	pc, r3
  82              		.section	.rodata
  83              		.align	2
  84              	.L7:
  85 0000 46000000 		.word	.L11
  86 0004 18000000 		.word	.L6
  87 0008 20000000 		.word	.L8
  88 000c 2A000000 		.word	.L9
  89 0010 3A000000 		.word	.L10
  90 0014 44000000 		.word	.L16
  91              		.section	.text.key_touch_RunTuner
  92              	.L6:
 135:Generated_Source\PSoC4/key_touch_Tuner.c ****         {
ARM GAS  C:\Users\Administrator\AppData\Local\Temp\ccgju7tf.s 			page 5


 136:Generated_Source\PSoC4/key_touch_Tuner.c ****         case key_touch_TU_CMD_SUSPEND_E:
 137:Generated_Source\PSoC4/key_touch_Tuner.c ****             tunerFsm = TU_FSM_SUSPENDED;
  93              		.loc 1 137 0
  94 0018 0122     		mov	r2, #1
  95              	.LVL4:
  96 001a 314B     		ldr	r3, .L17+8
  97 001c 1A60     		str	r2, [r3]
  98              	.LVL5:
 138:Generated_Source\PSoC4/key_touch_Tuner.c ****             updateFlag = 1Lu;
 139:Generated_Source\PSoC4/key_touch_Tuner.c ****             break;
  99              		.loc 1 139 0
 100 001e 12E0     		b	.L11
 101              	.LVL6:
 102              	.L8:
 140:Generated_Source\PSoC4/key_touch_Tuner.c ****             
 141:Generated_Source\PSoC4/key_touch_Tuner.c ****         case key_touch_TU_CMD_RESUME_E:    
 142:Generated_Source\PSoC4/key_touch_Tuner.c ****             tunerFsm = TU_FSM_RUNNING;
 103              		.loc 1 142 0
 104 0020 0022     		mov	r2, #0
 105              	.LVL7:
 106 0022 2F4B     		ldr	r3, .L17+8
 107 0024 1A60     		str	r2, [r3]
 108              	.LVL8:
 143:Generated_Source\PSoC4/key_touch_Tuner.c ****             updateFlag = 1Lu;
 109              		.loc 1 143 0
 110 0026 0132     		add	r2, r2, #1
 144:Generated_Source\PSoC4/key_touch_Tuner.c ****             break;
 111              		.loc 1 144 0
 112 0028 0DE0     		b	.L11
 113              	.LVL9:
 114              	.L9:
 145:Generated_Source\PSoC4/key_touch_Tuner.c ****             
 146:Generated_Source\PSoC4/key_touch_Tuner.c ****         case key_touch_TU_CMD_RESTART_E:
 147:Generated_Source\PSoC4/key_touch_Tuner.c ****             (void)key_touch_Start();
 115              		.loc 1 147 0
 116 002a FFF7FEFF 		bl	key_touch_Start
 117              	.LVL10:
 148:Generated_Source\PSoC4/key_touch_Tuner.c ****             tunerStatus = key_touch_STATUS_RESTART_DONE;
 149:Generated_Source\PSoC4/key_touch_Tuner.c ****             tunerFsm = TU_FSM_RUNNING;
 118              		.loc 1 149 0
 119 002e 0022     		mov	r2, #0
 120 0030 2B4B     		ldr	r3, .L17+8
 121 0032 1A60     		str	r2, [r3]
 122              	.LVL11:
 148:Generated_Source\PSoC4/key_touch_Tuner.c ****             tunerStatus = key_touch_STATUS_RESTART_DONE;
 123              		.loc 1 148 0
 124 0034 0125     		mov	r5, #1
 150:Generated_Source\PSoC4/key_touch_Tuner.c ****             updateFlag = 1Lu;
 125              		.loc 1 150 0
 126 0036 0132     		add	r2, r2, #1
 151:Generated_Source\PSoC4/key_touch_Tuner.c ****             break;
 127              		.loc 1 151 0
 128 0038 05E0     		b	.L11
 129              	.LVL12:
 130              	.L10:
 152:Generated_Source\PSoC4/key_touch_Tuner.c ****             
 153:Generated_Source\PSoC4/key_touch_Tuner.c ****         case key_touch_TU_CMD_RUN_SNR_TEST_E:
ARM GAS  C:\Users\Administrator\AppData\Local\Temp\ccgju7tf.s 			page 6


 154:Generated_Source\PSoC4/key_touch_Tuner.c ****             tunerFsm = TU_FSM_SNR_TEST;
 131              		.loc 1 154 0
 132 003a 0222     		mov	r2, #2
 133              	.LVL13:
 134 003c 284B     		ldr	r3, .L17+8
 135 003e 1A60     		str	r2, [r3]
 136              	.LVL14:
 155:Generated_Source\PSoC4/key_touch_Tuner.c ****             updateFlag = 1Lu;
 137              		.loc 1 155 0
 138 0040 013A     		sub	r2, r2, #1
 156:Generated_Source\PSoC4/key_touch_Tuner.c ****             break;
 139              		.loc 1 156 0
 140 0042 00E0     		b	.L11
 141              	.LVL15:
 142              	.L16:
 157:Generated_Source\PSoC4/key_touch_Tuner.c ****             
 158:Generated_Source\PSoC4/key_touch_Tuner.c ****         case key_touch_TU_CMD_PING_E:
 159:Generated_Source\PSoC4/key_touch_Tuner.c ****             updateFlag = 1Lu;
 143              		.loc 1 159 0
 144 0044 0122     		mov	r2, #1
 145              	.LVL16:
 146              	.L11:
 160:Generated_Source\PSoC4/key_touch_Tuner.c ****             break;
 161:Generated_Source\PSoC4/key_touch_Tuner.c ****             
 162:Generated_Source\PSoC4/key_touch_Tuner.c ****         default:
 163:Generated_Source\PSoC4/key_touch_Tuner.c ****             break;
 164:Generated_Source\PSoC4/key_touch_Tuner.c ****         }
 165:Generated_Source\PSoC4/key_touch_Tuner.c ****         
 166:Generated_Source\PSoC4/key_touch_Tuner.c ****         /* Set Complete flag in command register if needed */
 167:Generated_Source\PSoC4/key_touch_Tuner.c ****         if (0Lu != updateFlag)
 147              		.loc 1 167 0
 148 0046 002A     		cmp	r2, #0
 149 0048 0FD0     		beq	.L12
 168:Generated_Source\PSoC4/key_touch_Tuner.c ****         {
 169:Generated_Source\PSoC4/key_touch_Tuner.c ****             critSect = CyEnterCriticalSection();
 150              		.loc 1 169 0
 151 004a FFF7FEFF 		bl	CyEnterCriticalSection
 152              	.LVL17:
 170:Generated_Source\PSoC4/key_touch_Tuner.c ****             
 171:Generated_Source\PSoC4/key_touch_Tuner.c ****             /* Check if command wasn't overwritten with new command */
 172:Generated_Source\PSoC4/key_touch_Tuner.c ****             if (command == (key_touch_TU_CMD_ENUM)ptrDsRam->tunerCmd)
 153              		.loc 1 172 0
 154 004e 224B     		ldr	r3, .L17
 155 0050 9B88     		ldrh	r3, [r3, #4]
 156 0052 DBB2     		uxtb	r3, r3
 157 0054 A342     		cmp	r3, r4
 158 0056 05D1     		bne	.L13
 173:Generated_Source\PSoC4/key_touch_Tuner.c ****             {
 174:Generated_Source\PSoC4/key_touch_Tuner.c ****                 ptrDsRam->tunerCmd |= key_touch_TU_CMD_COMPLETE_BIT;
 159              		.loc 1 174 0
 160 0058 1F4A     		ldr	r2, .L17
 161 005a 9188     		ldrh	r1, [r2, #4]
 162 005c 8023     		mov	r3, #128
 163 005e 1B02     		lsl	r3, r3, #8
 164 0060 0B43     		orr	r3, r1
 165 0062 9380     		strh	r3, [r2, #4]
 166              	.L13:
ARM GAS  C:\Users\Administrator\AppData\Local\Temp\ccgju7tf.s 			page 7


 175:Generated_Source\PSoC4/key_touch_Tuner.c ****             }
 176:Generated_Source\PSoC4/key_touch_Tuner.c ****             CyExitCriticalSection(critSect);
 167              		.loc 1 176 0
 168 0064 FFF7FEFF 		bl	CyExitCriticalSection
 169              	.LVL18:
 177:Generated_Source\PSoC4/key_touch_Tuner.c ****             
 178:Generated_Source\PSoC4/key_touch_Tuner.c ****             updateFlag = 0Lu;
 170              		.loc 1 178 0
 171 0068 0022     		mov	r2, #0
 172              	.LVL19:
 173              	.L12:
 179:Generated_Source\PSoC4/key_touch_Tuner.c ****         }
 180:Generated_Source\PSoC4/key_touch_Tuner.c ****     } while (TU_FSM_SUSPENDED == tunerFsm);
 174              		.loc 1 180 0
 175 006a 1D4B     		ldr	r3, .L17+8
 176 006c 1B68     		ldr	r3, [r3]
 177 006e 012B     		cmp	r3, #1
 178 0070 C9D0     		beq	.L14
 181:Generated_Source\PSoC4/key_touch_Tuner.c **** 
 182:Generated_Source\PSoC4/key_touch_Tuner.c ****     /* Check for SNR Test mode and do appropriate actions */
 183:Generated_Source\PSoC4/key_touch_Tuner.c ****     if (TU_FSM_SNR_TEST == tunerFsm)
 179              		.loc 1 183 0
 180 0072 022B     		cmp	r3, #2
 181 0074 2ED1     		bne	.L15
 184:Generated_Source\PSoC4/key_touch_Tuner.c ****     {
 185:Generated_Source\PSoC4/key_touch_Tuner.c ****         widgetId = ptrDsRam->snrTestWidgetId;
 182              		.loc 1 185 0
 183 0076 184A     		ldr	r2, .L17
 184              	.LVL20:
 185 0078 7333     		add	r3, r3, #115
 186 007a FF33     		add	r3, r3, #255
 187 007c D35C     		ldrb	r3, [r2, r3]
 188 007e DBB2     		uxtb	r3, r3
 189              	.LVL21:
 186:Generated_Source\PSoC4/key_touch_Tuner.c ****         sensorId = ptrDsRam->snrTestSensorId;
 190              		.loc 1 186 0
 191 0080 7621     		mov	r1, #118
 192 0082 FF31     		add	r1, r1, #255
 193 0084 525C     		ldrb	r2, [r2, r1]
 194 0086 D2B2     		uxtb	r2, r2
 195              	.LVL22:
 187:Generated_Source\PSoC4/key_touch_Tuner.c ****         
 188:Generated_Source\PSoC4/key_touch_Tuner.c ****         /* Check if widgetId and sensorId are in range, 
 189:Generated_Source\PSoC4/key_touch_Tuner.c ****          * and data was updated in RAM (scan counter changed) 
 190:Generated_Source\PSoC4/key_touch_Tuner.c ****          */
 191:Generated_Source\PSoC4/key_touch_Tuner.c ****         if ((widgetId < key_touch_TOTAL_WIDGETS)              && 
 196              		.loc 1 191 0
 197 0088 0B2B     		cmp	r3, #11
 198 008a 23D8     		bhi	.L15
 192:Generated_Source\PSoC4/key_touch_Tuner.c ****             (sensorId < key_touch_GET_SENSOR_COUNT(widgetId)) &&
 199              		.loc 1 192 0 discriminator 1
 200 008c 5901     		lsl	r1, r3, #5
 201 008e 1548     		ldr	r0, .L17+12
 202 0090 4118     		add	r1, r0, r1
 203 0092 C98A     		ldrh	r1, [r1, #22]
 191:Generated_Source\PSoC4/key_touch_Tuner.c ****             (sensorId < key_touch_GET_SENSOR_COUNT(widgetId)) &&
 204              		.loc 1 191 0 discriminator 1
ARM GAS  C:\Users\Administrator\AppData\Local\Temp\ccgju7tf.s 			page 8


 205 0094 9142     		cmp	r1, r2
 206 0096 1DD9     		bls	.L15
 193:Generated_Source\PSoC4/key_touch_Tuner.c ****             (ptrDsRam->scanCounter != ptrDsRam->snrTestScanCounter))
 207              		.loc 1 193 0
 208 0098 0F48     		ldr	r0, .L17
 209 009a C188     		ldrh	r1, [r0, #6]
 210 009c BB24     		mov	r4, #187
 211              	.LVL23:
 212 009e 6400     		lsl	r4, r4, #1
 213 00a0 005B     		ldrh	r0, [r0, r4]
 214 00a2 89B2     		uxth	r1, r1
 192:Generated_Source\PSoC4/key_touch_Tuner.c ****             (sensorId < key_touch_GET_SENSOR_COUNT(widgetId)) &&
 215              		.loc 1 192 0
 216 00a4 8142     		cmp	r1, r0
 217 00a6 15D0     		beq	.L15
 194:Generated_Source\PSoC4/key_touch_Tuner.c ****         {
 195:Generated_Source\PSoC4/key_touch_Tuner.c ****             /* Get access to the Sensor Object */
 196:Generated_Source\PSoC4/key_touch_Tuner.c ****             ptrSns = key_touch_dsFlash.wdgtArray[widgetId].ptr2SnsRam;
 218              		.loc 1 196 0
 219 00a8 5B01     		lsl	r3, r3, #5
 220              	.LVL24:
 221 00aa 0E49     		ldr	r1, .L17+12
 222 00ac CB18     		add	r3, r1, r3
 223 00ae 9C68     		ldr	r4, [r3, #8]
 224              	.LVL25:
 197:Generated_Source\PSoC4/key_touch_Tuner.c ****             ptrSns += sensorId;
 225              		.loc 1 197 0
 226 00b0 9300     		lsl	r3, r2, #2
 227 00b2 9A18     		add	r2, r3, r2
 228              	.LVL26:
 229 00b4 5200     		lsl	r2, r2, #1
 230 00b6 A418     		add	r4, r4, r2
 231              	.LVL27:
 198:Generated_Source\PSoC4/key_touch_Tuner.c ****             
 199:Generated_Source\PSoC4/key_touch_Tuner.c ****             /* Update data in SNR Test Object */
 200:Generated_Source\PSoC4/key_touch_Tuner.c ****             critSect = CyEnterCriticalSection();
 232              		.loc 1 200 0
 233 00b8 FFF7FEFF 		bl	CyEnterCriticalSection
 234              	.LVL28:
 201:Generated_Source\PSoC4/key_touch_Tuner.c ****             ptrDsRam->snrTestScanCounter = ptrDsRam->scanCounter;
 235              		.loc 1 201 0
 236 00bc 064B     		ldr	r3, .L17
 237 00be DA88     		ldrh	r2, [r3, #6]
 238 00c0 92B2     		uxth	r2, r2
 239 00c2 BB21     		mov	r1, #187
 240 00c4 4900     		lsl	r1, r1, #1
 241 00c6 5A52     		strh	r2, [r3, r1]
 202:Generated_Source\PSoC4/key_touch_Tuner.c ****             ptrDsRam->snrTestRawCount[0u] = ptrSns->raw[0u];
 242              		.loc 1 202 0
 243 00c8 2288     		ldrh	r2, [r4]
 244 00ca 92B2     		uxth	r2, r2
 245 00cc 0231     		add	r1, r1, #2
 246 00ce 5A52     		strh	r2, [r3, r1]
 203:Generated_Source\PSoC4/key_touch_Tuner.c ****             
 204:Generated_Source\PSoC4/key_touch_Tuner.c ****             #if (0u != key_touch_MULTI_FREQ_SCAN_EN)
 205:Generated_Source\PSoC4/key_touch_Tuner.c ****                 ptrDsRam->snrTestRawCount[1u] = ptrSns->raw[1u];
 206:Generated_Source\PSoC4/key_touch_Tuner.c ****                 ptrDsRam->snrTestRawCount[2u] = ptrSns->raw[2u];
ARM GAS  C:\Users\Administrator\AppData\Local\Temp\ccgju7tf.s 			page 9


 207:Generated_Source\PSoC4/key_touch_Tuner.c ****             #endif
 208:Generated_Source\PSoC4/key_touch_Tuner.c ****             
 209:Generated_Source\PSoC4/key_touch_Tuner.c ****             CyExitCriticalSection(critSect);
 247              		.loc 1 209 0
 248 00d0 FFF7FEFF 		bl	CyExitCriticalSection
 249              	.LVL29:
 250              	.L15:
 210:Generated_Source\PSoC4/key_touch_Tuner.c ****         } 
 211:Generated_Source\PSoC4/key_touch_Tuner.c ****     }
 212:Generated_Source\PSoC4/key_touch_Tuner.c ****     return tunerStatus;
 213:Generated_Source\PSoC4/key_touch_Tuner.c **** }
 251              		.loc 1 213 0
 252 00d4 281C     		mov	r0, r5
 253              		@ sp needed
 254              	.LVL30:
 255 00d6 38BD     		pop	{r3, r4, r5, pc}
 256              	.L18:
 257              		.align	2
 258              	.L17:
 259 00d8 00000000 		.word	key_touch_dsRam
 260 00dc 00000000 		.word	.L7
 261 00e0 00000000 		.word	.LANCHOR0
 262 00e4 00000000 		.word	key_touch_dsFlash
 263              		.cfi_endproc
 264              	.LFE2:
 265              		.size	key_touch_RunTuner, .-key_touch_RunTuner
 266              		.bss
 267              		.align	2
 268              		.set	.LANCHOR0,. + 0
 269              		.type	tunerFsm, %object
 270              		.size	tunerFsm, 4
 271              	tunerFsm:
 272 0000 00000000 		.space	4
 273              		.text
 274              	.Letext0:
 275              		.file 2 "Generated_Source\\PSoC4\\cytypes.h"
 276              		.file 3 "Generated_Source\\PSoC4\\key_touch_Configuration.h"
 277              		.file 4 "Generated_Source\\PSoC4\\key_touch_SmartSense_LL.h"
 278              		.file 5 "Generated_Source\\PSoC4\\key_touch_Structure.h"
 279              		.file 6 "Generated_Source\\PSoC4\\key_touch_Tuner.h"
 280              		.file 7 "Generated_Source\\PSoC4\\key_touch_Control.h"
 281              		.file 8 "Generated_Source\\PSoC4\\CyLib.h"