ARM GAS  C:\Users\Administrator\AppData\Local\Temp\ccmb3JYY.s 			page 1


   1              		.cpu cortex-m0plus
   2              		.fpu softvfp
   3              		.eabi_attribute 20, 1
   4              		.eabi_attribute 21, 1
   5              		.eabi_attribute 23, 3
   6              		.eabi_attribute 24, 1
   7              		.eabi_attribute 25, 1
   8              		.eabi_attribute 26, 1
   9              		.eabi_attribute 30, 1
  10              		.eabi_attribute 34, 0
  11              		.eabi_attribute 18, 4
  12              		.code	16
  13              		.file	"key_config.c"
  14              		.text
  15              	.Ltext0:
  16              		.cfi_sections	.debug_frame
  17              		.section	.text.pin_zhi_neng,"ax",%progbits
  18              		.align	2
  19              		.code	16
  20              		.thumb_func
  21              		.type	pin_zhi_neng, %function
  22              	pin_zhi_neng:
  23              	.LFB46:
  24              		.file 1 "key_config.c"
   1:key_config.c  **** /* ========================================
   2:key_config.c  ****  *
   3:key_config.c  ****  * Copyright YOUR COMPANY, THE YEAR
   4:key_config.c  ****  * All Rights Reserved
   5:key_config.c  ****  * UNPUBLISHED, LICENSED SOFTWARE.
   6:key_config.c  ****  *
   7:key_config.c  ****  * CONFIDENTIAL AND PROPRIETARY INFORMATION
   8:key_config.c  ****  * WHICH IS THE PROPERTY OF your company.
   9:key_config.c  ****  *
  10:key_config.c  ****  * ========================================
  11:key_config.c  **** */
  12:key_config.c  **** #include "key_config.h"
  13:key_config.c  **** 
  14:key_config.c  **** 
  15:key_config.c  **** 
  16:key_config.c  **** static Level pin_dian_yuan(void);
  17:key_config.c  **** static Level pin_feng_nuan(void);
  18:key_config.c  **** static Level pin_wendu_jia(void);
  19:key_config.c  **** static Level pin_wendu_jian(void);
  20:key_config.c  **** static Level pin_xin_feng(void);
  21:key_config.c  **** static Level pin_qiang_ruo(void);
  22:key_config.c  **** static Level pin_huan_qi(void);
  23:key_config.c  **** static Level pin_xin_feng_qu_nuan(void);
  24:key_config.c  **** static Level pin_dingshi_jia(void);
  25:key_config.c  **** static Level pin_dingshi_jian(void);
  26:key_config.c  **** static Level pin_bai_dong(void);
  27:key_config.c  **** static Level pin_zhi_neng(void);
  28:key_config.c  **** 
  29:key_config.c  **** Pin_input input_pins[KEY_NUMBER] = 
  30:key_config.c  **** {
  31:key_config.c  ****     pin_dian_yuan,
  32:key_config.c  ****     pin_feng_nuan, 
  33:key_config.c  ****     pin_wendu_jia,
ARM GAS  C:\Users\Administrator\AppData\Local\Temp\ccmb3JYY.s 			page 2


  34:key_config.c  ****     pin_wendu_jian,
  35:key_config.c  ****     pin_xin_feng,
  36:key_config.c  ****     pin_qiang_ruo,
  37:key_config.c  ****     pin_huan_qi,
  38:key_config.c  ****     pin_xin_feng_qu_nuan,
  39:key_config.c  ****     pin_dingshi_jia,
  40:key_config.c  ****     pin_dingshi_jian,
  41:key_config.c  ****     pin_bai_dong,
  42:key_config.c  ****     pin_zhi_neng,
  43:key_config.c  **** };
  44:key_config.c  **** 
  45:key_config.c  **** 
  46:key_config.c  **** static Level pin_dian_yuan(void)
  47:key_config.c  **** {
  48:key_config.c  ****     if (key_touch_IsWidgetActive(key_touch_BUTTON0_WDGT_ID))
  49:key_config.c  ****         return LEVEL_HIGH;
  50:key_config.c  ****     else
  51:key_config.c  ****         return LEVEL_LOW;
  52:key_config.c  **** }
  53:key_config.c  **** 
  54:key_config.c  **** static Level pin_feng_nuan(void)
  55:key_config.c  **** {
  56:key_config.c  ****     if (key_touch_IsWidgetActive(key_touch_BUTTON1_WDGT_ID))
  57:key_config.c  ****         return LEVEL_HIGH;
  58:key_config.c  ****     else
  59:key_config.c  ****         return LEVEL_LOW;
  60:key_config.c  **** }
  61:key_config.c  **** 
  62:key_config.c  **** static Level pin_wendu_jia(void)
  63:key_config.c  **** {
  64:key_config.c  ****     if (key_touch_IsWidgetActive(key_touch_BUTTON2_WDGT_ID))
  65:key_config.c  ****         return LEVEL_HIGH;
  66:key_config.c  ****     else
  67:key_config.c  ****         return LEVEL_LOW;
  68:key_config.c  **** }
  69:key_config.c  **** 
  70:key_config.c  **** static Level pin_wendu_jian(void)
  71:key_config.c  **** {
  72:key_config.c  ****     if (key_touch_IsWidgetActive(key_touch_BUTTON3_WDGT_ID))
  73:key_config.c  ****         return LEVEL_HIGH;
  74:key_config.c  ****     else
  75:key_config.c  ****         return LEVEL_LOW;
  76:key_config.c  **** }
  77:key_config.c  **** 
  78:key_config.c  **** static Level pin_xin_feng(void)
  79:key_config.c  **** {
  80:key_config.c  ****     if (key_touch_IsWidgetActive(key_touch_BUTTON4_WDGT_ID))
  81:key_config.c  ****         return LEVEL_HIGH;
  82:key_config.c  ****     else
  83:key_config.c  ****         return LEVEL_LOW;
  84:key_config.c  **** }
  85:key_config.c  **** 
  86:key_config.c  **** static Level pin_qiang_ruo(void)
  87:key_config.c  **** {
  88:key_config.c  ****     if (key_touch_IsWidgetActive(key_touch_BUTTON5_WDGT_ID))
  89:key_config.c  ****         return LEVEL_HIGH;
  90:key_config.c  ****     else
ARM GAS  C:\Users\Administrator\AppData\Local\Temp\ccmb3JYY.s 			page 3


  91:key_config.c  ****         return LEVEL_LOW;
  92:key_config.c  **** }
  93:key_config.c  **** 
  94:key_config.c  **** static Level pin_huan_qi(void)
  95:key_config.c  **** {
  96:key_config.c  ****     if (key_touch_IsWidgetActive(key_touch_BUTTON6_WDGT_ID))
  97:key_config.c  ****         return LEVEL_HIGH;
  98:key_config.c  ****     else
  99:key_config.c  ****         return LEVEL_LOW;
 100:key_config.c  **** }
 101:key_config.c  **** 
 102:key_config.c  **** static Level pin_xin_feng_qu_nuan(void)
 103:key_config.c  **** {
 104:key_config.c  ****     if (key_touch_IsWidgetActive(key_touch_BUTTON7_WDGT_ID))
 105:key_config.c  ****         return LEVEL_HIGH;
 106:key_config.c  ****     else
 107:key_config.c  ****         return LEVEL_LOW;
 108:key_config.c  **** }
 109:key_config.c  **** 
 110:key_config.c  **** static Level pin_dingshi_jia(void)
 111:key_config.c  **** {
 112:key_config.c  ****     if (key_touch_IsWidgetActive(key_touch_BUTTON8_WDGT_ID))
 113:key_config.c  ****         return LEVEL_HIGH;
 114:key_config.c  ****     else
 115:key_config.c  ****         return LEVEL_LOW;
 116:key_config.c  **** }
 117:key_config.c  **** 
 118:key_config.c  **** static Level pin_dingshi_jian(void)
 119:key_config.c  **** {
 120:key_config.c  ****     if (key_touch_IsWidgetActive(key_touch_BUTTON9_WDGT_ID))
 121:key_config.c  ****         return LEVEL_HIGH;
 122:key_config.c  ****     else
 123:key_config.c  ****         return LEVEL_LOW;
 124:key_config.c  **** }
 125:key_config.c  **** 
 126:key_config.c  **** static Level pin_bai_dong(void)
 127:key_config.c  **** {
 128:key_config.c  ****     if (key_touch_IsWidgetActive(key_touch_BUTTON10_WDGT_ID))
 129:key_config.c  ****         return LEVEL_HIGH;
 130:key_config.c  ****     else
 131:key_config.c  ****         return LEVEL_LOW;
 132:key_config.c  **** }
 133:key_config.c  **** 
 134:key_config.c  **** static Level pin_zhi_neng(void)
 135:key_config.c  **** {
  25              		.loc 1 135 0
  26              		.cfi_startproc
  27 0000 08B5     		push	{r3, lr}
  28              		.cfi_def_cfa_offset 8
  29              		.cfi_offset 3, -8
  30              		.cfi_offset 14, -4
 136:key_config.c  ****     if (key_touch_IsWidgetActive(key_touch_BUTTON11_WDGT_ID))
  31              		.loc 1 136 0
  32 0002 0B20     		mov	r0, #11
  33 0004 FFF7FEFF 		bl	key_touch_IsWidgetActive
  34              	.LVL0:
  35 0008 0028     		cmp	r0, #0
ARM GAS  C:\Users\Administrator\AppData\Local\Temp\ccmb3JYY.s 			page 4


  36 000a 01D0     		beq	.L3
 137:key_config.c  ****         return LEVEL_HIGH;
  37              		.loc 1 137 0
  38 000c 0120     		mov	r0, #1
  39 000e 00E0     		b	.L2
  40              	.L3:
 138:key_config.c  ****     else
 139:key_config.c  ****         return LEVEL_LOW;
  41              		.loc 1 139 0
  42 0010 0020     		mov	r0, #0
  43              	.L2:
 140:key_config.c  **** }
  44              		.loc 1 140 0
  45              		@ sp needed
  46 0012 08BD     		pop	{r3, pc}
  47              		.cfi_endproc
  48              	.LFE46:
  49              		.size	pin_zhi_neng, .-pin_zhi_neng
  50              		.section	.text.pin_bai_dong,"ax",%progbits
  51              		.align	2
  52              		.code	16
  53              		.thumb_func
  54              		.type	pin_bai_dong, %function
  55              	pin_bai_dong:
  56              	.LFB45:
 127:key_config.c  ****     if (key_touch_IsWidgetActive(key_touch_BUTTON10_WDGT_ID))
  57              		.loc 1 127 0
  58              		.cfi_startproc
  59 0000 08B5     		push	{r3, lr}
  60              		.cfi_def_cfa_offset 8
  61              		.cfi_offset 3, -8
  62              		.cfi_offset 14, -4
 128:key_config.c  ****         return LEVEL_HIGH;
  63              		.loc 1 128 0
  64 0002 0A20     		mov	r0, #10
  65 0004 FFF7FEFF 		bl	key_touch_IsWidgetActive
  66              	.LVL1:
  67 0008 0028     		cmp	r0, #0
  68 000a 01D0     		beq	.L6
 129:key_config.c  ****     else
  69              		.loc 1 129 0
  70 000c 0120     		mov	r0, #1
  71 000e 00E0     		b	.L5
  72              	.L6:
 131:key_config.c  **** }
  73              		.loc 1 131 0
  74 0010 0020     		mov	r0, #0
  75              	.L5:
 132:key_config.c  **** 
  76              		.loc 1 132 0
  77              		@ sp needed
  78 0012 08BD     		pop	{r3, pc}
  79              		.cfi_endproc
  80              	.LFE45:
  81              		.size	pin_bai_dong, .-pin_bai_dong
  82              		.section	.text.pin_dingshi_jian,"ax",%progbits
  83              		.align	2
ARM GAS  C:\Users\Administrator\AppData\Local\Temp\ccmb3JYY.s 			page 5


  84              		.code	16
  85              		.thumb_func
  86              		.type	pin_dingshi_jian, %function
  87              	pin_dingshi_jian:
  88              	.LFB44:
 119:key_config.c  ****     if (key_touch_IsWidgetActive(key_touch_BUTTON9_WDGT_ID))
  89              		.loc 1 119 0
  90              		.cfi_startproc
  91 0000 08B5     		push	{r3, lr}
  92              		.cfi_def_cfa_offset 8
  93              		.cfi_offset 3, -8
  94              		.cfi_offset 14, -4
 120:key_config.c  ****         return LEVEL_HIGH;
  95              		.loc 1 120 0
  96 0002 0920     		mov	r0, #9
  97 0004 FFF7FEFF 		bl	key_touch_IsWidgetActive
  98              	.LVL2:
  99 0008 0028     		cmp	r0, #0
 100 000a 01D0     		beq	.L9
 121:key_config.c  ****     else
 101              		.loc 1 121 0
 102 000c 0120     		mov	r0, #1
 103 000e 00E0     		b	.L8
 104              	.L9:
 123:key_config.c  **** }
 105              		.loc 1 123 0
 106 0010 0020     		mov	r0, #0
 107              	.L8:
 124:key_config.c  **** 
 108              		.loc 1 124 0
 109              		@ sp needed
 110 0012 08BD     		pop	{r3, pc}
 111              		.cfi_endproc
 112              	.LFE44:
 113              		.size	pin_dingshi_jian, .-pin_dingshi_jian
 114              		.section	.text.pin_dingshi_jia,"ax",%progbits
 115              		.align	2
 116              		.code	16
 117              		.thumb_func
 118              		.type	pin_dingshi_jia, %function
 119              	pin_dingshi_jia:
 120              	.LFB43:
 111:key_config.c  ****     if (key_touch_IsWidgetActive(key_touch_BUTTON8_WDGT_ID))
 121              		.loc 1 111 0
 122              		.cfi_startproc
 123 0000 08B5     		push	{r3, lr}
 124              		.cfi_def_cfa_offset 8
 125              		.cfi_offset 3, -8
 126              		.cfi_offset 14, -4
 112:key_config.c  ****         return LEVEL_HIGH;
 127              		.loc 1 112 0
 128 0002 0820     		mov	r0, #8
 129 0004 FFF7FEFF 		bl	key_touch_IsWidgetActive
 130              	.LVL3:
 131 0008 0028     		cmp	r0, #0
 132 000a 01D0     		beq	.L12
 113:key_config.c  ****     else
ARM GAS  C:\Users\Administrator\AppData\Local\Temp\ccmb3JYY.s 			page 6


 133              		.loc 1 113 0
 134 000c 0120     		mov	r0, #1
 135 000e 00E0     		b	.L11
 136              	.L12:
 115:key_config.c  **** }
 137              		.loc 1 115 0
 138 0010 0020     		mov	r0, #0
 139              	.L11:
 116:key_config.c  **** 
 140              		.loc 1 116 0
 141              		@ sp needed
 142 0012 08BD     		pop	{r3, pc}
 143              		.cfi_endproc
 144              	.LFE43:
 145              		.size	pin_dingshi_jia, .-pin_dingshi_jia
 146              		.section	.text.pin_xin_feng_qu_nuan,"ax",%progbits
 147              		.align	2
 148              		.code	16
 149              		.thumb_func
 150              		.type	pin_xin_feng_qu_nuan, %function
 151              	pin_xin_feng_qu_nuan:
 152              	.LFB42:
 103:key_config.c  ****     if (key_touch_IsWidgetActive(key_touch_BUTTON7_WDGT_ID))
 153              		.loc 1 103 0
 154              		.cfi_startproc
 155 0000 08B5     		push	{r3, lr}
 156              		.cfi_def_cfa_offset 8
 157              		.cfi_offset 3, -8
 158              		.cfi_offset 14, -4
 104:key_config.c  ****         return LEVEL_HIGH;
 159              		.loc 1 104 0
 160 0002 0720     		mov	r0, #7
 161 0004 FFF7FEFF 		bl	key_touch_IsWidgetActive
 162              	.LVL4:
 163 0008 0028     		cmp	r0, #0
 164 000a 01D0     		beq	.L15
 105:key_config.c  ****     else
 165              		.loc 1 105 0
 166 000c 0120     		mov	r0, #1
 167 000e 00E0     		b	.L14
 168              	.L15:
 107:key_config.c  **** }
 169              		.loc 1 107 0
 170 0010 0020     		mov	r0, #0
 171              	.L14:
 108:key_config.c  **** 
 172              		.loc 1 108 0
 173              		@ sp needed
 174 0012 08BD     		pop	{r3, pc}
 175              		.cfi_endproc
 176              	.LFE42:
 177              		.size	pin_xin_feng_qu_nuan, .-pin_xin_feng_qu_nuan
 178              		.section	.text.pin_huan_qi,"ax",%progbits
 179              		.align	2
 180              		.code	16
 181              		.thumb_func
 182              		.type	pin_huan_qi, %function
ARM GAS  C:\Users\Administrator\AppData\Local\Temp\ccmb3JYY.s 			page 7


 183              	pin_huan_qi:
 184              	.LFB41:
  95:key_config.c  ****     if (key_touch_IsWidgetActive(key_touch_BUTTON6_WDGT_ID))
 185              		.loc 1 95 0
 186              		.cfi_startproc
 187 0000 08B5     		push	{r3, lr}
 188              		.cfi_def_cfa_offset 8
 189              		.cfi_offset 3, -8
 190              		.cfi_offset 14, -4
  96:key_config.c  ****         return LEVEL_HIGH;
 191              		.loc 1 96 0
 192 0002 0620     		mov	r0, #6
 193 0004 FFF7FEFF 		bl	key_touch_IsWidgetActive
 194              	.LVL5:
 195 0008 0028     		cmp	r0, #0
 196 000a 01D0     		beq	.L18
  97:key_config.c  ****     else
 197              		.loc 1 97 0
 198 000c 0120     		mov	r0, #1
 199 000e 00E0     		b	.L17
 200              	.L18:
  99:key_config.c  **** }
 201              		.loc 1 99 0
 202 0010 0020     		mov	r0, #0
 203              	.L17:
 100:key_config.c  **** 
 204              		.loc 1 100 0
 205              		@ sp needed
 206 0012 08BD     		pop	{r3, pc}
 207              		.cfi_endproc
 208              	.LFE41:
 209              		.size	pin_huan_qi, .-pin_huan_qi
 210              		.section	.text.pin_qiang_ruo,"ax",%progbits
 211              		.align	2
 212              		.code	16
 213              		.thumb_func
 214              		.type	pin_qiang_ruo, %function
 215              	pin_qiang_ruo:
 216              	.LFB40:
  87:key_config.c  ****     if (key_touch_IsWidgetActive(key_touch_BUTTON5_WDGT_ID))
 217              		.loc 1 87 0
 218              		.cfi_startproc
 219 0000 08B5     		push	{r3, lr}
 220              		.cfi_def_cfa_offset 8
 221              		.cfi_offset 3, -8
 222              		.cfi_offset 14, -4
  88:key_config.c  ****         return LEVEL_HIGH;
 223              		.loc 1 88 0
 224 0002 0520     		mov	r0, #5
 225 0004 FFF7FEFF 		bl	key_touch_IsWidgetActive
 226              	.LVL6:
 227 0008 0028     		cmp	r0, #0
 228 000a 01D0     		beq	.L21
  89:key_config.c  ****     else
 229              		.loc 1 89 0
 230 000c 0120     		mov	r0, #1
 231 000e 00E0     		b	.L20
ARM GAS  C:\Users\Administrator\AppData\Local\Temp\ccmb3JYY.s 			page 8


 232              	.L21:
  91:key_config.c  **** }
 233              		.loc 1 91 0
 234 0010 0020     		mov	r0, #0
 235              	.L20:
  92:key_config.c  **** 
 236              		.loc 1 92 0
 237              		@ sp needed
 238 0012 08BD     		pop	{r3, pc}
 239              		.cfi_endproc
 240              	.LFE40:
 241              		.size	pin_qiang_ruo, .-pin_qiang_ruo
 242              		.section	.text.pin_xin_feng,"ax",%progbits
 243              		.align	2
 244              		.code	16
 245              		.thumb_func
 246              		.type	pin_xin_feng, %function
 247              	pin_xin_feng:
 248              	.LFB39:
  79:key_config.c  ****     if (key_touch_IsWidgetActive(key_touch_BUTTON4_WDGT_ID))
 249              		.loc 1 79 0
 250              		.cfi_startproc
 251 0000 08B5     		push	{r3, lr}
 252              		.cfi_def_cfa_offset 8
 253              		.cfi_offset 3, -8
 254              		.cfi_offset 14, -4
  80:key_config.c  ****         return LEVEL_HIGH;
 255              		.loc 1 80 0
 256 0002 0420     		mov	r0, #4
 257 0004 FFF7FEFF 		bl	key_touch_IsWidgetActive
 258              	.LVL7:
 259 0008 0028     		cmp	r0, #0
 260 000a 01D0     		beq	.L24
  81:key_config.c  ****     else
 261              		.loc 1 81 0
 262 000c 0120     		mov	r0, #1
 263 000e 00E0     		b	.L23
 264              	.L24:
  83:key_config.c  **** }
 265              		.loc 1 83 0
 266 0010 0020     		mov	r0, #0
 267              	.L23:
  84:key_config.c  **** 
 268              		.loc 1 84 0
 269              		@ sp needed
 270 0012 08BD     		pop	{r3, pc}
 271              		.cfi_endproc
 272              	.LFE39:
 273              		.size	pin_xin_feng, .-pin_xin_feng
 274              		.section	.text.pin_wendu_jian,"ax",%progbits
 275              		.align	2
 276              		.code	16
 277              		.thumb_func
 278              		.type	pin_wendu_jian, %function
 279              	pin_wendu_jian:
 280              	.LFB38:
  71:key_config.c  ****     if (key_touch_IsWidgetActive(key_touch_BUTTON3_WDGT_ID))
ARM GAS  C:\Users\Administrator\AppData\Local\Temp\ccmb3JYY.s 			page 9


 281              		.loc 1 71 0
 282              		.cfi_startproc
 283 0000 08B5     		push	{r3, lr}
 284              		.cfi_def_cfa_offset 8
 285              		.cfi_offset 3, -8
 286              		.cfi_offset 14, -4
  72:key_config.c  ****         return LEVEL_HIGH;
 287              		.loc 1 72 0
 288 0002 0320     		mov	r0, #3
 289 0004 FFF7FEFF 		bl	key_touch_IsWidgetActive
 290              	.LVL8:
 291 0008 0028     		cmp	r0, #0
 292 000a 01D0     		beq	.L27
  73:key_config.c  ****     else
 293              		.loc 1 73 0
 294 000c 0120     		mov	r0, #1
 295 000e 00E0     		b	.L26
 296              	.L27:
  75:key_config.c  **** }
 297              		.loc 1 75 0
 298 0010 0020     		mov	r0, #0
 299              	.L26:
  76:key_config.c  **** 
 300              		.loc 1 76 0
 301              		@ sp needed
 302 0012 08BD     		pop	{r3, pc}
 303              		.cfi_endproc
 304              	.LFE38:
 305              		.size	pin_wendu_jian, .-pin_wendu_jian
 306              		.section	.text.pin_wendu_jia,"ax",%progbits
 307              		.align	2
 308              		.code	16
 309              		.thumb_func
 310              		.type	pin_wendu_jia, %function
 311              	pin_wendu_jia:
 312              	.LFB37:
  63:key_config.c  ****     if (key_touch_IsWidgetActive(key_touch_BUTTON2_WDGT_ID))
 313              		.loc 1 63 0
 314              		.cfi_startproc
 315 0000 08B5     		push	{r3, lr}
 316              		.cfi_def_cfa_offset 8
 317              		.cfi_offset 3, -8
 318              		.cfi_offset 14, -4
  64:key_config.c  ****         return LEVEL_HIGH;
 319              		.loc 1 64 0
 320 0002 0220     		mov	r0, #2
 321 0004 FFF7FEFF 		bl	key_touch_IsWidgetActive
 322              	.LVL9:
 323 0008 0028     		cmp	r0, #0
 324 000a 01D0     		beq	.L30
  65:key_config.c  ****     else
 325              		.loc 1 65 0
 326 000c 0120     		mov	r0, #1
 327 000e 00E0     		b	.L29
 328              	.L30:
  67:key_config.c  **** }
 329              		.loc 1 67 0
ARM GAS  C:\Users\Administrator\AppData\Local\Temp\ccmb3JYY.s 			page 10


 330 0010 0020     		mov	r0, #0
 331              	.L29:
  68:key_config.c  **** 
 332              		.loc 1 68 0
 333              		@ sp needed
 334 0012 08BD     		pop	{r3, pc}
 335              		.cfi_endproc
 336              	.LFE37:
 337              		.size	pin_wendu_jia, .-pin_wendu_jia
 338              		.section	.text.pin_feng_nuan,"ax",%progbits
 339              		.align	2
 340              		.code	16
 341              		.thumb_func
 342              		.type	pin_feng_nuan, %function
 343              	pin_feng_nuan:
 344              	.LFB36:
  55:key_config.c  ****     if (key_touch_IsWidgetActive(key_touch_BUTTON1_WDGT_ID))
 345              		.loc 1 55 0
 346              		.cfi_startproc
 347 0000 08B5     		push	{r3, lr}
 348              		.cfi_def_cfa_offset 8
 349              		.cfi_offset 3, -8
 350              		.cfi_offset 14, -4
  56:key_config.c  ****         return LEVEL_HIGH;
 351              		.loc 1 56 0
 352 0002 0120     		mov	r0, #1
 353 0004 FFF7FEFF 		bl	key_touch_IsWidgetActive
 354              	.LVL10:
 355 0008 0028     		cmp	r0, #0
 356 000a 01D0     		beq	.L33
  57:key_config.c  ****     else
 357              		.loc 1 57 0
 358 000c 0120     		mov	r0, #1
 359 000e 00E0     		b	.L32
 360              	.L33:
  59:key_config.c  **** }
 361              		.loc 1 59 0
 362 0010 0020     		mov	r0, #0
 363              	.L32:
  60:key_config.c  **** 
 364              		.loc 1 60 0
 365              		@ sp needed
 366 0012 08BD     		pop	{r3, pc}
 367              		.cfi_endproc
 368              	.LFE36:
 369              		.size	pin_feng_nuan, .-pin_feng_nuan
 370              		.section	.text.pin_dian_yuan,"ax",%progbits
 371              		.align	2
 372              		.code	16
 373              		.thumb_func
 374              		.type	pin_dian_yuan, %function
 375              	pin_dian_yuan:
 376              	.LFB35:
  47:key_config.c  ****     if (key_touch_IsWidgetActive(key_touch_BUTTON0_WDGT_ID))
 377              		.loc 1 47 0
 378              		.cfi_startproc
 379 0000 08B5     		push	{r3, lr}
ARM GAS  C:\Users\Administrator\AppData\Local\Temp\ccmb3JYY.s 			page 11


 380              		.cfi_def_cfa_offset 8
 381              		.cfi_offset 3, -8
 382              		.cfi_offset 14, -4
  48:key_config.c  ****         return LEVEL_HIGH;
 383              		.loc 1 48 0
 384 0002 0020     		mov	r0, #0
 385 0004 FFF7FEFF 		bl	key_touch_IsWidgetActive
 386              	.LVL11:
 387 0008 0028     		cmp	r0, #0
 388 000a 01D0     		beq	.L36
  49:key_config.c  ****     else
 389              		.loc 1 49 0
 390 000c 0120     		mov	r0, #1
 391 000e 00E0     		b	.L35
 392              	.L36:
  51:key_config.c  **** }
 393              		.loc 1 51 0
 394 0010 0020     		mov	r0, #0
 395              	.L35:
  52:key_config.c  **** 
 396              		.loc 1 52 0
 397              		@ sp needed
 398 0012 08BD     		pop	{r3, pc}
 399              		.cfi_endproc
 400              	.LFE35:
 401              		.size	pin_dian_yuan, .-pin_dian_yuan
 402              		.global	input_pins
 403              		.data
 404              		.align	2
 405              		.type	input_pins, %object
 406              		.size	input_pins, 48
 407              	input_pins:
 408 0000 00000000 		.word	pin_dian_yuan
 409 0004 00000000 		.word	pin_feng_nuan
 410 0008 00000000 		.word	pin_wendu_jia
 411 000c 00000000 		.word	pin_wendu_jian
 412 0010 00000000 		.word	pin_xin_feng
 413 0014 00000000 		.word	pin_qiang_ruo
 414 0018 00000000 		.word	pin_huan_qi
 415 001c 00000000 		.word	pin_xin_feng_qu_nuan
 416 0020 00000000 		.word	pin_dingshi_jia
 417 0024 00000000 		.word	pin_dingshi_jian
 418 0028 00000000 		.word	pin_bai_dong
 419 002c 00000000 		.word	pin_zhi_neng
 420              		.text
 421              	.Letext0:
 422              		.file 2 "Generated_Source\\PSoC4/cytypes.h"
 423              		.file 3 "types.h"
 424              		.file 4 "key_config.h"
 425              		.file 5 "Generated_Source\\PSoC4/key_touch_Structure.h"