ARM GAS  C:\Users\Administrator\AppData\Local\Temp\ccCs3Dc2.s 			page 1


   1              		.cpu cortex-m0plus
   2              		.fpu softvfp
   3              		.eabi_attribute 20, 1
   4              		.eabi_attribute 21, 1
   5              		.eabi_attribute 23, 3
   6              		.eabi_attribute 24, 1
   7              		.eabi_attribute 25, 1
   8              		.eabi_attribute 26, 1
   9              		.eabi_attribute 30, 1
  10              		.eabi_attribute 34, 0
  11              		.eabi_attribute 18, 4
  12              		.code	16
  13              		.file	"key_touch_Structure.c"
  14              		.text
  15              	.Ltext0:
  16              		.cfi_sections	.debug_frame
  17              		.section	.text.DsParseParamId,"ax",%progbits
  18              		.align	2
  19              		.code	16
  20              		.thumb_func
  21              		.type	DsParseParamId, %function
  22              	DsParseParamId:
  23              	.LFB2:
  24              		.file 1 "Generated_Source\\PSoC4\\key_touch_Structure.c"
   1:Generated_Source\PSoC4/key_touch_Structure.c **** /***************************************************************************//**
   2:Generated_Source\PSoC4/key_touch_Structure.c **** * \file key_touch_Structure.c
   3:Generated_Source\PSoC4/key_touch_Structure.c **** * \version 3.10
   4:Generated_Source\PSoC4/key_touch_Structure.c **** *
   5:Generated_Source\PSoC4/key_touch_Structure.c **** * \brief
   6:Generated_Source\PSoC4/key_touch_Structure.c **** *   This file defines the data structure global variables and provides implementation
   7:Generated_Source\PSoC4/key_touch_Structure.c **** *   for the high-level and low-level APIs of the Data Structure module.
   8:Generated_Source\PSoC4/key_touch_Structure.c **** *
   9:Generated_Source\PSoC4/key_touch_Structure.c **** * \see CapSense P4 v3.10 Datasheet
  10:Generated_Source\PSoC4/key_touch_Structure.c **** *
  11:Generated_Source\PSoC4/key_touch_Structure.c **** *//*****************************************************************************
  12:Generated_Source\PSoC4/key_touch_Structure.c **** * Copyright (2016), Cypress Semiconductor Corporation.
  13:Generated_Source\PSoC4/key_touch_Structure.c **** ********************************************************************************
  14:Generated_Source\PSoC4/key_touch_Structure.c **** * This software is owned by Cypress Semiconductor Corporation (Cypress) and is
  15:Generated_Source\PSoC4/key_touch_Structure.c **** * protected by and subject to worldwide patent protection (United States and
  16:Generated_Source\PSoC4/key_touch_Structure.c **** * foreign), United States copyright laws and international treaty provisions.
  17:Generated_Source\PSoC4/key_touch_Structure.c **** * Cypress hereby grants to licensee a personal, non-exclusive, non-transferable
  18:Generated_Source\PSoC4/key_touch_Structure.c **** * license to copy, use, modify, create derivative works of, and compile the
  19:Generated_Source\PSoC4/key_touch_Structure.c **** * Cypress Source Code and derivative works for the sole purpose of creating
  20:Generated_Source\PSoC4/key_touch_Structure.c **** * custom software in support of licensee product to be used only in conjunction
  21:Generated_Source\PSoC4/key_touch_Structure.c **** * with a Cypress integrated circuit as specified in the applicable agreement.
  22:Generated_Source\PSoC4/key_touch_Structure.c **** * Any reproduction, modification, translation, compilation, or representation of
  23:Generated_Source\PSoC4/key_touch_Structure.c **** * this software except as specified above is prohibited without the express
  24:Generated_Source\PSoC4/key_touch_Structure.c **** * written permission of Cypress.
  25:Generated_Source\PSoC4/key_touch_Structure.c **** *
  26:Generated_Source\PSoC4/key_touch_Structure.c **** * Disclaimer: CYPRESS MAKES NO WARRANTY OF ANY KIND, EXPRESS OR IMPLIED, WITH
  27:Generated_Source\PSoC4/key_touch_Structure.c **** * REGARD TO THIS MATERIAL, INCLUDING, BUT NOT LIMITED TO, THE IMPLIED
  28:Generated_Source\PSoC4/key_touch_Structure.c **** * WARRANTIES OF MERCHANTABILITY AND FITNESS FOR A PARTICULAR PURPOSE.
  29:Generated_Source\PSoC4/key_touch_Structure.c **** * Cypress reserves the right to make changes without further notice to the
  30:Generated_Source\PSoC4/key_touch_Structure.c **** * materials described herein. Cypress does not assume any liability arising out
  31:Generated_Source\PSoC4/key_touch_Structure.c **** * of the application or use of any product or circuit described herein. Cypress
  32:Generated_Source\PSoC4/key_touch_Structure.c **** * does not authorize its products for use as critical components in life-support
  33:Generated_Source\PSoC4/key_touch_Structure.c **** * systems where a malfunction or failure may reasonably be expected to result in
ARM GAS  C:\Users\Administrator\AppData\Local\Temp\ccCs3Dc2.s 			page 2


  34:Generated_Source\PSoC4/key_touch_Structure.c **** * significant injury to the user. The inclusion of Cypress' product in a life-
  35:Generated_Source\PSoC4/key_touch_Structure.c **** * support systems application implies that the manufacturer assumes all risk of
  36:Generated_Source\PSoC4/key_touch_Structure.c **** * such use and in doing so indemnifies Cypress against all charges. Use may be
  37:Generated_Source\PSoC4/key_touch_Structure.c **** * limited by and subject to the applicable Cypress software license agreement.
  38:Generated_Source\PSoC4/key_touch_Structure.c **** *******************************************************************************/
  39:Generated_Source\PSoC4/key_touch_Structure.c **** 
  40:Generated_Source\PSoC4/key_touch_Structure.c **** #include <cytypes.h>
  41:Generated_Source\PSoC4/key_touch_Structure.c **** #include "CyLib.h"
  42:Generated_Source\PSoC4/key_touch_Structure.c **** #include "key_touch_Structure.h"
  43:Generated_Source\PSoC4/key_touch_Structure.c **** #include "key_touch_Configuration.h"
  44:Generated_Source\PSoC4/key_touch_Structure.c **** 
  45:Generated_Source\PSoC4/key_touch_Structure.c **** #if (0u != key_touch_ADC_EN)
  46:Generated_Source\PSoC4/key_touch_Structure.c ****     #include "key_touch_Adc.h"
  47:Generated_Source\PSoC4/key_touch_Structure.c **** #endif /* (0u != key_touch_ADC_EN) */
  48:Generated_Source\PSoC4/key_touch_Structure.c **** 
  49:Generated_Source\PSoC4/key_touch_Structure.c **** #if (key_touch_ENABLE == key_touch_SELF_TEST_EN)
  50:Generated_Source\PSoC4/key_touch_Structure.c ****     #include "key_touch_SelfTest.h"
  51:Generated_Source\PSoC4/key_touch_Structure.c **** #endif
  52:Generated_Source\PSoC4/key_touch_Structure.c **** 
  53:Generated_Source\PSoC4/key_touch_Structure.c **** /*******************************************************************************
  54:Generated_Source\PSoC4/key_touch_Structure.c **** * Define the RAM Data Structure variables and their init data in flash
  55:Generated_Source\PSoC4/key_touch_Structure.c **** *******************************************************************************/
  56:Generated_Source\PSoC4/key_touch_Structure.c **** /**
  57:Generated_Source\PSoC4/key_touch_Structure.c **** * \if SECTION_GLOBAL_VARIABLES
  58:Generated_Source\PSoC4/key_touch_Structure.c **** * \addtogroup group_global_variables
  59:Generated_Source\PSoC4/key_touch_Structure.c **** * \{
  60:Generated_Source\PSoC4/key_touch_Structure.c **** */
  61:Generated_Source\PSoC4/key_touch_Structure.c **** 
  62:Generated_Source\PSoC4/key_touch_Structure.c **** /**
  63:Generated_Source\PSoC4/key_touch_Structure.c **** * Variable that contains key_touch configuration, settings and scanning results.
  64:Generated_Source\PSoC4/key_touch_Structure.c **** * key_touch_dsRam represents RAM Data Structure.
  65:Generated_Source\PSoC4/key_touch_Structure.c **** */
  66:Generated_Source\PSoC4/key_touch_Structure.c **** key_touch_RAM_STRUCT key_touch_dsRam;
  67:Generated_Source\PSoC4/key_touch_Structure.c **** /** \}
  68:Generated_Source\PSoC4/key_touch_Structure.c **** * \endif */
  69:Generated_Source\PSoC4/key_touch_Structure.c **** 
  70:Generated_Source\PSoC4/key_touch_Structure.c **** /*******************************************************************************
  71:Generated_Source\PSoC4/key_touch_Structure.c **** * Declare Widget's De-bounce Counters
  72:Generated_Source\PSoC4/key_touch_Structure.c **** *******************************************************************************/
  73:Generated_Source\PSoC4/key_touch_Structure.c **** static uint8 key_touch_debounceButton0[key_touch_BUTTON0_NUM_SENSORS];
  74:Generated_Source\PSoC4/key_touch_Structure.c **** static uint8 key_touch_debounceButton1[key_touch_BUTTON1_NUM_SENSORS];
  75:Generated_Source\PSoC4/key_touch_Structure.c **** static uint8 key_touch_debounceButton2[key_touch_BUTTON2_NUM_SENSORS];
  76:Generated_Source\PSoC4/key_touch_Structure.c **** static uint8 key_touch_debounceButton3[key_touch_BUTTON3_NUM_SENSORS];
  77:Generated_Source\PSoC4/key_touch_Structure.c **** static uint8 key_touch_debounceButton4[key_touch_BUTTON4_NUM_SENSORS];
  78:Generated_Source\PSoC4/key_touch_Structure.c **** static uint8 key_touch_debounceButton5[key_touch_BUTTON5_NUM_SENSORS];
  79:Generated_Source\PSoC4/key_touch_Structure.c **** static uint8 key_touch_debounceButton6[key_touch_BUTTON6_NUM_SENSORS];
  80:Generated_Source\PSoC4/key_touch_Structure.c **** static uint8 key_touch_debounceButton7[key_touch_BUTTON7_NUM_SENSORS];
  81:Generated_Source\PSoC4/key_touch_Structure.c **** static uint8 key_touch_debounceButton8[key_touch_BUTTON8_NUM_SENSORS];
  82:Generated_Source\PSoC4/key_touch_Structure.c **** static uint8 key_touch_debounceButton9[key_touch_BUTTON9_NUM_SENSORS];
  83:Generated_Source\PSoC4/key_touch_Structure.c **** static uint8 key_touch_debounceButton10[key_touch_BUTTON10_NUM_SENSORS];
  84:Generated_Source\PSoC4/key_touch_Structure.c **** static uint8 key_touch_debounceButton11[key_touch_BUTTON11_NUM_SENSORS];
  85:Generated_Source\PSoC4/key_touch_Structure.c **** 
  86:Generated_Source\PSoC4/key_touch_Structure.c **** 
  87:Generated_Source\PSoC4/key_touch_Structure.c **** /***************************************************************************//**
  88:Generated_Source\PSoC4/key_touch_Structure.c **** * Declare Noise Envelope data structures
  89:Generated_Source\PSoC4/key_touch_Structure.c **** *******************************************************************************/
  90:Generated_Source\PSoC4/key_touch_Structure.c **** static SMARTSENSE_CSD_NOISE_ENVELOPE_STRUCT key_touch_noiseEnvlpButton0[key_touch_BUTTON0_NUM_SENSO
ARM GAS  C:\Users\Administrator\AppData\Local\Temp\ccCs3Dc2.s 			page 3


  91:Generated_Source\PSoC4/key_touch_Structure.c **** static SMARTSENSE_CSD_NOISE_ENVELOPE_STRUCT key_touch_noiseEnvlpButton1[key_touch_BUTTON1_NUM_SENSO
  92:Generated_Source\PSoC4/key_touch_Structure.c **** static SMARTSENSE_CSD_NOISE_ENVELOPE_STRUCT key_touch_noiseEnvlpButton2[key_touch_BUTTON2_NUM_SENSO
  93:Generated_Source\PSoC4/key_touch_Structure.c **** static SMARTSENSE_CSD_NOISE_ENVELOPE_STRUCT key_touch_noiseEnvlpButton3[key_touch_BUTTON3_NUM_SENSO
  94:Generated_Source\PSoC4/key_touch_Structure.c **** static SMARTSENSE_CSD_NOISE_ENVELOPE_STRUCT key_touch_noiseEnvlpButton4[key_touch_BUTTON4_NUM_SENSO
  95:Generated_Source\PSoC4/key_touch_Structure.c **** static SMARTSENSE_CSD_NOISE_ENVELOPE_STRUCT key_touch_noiseEnvlpButton5[key_touch_BUTTON5_NUM_SENSO
  96:Generated_Source\PSoC4/key_touch_Structure.c **** static SMARTSENSE_CSD_NOISE_ENVELOPE_STRUCT key_touch_noiseEnvlpButton6[key_touch_BUTTON6_NUM_SENSO
  97:Generated_Source\PSoC4/key_touch_Structure.c **** static SMARTSENSE_CSD_NOISE_ENVELOPE_STRUCT key_touch_noiseEnvlpButton7[key_touch_BUTTON7_NUM_SENSO
  98:Generated_Source\PSoC4/key_touch_Structure.c **** static SMARTSENSE_CSD_NOISE_ENVELOPE_STRUCT key_touch_noiseEnvlpButton8[key_touch_BUTTON8_NUM_SENSO
  99:Generated_Source\PSoC4/key_touch_Structure.c **** static SMARTSENSE_CSD_NOISE_ENVELOPE_STRUCT key_touch_noiseEnvlpButton9[key_touch_BUTTON9_NUM_SENSO
 100:Generated_Source\PSoC4/key_touch_Structure.c **** static SMARTSENSE_CSD_NOISE_ENVELOPE_STRUCT key_touch_noiseEnvlpButton10[key_touch_BUTTON10_NUM_SEN
 101:Generated_Source\PSoC4/key_touch_Structure.c **** static SMARTSENSE_CSD_NOISE_ENVELOPE_STRUCT key_touch_noiseEnvlpButton11[key_touch_BUTTON11_NUM_SEN
 102:Generated_Source\PSoC4/key_touch_Structure.c **** 
 103:Generated_Source\PSoC4/key_touch_Structure.c **** /*******************************************************************************
 104:Generated_Source\PSoC4/key_touch_Structure.c **** * Define and initialize the Flash Data Structure
 105:Generated_Source\PSoC4/key_touch_Structure.c **** *******************************************************************************/
 106:Generated_Source\PSoC4/key_touch_Structure.c **** 
 107:Generated_Source\PSoC4/key_touch_Structure.c **** /**
 108:Generated_Source\PSoC4/key_touch_Structure.c **** * \if SECTION_API_CONSTANTS
 109:Generated_Source\PSoC4/key_touch_Structure.c **** * \addtogroup group_api_constants
 110:Generated_Source\PSoC4/key_touch_Structure.c **** * \{
 111:Generated_Source\PSoC4/key_touch_Structure.c **** */
 112:Generated_Source\PSoC4/key_touch_Structure.c **** 
 113:Generated_Source\PSoC4/key_touch_Structure.c **** /**
 114:Generated_Source\PSoC4/key_touch_Structure.c **** * Constant for the FLASH Data Structure
 115:Generated_Source\PSoC4/key_touch_Structure.c **** */
 116:Generated_Source\PSoC4/key_touch_Structure.c **** const key_touch_FLASH_STRUCT key_touch_dsFlash =
 117:Generated_Source\PSoC4/key_touch_Structure.c **** {
 118:Generated_Source\PSoC4/key_touch_Structure.c ****     /* Flash Widget Initialization Data */
 119:Generated_Source\PSoC4/key_touch_Structure.c ****     {
 120:Generated_Source\PSoC4/key_touch_Structure.c ****         { /* Button0 */
 121:Generated_Source\PSoC4/key_touch_Structure.c ****             &key_touch_ioList[0u],
 122:Generated_Source\PSoC4/key_touch_Structure.c ****             (void *)&key_touch_dsRam.wdgtList.button0,
 123:Generated_Source\PSoC4/key_touch_Structure.c ****             key_touch_dsRam.snsList.button0,
 124:Generated_Source\PSoC4/key_touch_Structure.c ****             (void *)0u,
 125:Generated_Source\PSoC4/key_touch_Structure.c ****             key_touch_debounceButton0,
 126:Generated_Source\PSoC4/key_touch_Structure.c ****             key_touch_BUTTON0_STATIC_CONFIG,
 127:Generated_Source\PSoC4/key_touch_Structure.c ****             key_touch_BUTTON0_NUM_SENSORS,
 128:Generated_Source\PSoC4/key_touch_Structure.c ****             (uint8)key_touch_WD_BUTTON_E,
 129:Generated_Source\PSoC4/key_touch_Structure.c ****             key_touch_BUTTON0_NUM_SENSORS,
 130:Generated_Source\PSoC4/key_touch_Structure.c ****             key_touch_noiseEnvlpButton0,
 131:Generated_Source\PSoC4/key_touch_Structure.c ****         },
 132:Generated_Source\PSoC4/key_touch_Structure.c ****         { /* Button1 */
 133:Generated_Source\PSoC4/key_touch_Structure.c ****             &key_touch_ioList[1u],
 134:Generated_Source\PSoC4/key_touch_Structure.c ****             (void *)&key_touch_dsRam.wdgtList.button1,
 135:Generated_Source\PSoC4/key_touch_Structure.c ****             key_touch_dsRam.snsList.button1,
 136:Generated_Source\PSoC4/key_touch_Structure.c ****             (void *)0u,
 137:Generated_Source\PSoC4/key_touch_Structure.c ****             key_touch_debounceButton1,
 138:Generated_Source\PSoC4/key_touch_Structure.c ****             key_touch_BUTTON1_STATIC_CONFIG,
 139:Generated_Source\PSoC4/key_touch_Structure.c ****             key_touch_BUTTON1_NUM_SENSORS,
 140:Generated_Source\PSoC4/key_touch_Structure.c ****             (uint8)key_touch_WD_BUTTON_E,
 141:Generated_Source\PSoC4/key_touch_Structure.c ****             key_touch_BUTTON1_NUM_SENSORS,
 142:Generated_Source\PSoC4/key_touch_Structure.c ****             key_touch_noiseEnvlpButton1,
 143:Generated_Source\PSoC4/key_touch_Structure.c ****         },
 144:Generated_Source\PSoC4/key_touch_Structure.c ****         { /* Button2 */
 145:Generated_Source\PSoC4/key_touch_Structure.c ****             &key_touch_ioList[2u],
 146:Generated_Source\PSoC4/key_touch_Structure.c ****             (void *)&key_touch_dsRam.wdgtList.button2,
 147:Generated_Source\PSoC4/key_touch_Structure.c ****             key_touch_dsRam.snsList.button2,
ARM GAS  C:\Users\Administrator\AppData\Local\Temp\ccCs3Dc2.s 			page 4


 148:Generated_Source\PSoC4/key_touch_Structure.c ****             (void *)0u,
 149:Generated_Source\PSoC4/key_touch_Structure.c ****             key_touch_debounceButton2,
 150:Generated_Source\PSoC4/key_touch_Structure.c ****             key_touch_BUTTON2_STATIC_CONFIG,
 151:Generated_Source\PSoC4/key_touch_Structure.c ****             key_touch_BUTTON2_NUM_SENSORS,
 152:Generated_Source\PSoC4/key_touch_Structure.c ****             (uint8)key_touch_WD_BUTTON_E,
 153:Generated_Source\PSoC4/key_touch_Structure.c ****             key_touch_BUTTON2_NUM_SENSORS,
 154:Generated_Source\PSoC4/key_touch_Structure.c ****             key_touch_noiseEnvlpButton2,
 155:Generated_Source\PSoC4/key_touch_Structure.c ****         },
 156:Generated_Source\PSoC4/key_touch_Structure.c ****         { /* Button3 */
 157:Generated_Source\PSoC4/key_touch_Structure.c ****             &key_touch_ioList[3u],
 158:Generated_Source\PSoC4/key_touch_Structure.c ****             (void *)&key_touch_dsRam.wdgtList.button3,
 159:Generated_Source\PSoC4/key_touch_Structure.c ****             key_touch_dsRam.snsList.button3,
 160:Generated_Source\PSoC4/key_touch_Structure.c ****             (void *)0u,
 161:Generated_Source\PSoC4/key_touch_Structure.c ****             key_touch_debounceButton3,
 162:Generated_Source\PSoC4/key_touch_Structure.c ****             key_touch_BUTTON3_STATIC_CONFIG,
 163:Generated_Source\PSoC4/key_touch_Structure.c ****             key_touch_BUTTON3_NUM_SENSORS,
 164:Generated_Source\PSoC4/key_touch_Structure.c ****             (uint8)key_touch_WD_BUTTON_E,
 165:Generated_Source\PSoC4/key_touch_Structure.c ****             key_touch_BUTTON3_NUM_SENSORS,
 166:Generated_Source\PSoC4/key_touch_Structure.c ****             key_touch_noiseEnvlpButton3,
 167:Generated_Source\PSoC4/key_touch_Structure.c ****         },
 168:Generated_Source\PSoC4/key_touch_Structure.c ****         { /* Button4 */
 169:Generated_Source\PSoC4/key_touch_Structure.c ****             &key_touch_ioList[4u],
 170:Generated_Source\PSoC4/key_touch_Structure.c ****             (void *)&key_touch_dsRam.wdgtList.button4,
 171:Generated_Source\PSoC4/key_touch_Structure.c ****             key_touch_dsRam.snsList.button4,
 172:Generated_Source\PSoC4/key_touch_Structure.c ****             (void *)0u,
 173:Generated_Source\PSoC4/key_touch_Structure.c ****             key_touch_debounceButton4,
 174:Generated_Source\PSoC4/key_touch_Structure.c ****             key_touch_BUTTON4_STATIC_CONFIG,
 175:Generated_Source\PSoC4/key_touch_Structure.c ****             key_touch_BUTTON4_NUM_SENSORS,
 176:Generated_Source\PSoC4/key_touch_Structure.c ****             (uint8)key_touch_WD_BUTTON_E,
 177:Generated_Source\PSoC4/key_touch_Structure.c ****             key_touch_BUTTON4_NUM_SENSORS,
 178:Generated_Source\PSoC4/key_touch_Structure.c ****             key_touch_noiseEnvlpButton4,
 179:Generated_Source\PSoC4/key_touch_Structure.c ****         },
 180:Generated_Source\PSoC4/key_touch_Structure.c ****         { /* Button5 */
 181:Generated_Source\PSoC4/key_touch_Structure.c ****             &key_touch_ioList[5u],
 182:Generated_Source\PSoC4/key_touch_Structure.c ****             (void *)&key_touch_dsRam.wdgtList.button5,
 183:Generated_Source\PSoC4/key_touch_Structure.c ****             key_touch_dsRam.snsList.button5,
 184:Generated_Source\PSoC4/key_touch_Structure.c ****             (void *)0u,
 185:Generated_Source\PSoC4/key_touch_Structure.c ****             key_touch_debounceButton5,
 186:Generated_Source\PSoC4/key_touch_Structure.c ****             key_touch_BUTTON5_STATIC_CONFIG,
 187:Generated_Source\PSoC4/key_touch_Structure.c ****             key_touch_BUTTON5_NUM_SENSORS,
 188:Generated_Source\PSoC4/key_touch_Structure.c ****             (uint8)key_touch_WD_BUTTON_E,
 189:Generated_Source\PSoC4/key_touch_Structure.c ****             key_touch_BUTTON5_NUM_SENSORS,
 190:Generated_Source\PSoC4/key_touch_Structure.c ****             key_touch_noiseEnvlpButton5,
 191:Generated_Source\PSoC4/key_touch_Structure.c ****         },
 192:Generated_Source\PSoC4/key_touch_Structure.c ****         { /* Button6 */
 193:Generated_Source\PSoC4/key_touch_Structure.c ****             &key_touch_ioList[6u],
 194:Generated_Source\PSoC4/key_touch_Structure.c ****             (void *)&key_touch_dsRam.wdgtList.button6,
 195:Generated_Source\PSoC4/key_touch_Structure.c ****             key_touch_dsRam.snsList.button6,
 196:Generated_Source\PSoC4/key_touch_Structure.c ****             (void *)0u,
 197:Generated_Source\PSoC4/key_touch_Structure.c ****             key_touch_debounceButton6,
 198:Generated_Source\PSoC4/key_touch_Structure.c ****             key_touch_BUTTON6_STATIC_CONFIG,
 199:Generated_Source\PSoC4/key_touch_Structure.c ****             key_touch_BUTTON6_NUM_SENSORS,
 200:Generated_Source\PSoC4/key_touch_Structure.c ****             (uint8)key_touch_WD_BUTTON_E,
 201:Generated_Source\PSoC4/key_touch_Structure.c ****             key_touch_BUTTON6_NUM_SENSORS,
 202:Generated_Source\PSoC4/key_touch_Structure.c ****             key_touch_noiseEnvlpButton6,
 203:Generated_Source\PSoC4/key_touch_Structure.c ****         },
 204:Generated_Source\PSoC4/key_touch_Structure.c ****         { /* Button7 */
ARM GAS  C:\Users\Administrator\AppData\Local\Temp\ccCs3Dc2.s 			page 5


 205:Generated_Source\PSoC4/key_touch_Structure.c ****             &key_touch_ioList[7u],
 206:Generated_Source\PSoC4/key_touch_Structure.c ****             (void *)&key_touch_dsRam.wdgtList.button7,
 207:Generated_Source\PSoC4/key_touch_Structure.c ****             key_touch_dsRam.snsList.button7,
 208:Generated_Source\PSoC4/key_touch_Structure.c ****             (void *)0u,
 209:Generated_Source\PSoC4/key_touch_Structure.c ****             key_touch_debounceButton7,
 210:Generated_Source\PSoC4/key_touch_Structure.c ****             key_touch_BUTTON7_STATIC_CONFIG,
 211:Generated_Source\PSoC4/key_touch_Structure.c ****             key_touch_BUTTON7_NUM_SENSORS,
 212:Generated_Source\PSoC4/key_touch_Structure.c ****             (uint8)key_touch_WD_BUTTON_E,
 213:Generated_Source\PSoC4/key_touch_Structure.c ****             key_touch_BUTTON7_NUM_SENSORS,
 214:Generated_Source\PSoC4/key_touch_Structure.c ****             key_touch_noiseEnvlpButton7,
 215:Generated_Source\PSoC4/key_touch_Structure.c ****         },
 216:Generated_Source\PSoC4/key_touch_Structure.c ****         { /* Button8 */
 217:Generated_Source\PSoC4/key_touch_Structure.c ****             &key_touch_ioList[8u],
 218:Generated_Source\PSoC4/key_touch_Structure.c ****             (void *)&key_touch_dsRam.wdgtList.button8,
 219:Generated_Source\PSoC4/key_touch_Structure.c ****             key_touch_dsRam.snsList.button8,
 220:Generated_Source\PSoC4/key_touch_Structure.c ****             (void *)0u,
 221:Generated_Source\PSoC4/key_touch_Structure.c ****             key_touch_debounceButton8,
 222:Generated_Source\PSoC4/key_touch_Structure.c ****             key_touch_BUTTON8_STATIC_CONFIG,
 223:Generated_Source\PSoC4/key_touch_Structure.c ****             key_touch_BUTTON8_NUM_SENSORS,
 224:Generated_Source\PSoC4/key_touch_Structure.c ****             (uint8)key_touch_WD_BUTTON_E,
 225:Generated_Source\PSoC4/key_touch_Structure.c ****             key_touch_BUTTON8_NUM_SENSORS,
 226:Generated_Source\PSoC4/key_touch_Structure.c ****             key_touch_noiseEnvlpButton8,
 227:Generated_Source\PSoC4/key_touch_Structure.c ****         },
 228:Generated_Source\PSoC4/key_touch_Structure.c ****         { /* Button9 */
 229:Generated_Source\PSoC4/key_touch_Structure.c ****             &key_touch_ioList[9u],
 230:Generated_Source\PSoC4/key_touch_Structure.c ****             (void *)&key_touch_dsRam.wdgtList.button9,
 231:Generated_Source\PSoC4/key_touch_Structure.c ****             key_touch_dsRam.snsList.button9,
 232:Generated_Source\PSoC4/key_touch_Structure.c ****             (void *)0u,
 233:Generated_Source\PSoC4/key_touch_Structure.c ****             key_touch_debounceButton9,
 234:Generated_Source\PSoC4/key_touch_Structure.c ****             key_touch_BUTTON9_STATIC_CONFIG,
 235:Generated_Source\PSoC4/key_touch_Structure.c ****             key_touch_BUTTON9_NUM_SENSORS,
 236:Generated_Source\PSoC4/key_touch_Structure.c ****             (uint8)key_touch_WD_BUTTON_E,
 237:Generated_Source\PSoC4/key_touch_Structure.c ****             key_touch_BUTTON9_NUM_SENSORS,
 238:Generated_Source\PSoC4/key_touch_Structure.c ****             key_touch_noiseEnvlpButton9,
 239:Generated_Source\PSoC4/key_touch_Structure.c ****         },
 240:Generated_Source\PSoC4/key_touch_Structure.c ****         { /* Button10 */
 241:Generated_Source\PSoC4/key_touch_Structure.c ****             &key_touch_ioList[10u],
 242:Generated_Source\PSoC4/key_touch_Structure.c ****             (void *)&key_touch_dsRam.wdgtList.button10,
 243:Generated_Source\PSoC4/key_touch_Structure.c ****             key_touch_dsRam.snsList.button10,
 244:Generated_Source\PSoC4/key_touch_Structure.c ****             (void *)0u,
 245:Generated_Source\PSoC4/key_touch_Structure.c ****             key_touch_debounceButton10,
 246:Generated_Source\PSoC4/key_touch_Structure.c ****             key_touch_BUTTON10_STATIC_CONFIG,
 247:Generated_Source\PSoC4/key_touch_Structure.c ****             key_touch_BUTTON10_NUM_SENSORS,
 248:Generated_Source\PSoC4/key_touch_Structure.c ****             (uint8)key_touch_WD_BUTTON_E,
 249:Generated_Source\PSoC4/key_touch_Structure.c ****             key_touch_BUTTON10_NUM_SENSORS,
 250:Generated_Source\PSoC4/key_touch_Structure.c ****             key_touch_noiseEnvlpButton10,
 251:Generated_Source\PSoC4/key_touch_Structure.c ****         },
 252:Generated_Source\PSoC4/key_touch_Structure.c ****         { /* Button11 */
 253:Generated_Source\PSoC4/key_touch_Structure.c ****             &key_touch_ioList[11u],
 254:Generated_Source\PSoC4/key_touch_Structure.c ****             (void *)&key_touch_dsRam.wdgtList.button11,
 255:Generated_Source\PSoC4/key_touch_Structure.c ****             key_touch_dsRam.snsList.button11,
 256:Generated_Source\PSoC4/key_touch_Structure.c ****             (void *)0u,
 257:Generated_Source\PSoC4/key_touch_Structure.c ****             key_touch_debounceButton11,
 258:Generated_Source\PSoC4/key_touch_Structure.c ****             key_touch_BUTTON11_STATIC_CONFIG,
 259:Generated_Source\PSoC4/key_touch_Structure.c ****             key_touch_BUTTON11_NUM_SENSORS,
 260:Generated_Source\PSoC4/key_touch_Structure.c ****             (uint8)key_touch_WD_BUTTON_E,
 261:Generated_Source\PSoC4/key_touch_Structure.c ****             key_touch_BUTTON11_NUM_SENSORS,
ARM GAS  C:\Users\Administrator\AppData\Local\Temp\ccCs3Dc2.s 			page 6


 262:Generated_Source\PSoC4/key_touch_Structure.c ****             key_touch_noiseEnvlpButton11,
 263:Generated_Source\PSoC4/key_touch_Structure.c ****         },
 264:Generated_Source\PSoC4/key_touch_Structure.c ****     },
 265:Generated_Source\PSoC4/key_touch_Structure.c **** };
 266:Generated_Source\PSoC4/key_touch_Structure.c **** 
 267:Generated_Source\PSoC4/key_touch_Structure.c **** 
 268:Generated_Source\PSoC4/key_touch_Structure.c **** /**
 269:Generated_Source\PSoC4/key_touch_Structure.c **** * Array of pointers to the electrode specific register
 270:Generated_Source\PSoC4/key_touch_Structure.c **** */
 271:Generated_Source\PSoC4/key_touch_Structure.c **** const key_touch_FLASH_IO_STRUCT key_touch_ioList[key_touch_TOTAL_ELECTRODES] =
 272:Generated_Source\PSoC4/key_touch_Structure.c **** {
 273:Generated_Source\PSoC4/key_touch_Structure.c ****     { /* 0: Button0_Sns0 */
 274:Generated_Source\PSoC4/key_touch_Structure.c ****         (reg32 *)key_touch_Sns__0__HSIOM,
 275:Generated_Source\PSoC4/key_touch_Structure.c ****         (reg32 *)key_touch_Sns__0__PC,
 276:Generated_Source\PSoC4/key_touch_Structure.c ****         (reg32 *)key_touch_Sns__0__DR,
 277:Generated_Source\PSoC4/key_touch_Structure.c ****         (reg32 *)key_touch_Sns__0__PS,
 278:Generated_Source\PSoC4/key_touch_Structure.c ****         key_touch_Sns__0__HSIOM_MASK,
 279:Generated_Source\PSoC4/key_touch_Structure.c ****         key_touch_Sns__0__MASK,
 280:Generated_Source\PSoC4/key_touch_Structure.c ****         key_touch_Sns__0__HSIOM_SHIFT,
 281:Generated_Source\PSoC4/key_touch_Structure.c ****         (uint8)key_touch_Sns__0__SHIFT,
 282:Generated_Source\PSoC4/key_touch_Structure.c ****         (uint8)key_touch_Sns__0__SHIFT * 3u,
 283:Generated_Source\PSoC4/key_touch_Structure.c ****     },
 284:Generated_Source\PSoC4/key_touch_Structure.c ****     { /* 1: Button1_Sns0 */
 285:Generated_Source\PSoC4/key_touch_Structure.c ****         (reg32 *)key_touch_Sns__1__HSIOM,
 286:Generated_Source\PSoC4/key_touch_Structure.c ****         (reg32 *)key_touch_Sns__1__PC,
 287:Generated_Source\PSoC4/key_touch_Structure.c ****         (reg32 *)key_touch_Sns__1__DR,
 288:Generated_Source\PSoC4/key_touch_Structure.c ****         (reg32 *)key_touch_Sns__1__PS,
 289:Generated_Source\PSoC4/key_touch_Structure.c ****         key_touch_Sns__1__HSIOM_MASK,
 290:Generated_Source\PSoC4/key_touch_Structure.c ****         key_touch_Sns__1__MASK,
 291:Generated_Source\PSoC4/key_touch_Structure.c ****         key_touch_Sns__1__HSIOM_SHIFT,
 292:Generated_Source\PSoC4/key_touch_Structure.c ****         (uint8)key_touch_Sns__1__SHIFT,
 293:Generated_Source\PSoC4/key_touch_Structure.c ****         (uint8)key_touch_Sns__1__SHIFT * 3u,
 294:Generated_Source\PSoC4/key_touch_Structure.c ****     },
 295:Generated_Source\PSoC4/key_touch_Structure.c ****     { /* 2: Button2_Sns0 */
 296:Generated_Source\PSoC4/key_touch_Structure.c ****         (reg32 *)key_touch_Sns__2__HSIOM,
 297:Generated_Source\PSoC4/key_touch_Structure.c ****         (reg32 *)key_touch_Sns__2__PC,
 298:Generated_Source\PSoC4/key_touch_Structure.c ****         (reg32 *)key_touch_Sns__2__DR,
 299:Generated_Source\PSoC4/key_touch_Structure.c ****         (reg32 *)key_touch_Sns__2__PS,
 300:Generated_Source\PSoC4/key_touch_Structure.c ****         key_touch_Sns__2__HSIOM_MASK,
 301:Generated_Source\PSoC4/key_touch_Structure.c ****         key_touch_Sns__2__MASK,
 302:Generated_Source\PSoC4/key_touch_Structure.c ****         key_touch_Sns__2__HSIOM_SHIFT,
 303:Generated_Source\PSoC4/key_touch_Structure.c ****         (uint8)key_touch_Sns__2__SHIFT,
 304:Generated_Source\PSoC4/key_touch_Structure.c ****         (uint8)key_touch_Sns__2__SHIFT * 3u,
 305:Generated_Source\PSoC4/key_touch_Structure.c ****     },
 306:Generated_Source\PSoC4/key_touch_Structure.c ****     { /* 3: Button3_Sns0 */
 307:Generated_Source\PSoC4/key_touch_Structure.c ****         (reg32 *)key_touch_Sns__3__HSIOM,
 308:Generated_Source\PSoC4/key_touch_Structure.c ****         (reg32 *)key_touch_Sns__3__PC,
 309:Generated_Source\PSoC4/key_touch_Structure.c ****         (reg32 *)key_touch_Sns__3__DR,
 310:Generated_Source\PSoC4/key_touch_Structure.c ****         (reg32 *)key_touch_Sns__3__PS,
 311:Generated_Source\PSoC4/key_touch_Structure.c ****         key_touch_Sns__3__HSIOM_MASK,
 312:Generated_Source\PSoC4/key_touch_Structure.c ****         key_touch_Sns__3__MASK,
 313:Generated_Source\PSoC4/key_touch_Structure.c ****         key_touch_Sns__3__HSIOM_SHIFT,
 314:Generated_Source\PSoC4/key_touch_Structure.c ****         (uint8)key_touch_Sns__3__SHIFT,
 315:Generated_Source\PSoC4/key_touch_Structure.c ****         (uint8)key_touch_Sns__3__SHIFT * 3u,
 316:Generated_Source\PSoC4/key_touch_Structure.c ****     },
 317:Generated_Source\PSoC4/key_touch_Structure.c ****     { /* 4: Button4_Sns0 */
 318:Generated_Source\PSoC4/key_touch_Structure.c ****         (reg32 *)key_touch_Sns__4__HSIOM,
ARM GAS  C:\Users\Administrator\AppData\Local\Temp\ccCs3Dc2.s 			page 7


 319:Generated_Source\PSoC4/key_touch_Structure.c ****         (reg32 *)key_touch_Sns__4__PC,
 320:Generated_Source\PSoC4/key_touch_Structure.c ****         (reg32 *)key_touch_Sns__4__DR,
 321:Generated_Source\PSoC4/key_touch_Structure.c ****         (reg32 *)key_touch_Sns__4__PS,
 322:Generated_Source\PSoC4/key_touch_Structure.c ****         key_touch_Sns__4__HSIOM_MASK,
 323:Generated_Source\PSoC4/key_touch_Structure.c ****         key_touch_Sns__4__MASK,
 324:Generated_Source\PSoC4/key_touch_Structure.c ****         key_touch_Sns__4__HSIOM_SHIFT,
 325:Generated_Source\PSoC4/key_touch_Structure.c ****         (uint8)key_touch_Sns__4__SHIFT,
 326:Generated_Source\PSoC4/key_touch_Structure.c ****         (uint8)key_touch_Sns__4__SHIFT * 3u,
 327:Generated_Source\PSoC4/key_touch_Structure.c ****     },
 328:Generated_Source\PSoC4/key_touch_Structure.c ****     { /* 5: Button5_Sns0 */
 329:Generated_Source\PSoC4/key_touch_Structure.c ****         (reg32 *)key_touch_Sns__5__HSIOM,
 330:Generated_Source\PSoC4/key_touch_Structure.c ****         (reg32 *)key_touch_Sns__5__PC,
 331:Generated_Source\PSoC4/key_touch_Structure.c ****         (reg32 *)key_touch_Sns__5__DR,
 332:Generated_Source\PSoC4/key_touch_Structure.c ****         (reg32 *)key_touch_Sns__5__PS,
 333:Generated_Source\PSoC4/key_touch_Structure.c ****         key_touch_Sns__5__HSIOM_MASK,
 334:Generated_Source\PSoC4/key_touch_Structure.c ****         key_touch_Sns__5__MASK,
 335:Generated_Source\PSoC4/key_touch_Structure.c ****         key_touch_Sns__5__HSIOM_SHIFT,
 336:Generated_Source\PSoC4/key_touch_Structure.c ****         (uint8)key_touch_Sns__5__SHIFT,
 337:Generated_Source\PSoC4/key_touch_Structure.c ****         (uint8)key_touch_Sns__5__SHIFT * 3u,
 338:Generated_Source\PSoC4/key_touch_Structure.c ****     },
 339:Generated_Source\PSoC4/key_touch_Structure.c ****     { /* 6: Button6_Sns0 */
 340:Generated_Source\PSoC4/key_touch_Structure.c ****         (reg32 *)key_touch_Sns__6__HSIOM,
 341:Generated_Source\PSoC4/key_touch_Structure.c ****         (reg32 *)key_touch_Sns__6__PC,
 342:Generated_Source\PSoC4/key_touch_Structure.c ****         (reg32 *)key_touch_Sns__6__DR,
 343:Generated_Source\PSoC4/key_touch_Structure.c ****         (reg32 *)key_touch_Sns__6__PS,
 344:Generated_Source\PSoC4/key_touch_Structure.c ****         key_touch_Sns__6__HSIOM_MASK,
 345:Generated_Source\PSoC4/key_touch_Structure.c ****         key_touch_Sns__6__MASK,
 346:Generated_Source\PSoC4/key_touch_Structure.c ****         key_touch_Sns__6__HSIOM_SHIFT,
 347:Generated_Source\PSoC4/key_touch_Structure.c ****         (uint8)key_touch_Sns__6__SHIFT,
 348:Generated_Source\PSoC4/key_touch_Structure.c ****         (uint8)key_touch_Sns__6__SHIFT * 3u,
 349:Generated_Source\PSoC4/key_touch_Structure.c ****     },
 350:Generated_Source\PSoC4/key_touch_Structure.c ****     { /* 7: Button7_Sns0 */
 351:Generated_Source\PSoC4/key_touch_Structure.c ****         (reg32 *)key_touch_Sns__7__HSIOM,
 352:Generated_Source\PSoC4/key_touch_Structure.c ****         (reg32 *)key_touch_Sns__7__PC,
 353:Generated_Source\PSoC4/key_touch_Structure.c ****         (reg32 *)key_touch_Sns__7__DR,
 354:Generated_Source\PSoC4/key_touch_Structure.c ****         (reg32 *)key_touch_Sns__7__PS,
 355:Generated_Source\PSoC4/key_touch_Structure.c ****         key_touch_Sns__7__HSIOM_MASK,
 356:Generated_Source\PSoC4/key_touch_Structure.c ****         key_touch_Sns__7__MASK,
 357:Generated_Source\PSoC4/key_touch_Structure.c ****         key_touch_Sns__7__HSIOM_SHIFT,
 358:Generated_Source\PSoC4/key_touch_Structure.c ****         (uint8)key_touch_Sns__7__SHIFT,
 359:Generated_Source\PSoC4/key_touch_Structure.c ****         (uint8)key_touch_Sns__7__SHIFT * 3u,
 360:Generated_Source\PSoC4/key_touch_Structure.c ****     },
 361:Generated_Source\PSoC4/key_touch_Structure.c ****     { /* 8: Button8_Sns0 */
 362:Generated_Source\PSoC4/key_touch_Structure.c ****         (reg32 *)key_touch_Sns__8__HSIOM,
 363:Generated_Source\PSoC4/key_touch_Structure.c ****         (reg32 *)key_touch_Sns__8__PC,
 364:Generated_Source\PSoC4/key_touch_Structure.c ****         (reg32 *)key_touch_Sns__8__DR,
 365:Generated_Source\PSoC4/key_touch_Structure.c ****         (reg32 *)key_touch_Sns__8__PS,
 366:Generated_Source\PSoC4/key_touch_Structure.c ****         key_touch_Sns__8__HSIOM_MASK,
 367:Generated_Source\PSoC4/key_touch_Structure.c ****         key_touch_Sns__8__MASK,
 368:Generated_Source\PSoC4/key_touch_Structure.c ****         key_touch_Sns__8__HSIOM_SHIFT,
 369:Generated_Source\PSoC4/key_touch_Structure.c ****         (uint8)key_touch_Sns__8__SHIFT,
 370:Generated_Source\PSoC4/key_touch_Structure.c ****         (uint8)key_touch_Sns__8__SHIFT * 3u,
 371:Generated_Source\PSoC4/key_touch_Structure.c ****     },
 372:Generated_Source\PSoC4/key_touch_Structure.c ****     { /* 9: Button9_Sns0 */
 373:Generated_Source\PSoC4/key_touch_Structure.c ****         (reg32 *)key_touch_Sns__9__HSIOM,
 374:Generated_Source\PSoC4/key_touch_Structure.c ****         (reg32 *)key_touch_Sns__9__PC,
 375:Generated_Source\PSoC4/key_touch_Structure.c ****         (reg32 *)key_touch_Sns__9__DR,
ARM GAS  C:\Users\Administrator\AppData\Local\Temp\ccCs3Dc2.s 			page 8


 376:Generated_Source\PSoC4/key_touch_Structure.c ****         (reg32 *)key_touch_Sns__9__PS,
 377:Generated_Source\PSoC4/key_touch_Structure.c ****         key_touch_Sns__9__HSIOM_MASK,
 378:Generated_Source\PSoC4/key_touch_Structure.c ****         key_touch_Sns__9__MASK,
 379:Generated_Source\PSoC4/key_touch_Structure.c ****         key_touch_Sns__9__HSIOM_SHIFT,
 380:Generated_Source\PSoC4/key_touch_Structure.c ****         (uint8)key_touch_Sns__9__SHIFT,
 381:Generated_Source\PSoC4/key_touch_Structure.c ****         (uint8)key_touch_Sns__9__SHIFT * 3u,
 382:Generated_Source\PSoC4/key_touch_Structure.c ****     },
 383:Generated_Source\PSoC4/key_touch_Structure.c ****     { /* 10: Button10_Sns0 */
 384:Generated_Source\PSoC4/key_touch_Structure.c ****         (reg32 *)key_touch_Sns__10__HSIOM,
 385:Generated_Source\PSoC4/key_touch_Structure.c ****         (reg32 *)key_touch_Sns__10__PC,
 386:Generated_Source\PSoC4/key_touch_Structure.c ****         (reg32 *)key_touch_Sns__10__DR,
 387:Generated_Source\PSoC4/key_touch_Structure.c ****         (reg32 *)key_touch_Sns__10__PS,
 388:Generated_Source\PSoC4/key_touch_Structure.c ****         key_touch_Sns__10__HSIOM_MASK,
 389:Generated_Source\PSoC4/key_touch_Structure.c ****         key_touch_Sns__10__MASK,
 390:Generated_Source\PSoC4/key_touch_Structure.c ****         key_touch_Sns__10__HSIOM_SHIFT,
 391:Generated_Source\PSoC4/key_touch_Structure.c ****         (uint8)key_touch_Sns__10__SHIFT,
 392:Generated_Source\PSoC4/key_touch_Structure.c ****         (uint8)key_touch_Sns__10__SHIFT * 3u,
 393:Generated_Source\PSoC4/key_touch_Structure.c ****     },
 394:Generated_Source\PSoC4/key_touch_Structure.c ****     { /* 11: Button11_Sns0 */
 395:Generated_Source\PSoC4/key_touch_Structure.c ****         (reg32 *)key_touch_Sns__11__HSIOM,
 396:Generated_Source\PSoC4/key_touch_Structure.c ****         (reg32 *)key_touch_Sns__11__PC,
 397:Generated_Source\PSoC4/key_touch_Structure.c ****         (reg32 *)key_touch_Sns__11__DR,
 398:Generated_Source\PSoC4/key_touch_Structure.c ****         (reg32 *)key_touch_Sns__11__PS,
 399:Generated_Source\PSoC4/key_touch_Structure.c ****         key_touch_Sns__11__HSIOM_MASK,
 400:Generated_Source\PSoC4/key_touch_Structure.c ****         key_touch_Sns__11__MASK,
 401:Generated_Source\PSoC4/key_touch_Structure.c ****         key_touch_Sns__11__HSIOM_SHIFT,
 402:Generated_Source\PSoC4/key_touch_Structure.c ****         (uint8)key_touch_Sns__11__SHIFT,
 403:Generated_Source\PSoC4/key_touch_Structure.c ****         (uint8)key_touch_Sns__11__SHIFT * 3u,
 404:Generated_Source\PSoC4/key_touch_Structure.c ****     },
 405:Generated_Source\PSoC4/key_touch_Structure.c **** };
 406:Generated_Source\PSoC4/key_touch_Structure.c **** 
 407:Generated_Source\PSoC4/key_touch_Structure.c **** 
 408:Generated_Source\PSoC4/key_touch_Structure.c **** 
 409:Generated_Source\PSoC4/key_touch_Structure.c **** /** \}
 410:Generated_Source\PSoC4/key_touch_Structure.c **** * \endif */
 411:Generated_Source\PSoC4/key_touch_Structure.c **** 
 412:Generated_Source\PSoC4/key_touch_Structure.c **** /* Initialization data for RAM widget list */
 413:Generated_Source\PSoC4/key_touch_Structure.c **** static const key_touch_RAM_WD_LIST_STRUCT key_touch_ramWidgetInit =
 414:Generated_Source\PSoC4/key_touch_Structure.c **** {
 415:Generated_Source\PSoC4/key_touch_Structure.c ****     { /* Button0 */
 416:Generated_Source\PSoC4/key_touch_Structure.c ****         key_touch_BUTTON0_RESOLUTION,
 417:Generated_Source\PSoC4/key_touch_Structure.c ****         key_touch_BUTTON0_FINGER_TH,
 418:Generated_Source\PSoC4/key_touch_Structure.c ****         key_touch_BUTTON0_NOISE_TH,
 419:Generated_Source\PSoC4/key_touch_Structure.c ****         key_touch_BUTTON0_NNOISE_TH,
 420:Generated_Source\PSoC4/key_touch_Structure.c ****         key_touch_BUTTON0_HYSTERESIS,
 421:Generated_Source\PSoC4/key_touch_Structure.c ****         key_touch_BUTTON0_ON_DEBOUNCE,
 422:Generated_Source\PSoC4/key_touch_Structure.c ****         key_touch_BUTTON0_LOW_BSLN_RST,
 423:Generated_Source\PSoC4/key_touch_Structure.c ****         key_touch_BUTTON0_BSLN_COEFF,
 424:Generated_Source\PSoC4/key_touch_Structure.c ****         {
 425:Generated_Source\PSoC4/key_touch_Structure.c ****             key_touch_BUTTON0_IDAC_MOD0,
 426:Generated_Source\PSoC4/key_touch_Structure.c ****         },
 427:Generated_Source\PSoC4/key_touch_Structure.c ****         key_touch_BUTTON0_SNS_CLK,
 428:Generated_Source\PSoC4/key_touch_Structure.c ****         key_touch_BUTTON0_SNS_CLK_SOURCE,
 429:Generated_Source\PSoC4/key_touch_Structure.c ****         key_touch_BUTTON0_FINGER_CAP,
 430:Generated_Source\PSoC4/key_touch_Structure.c ****         key_touch_BUTTON0_SIGPFC,
 431:Generated_Source\PSoC4/key_touch_Structure.c ****     },
 432:Generated_Source\PSoC4/key_touch_Structure.c ****     { /* Button1 */
ARM GAS  C:\Users\Administrator\AppData\Local\Temp\ccCs3Dc2.s 			page 9


 433:Generated_Source\PSoC4/key_touch_Structure.c ****         key_touch_BUTTON1_RESOLUTION,
 434:Generated_Source\PSoC4/key_touch_Structure.c ****         key_touch_BUTTON1_FINGER_TH,
 435:Generated_Source\PSoC4/key_touch_Structure.c ****         key_touch_BUTTON1_NOISE_TH,
 436:Generated_Source\PSoC4/key_touch_Structure.c ****         key_touch_BUTTON1_NNOISE_TH,
 437:Generated_Source\PSoC4/key_touch_Structure.c ****         key_touch_BUTTON1_HYSTERESIS,
 438:Generated_Source\PSoC4/key_touch_Structure.c ****         key_touch_BUTTON1_ON_DEBOUNCE,
 439:Generated_Source\PSoC4/key_touch_Structure.c ****         key_touch_BUTTON1_LOW_BSLN_RST,
 440:Generated_Source\PSoC4/key_touch_Structure.c ****         key_touch_BUTTON1_BSLN_COEFF,
 441:Generated_Source\PSoC4/key_touch_Structure.c ****         {
 442:Generated_Source\PSoC4/key_touch_Structure.c ****             key_touch_BUTTON1_IDAC_MOD0,
 443:Generated_Source\PSoC4/key_touch_Structure.c ****         },
 444:Generated_Source\PSoC4/key_touch_Structure.c ****         key_touch_BUTTON1_SNS_CLK,
 445:Generated_Source\PSoC4/key_touch_Structure.c ****         key_touch_BUTTON1_SNS_CLK_SOURCE,
 446:Generated_Source\PSoC4/key_touch_Structure.c ****         key_touch_BUTTON1_FINGER_CAP,
 447:Generated_Source\PSoC4/key_touch_Structure.c ****         key_touch_BUTTON1_SIGPFC,
 448:Generated_Source\PSoC4/key_touch_Structure.c ****     },
 449:Generated_Source\PSoC4/key_touch_Structure.c ****     { /* Button2 */
 450:Generated_Source\PSoC4/key_touch_Structure.c ****         key_touch_BUTTON2_RESOLUTION,
 451:Generated_Source\PSoC4/key_touch_Structure.c ****         key_touch_BUTTON2_FINGER_TH,
 452:Generated_Source\PSoC4/key_touch_Structure.c ****         key_touch_BUTTON2_NOISE_TH,
 453:Generated_Source\PSoC4/key_touch_Structure.c ****         key_touch_BUTTON2_NNOISE_TH,
 454:Generated_Source\PSoC4/key_touch_Structure.c ****         key_touch_BUTTON2_HYSTERESIS,
 455:Generated_Source\PSoC4/key_touch_Structure.c ****         key_touch_BUTTON2_ON_DEBOUNCE,
 456:Generated_Source\PSoC4/key_touch_Structure.c ****         key_touch_BUTTON2_LOW_BSLN_RST,
 457:Generated_Source\PSoC4/key_touch_Structure.c ****         key_touch_BUTTON2_BSLN_COEFF,
 458:Generated_Source\PSoC4/key_touch_Structure.c ****         {
 459:Generated_Source\PSoC4/key_touch_Structure.c ****             key_touch_BUTTON2_IDAC_MOD0,
 460:Generated_Source\PSoC4/key_touch_Structure.c ****         },
 461:Generated_Source\PSoC4/key_touch_Structure.c ****         key_touch_BUTTON2_SNS_CLK,
 462:Generated_Source\PSoC4/key_touch_Structure.c ****         key_touch_BUTTON2_SNS_CLK_SOURCE,
 463:Generated_Source\PSoC4/key_touch_Structure.c ****         key_touch_BUTTON2_FINGER_CAP,
 464:Generated_Source\PSoC4/key_touch_Structure.c ****         key_touch_BUTTON2_SIGPFC,
 465:Generated_Source\PSoC4/key_touch_Structure.c ****     },
 466:Generated_Source\PSoC4/key_touch_Structure.c ****     { /* Button3 */
 467:Generated_Source\PSoC4/key_touch_Structure.c ****         key_touch_BUTTON3_RESOLUTION,
 468:Generated_Source\PSoC4/key_touch_Structure.c ****         key_touch_BUTTON3_FINGER_TH,
 469:Generated_Source\PSoC4/key_touch_Structure.c ****         key_touch_BUTTON3_NOISE_TH,
 470:Generated_Source\PSoC4/key_touch_Structure.c ****         key_touch_BUTTON3_NNOISE_TH,
 471:Generated_Source\PSoC4/key_touch_Structure.c ****         key_touch_BUTTON3_HYSTERESIS,
 472:Generated_Source\PSoC4/key_touch_Structure.c ****         key_touch_BUTTON3_ON_DEBOUNCE,
 473:Generated_Source\PSoC4/key_touch_Structure.c ****         key_touch_BUTTON3_LOW_BSLN_RST,
 474:Generated_Source\PSoC4/key_touch_Structure.c ****         key_touch_BUTTON3_BSLN_COEFF,
 475:Generated_Source\PSoC4/key_touch_Structure.c ****         {
 476:Generated_Source\PSoC4/key_touch_Structure.c ****             key_touch_BUTTON3_IDAC_MOD0,
 477:Generated_Source\PSoC4/key_touch_Structure.c ****         },
 478:Generated_Source\PSoC4/key_touch_Structure.c ****         key_touch_BUTTON3_SNS_CLK,
 479:Generated_Source\PSoC4/key_touch_Structure.c ****         key_touch_BUTTON3_SNS_CLK_SOURCE,
 480:Generated_Source\PSoC4/key_touch_Structure.c ****         key_touch_BUTTON3_FINGER_CAP,
 481:Generated_Source\PSoC4/key_touch_Structure.c ****         key_touch_BUTTON3_SIGPFC,
 482:Generated_Source\PSoC4/key_touch_Structure.c ****     },
 483:Generated_Source\PSoC4/key_touch_Structure.c ****     { /* Button4 */
 484:Generated_Source\PSoC4/key_touch_Structure.c ****         key_touch_BUTTON4_RESOLUTION,
 485:Generated_Source\PSoC4/key_touch_Structure.c ****         key_touch_BUTTON4_FINGER_TH,
 486:Generated_Source\PSoC4/key_touch_Structure.c ****         key_touch_BUTTON4_NOISE_TH,
 487:Generated_Source\PSoC4/key_touch_Structure.c ****         key_touch_BUTTON4_NNOISE_TH,
 488:Generated_Source\PSoC4/key_touch_Structure.c ****         key_touch_BUTTON4_HYSTERESIS,
 489:Generated_Source\PSoC4/key_touch_Structure.c ****         key_touch_BUTTON4_ON_DEBOUNCE,
ARM GAS  C:\Users\Administrator\AppData\Local\Temp\ccCs3Dc2.s 			page 10


 490:Generated_Source\PSoC4/key_touch_Structure.c ****         key_touch_BUTTON4_LOW_BSLN_RST,
 491:Generated_Source\PSoC4/key_touch_Structure.c ****         key_touch_BUTTON4_BSLN_COEFF,
 492:Generated_Source\PSoC4/key_touch_Structure.c ****         {
 493:Generated_Source\PSoC4/key_touch_Structure.c ****             key_touch_BUTTON4_IDAC_MOD0,
 494:Generated_Source\PSoC4/key_touch_Structure.c ****         },
 495:Generated_Source\PSoC4/key_touch_Structure.c ****         key_touch_BUTTON4_SNS_CLK,
 496:Generated_Source\PSoC4/key_touch_Structure.c ****         key_touch_BUTTON4_SNS_CLK_SOURCE,
 497:Generated_Source\PSoC4/key_touch_Structure.c ****         key_touch_BUTTON4_FINGER_CAP,
 498:Generated_Source\PSoC4/key_touch_Structure.c ****         key_touch_BUTTON4_SIGPFC,
 499:Generated_Source\PSoC4/key_touch_Structure.c ****     },
 500:Generated_Source\PSoC4/key_touch_Structure.c ****     { /* Button5 */
 501:Generated_Source\PSoC4/key_touch_Structure.c ****         key_touch_BUTTON5_RESOLUTION,
 502:Generated_Source\PSoC4/key_touch_Structure.c ****         key_touch_BUTTON5_FINGER_TH,
 503:Generated_Source\PSoC4/key_touch_Structure.c ****         key_touch_BUTTON5_NOISE_TH,
 504:Generated_Source\PSoC4/key_touch_Structure.c ****         key_touch_BUTTON5_NNOISE_TH,
 505:Generated_Source\PSoC4/key_touch_Structure.c ****         key_touch_BUTTON5_HYSTERESIS,
 506:Generated_Source\PSoC4/key_touch_Structure.c ****         key_touch_BUTTON5_ON_DEBOUNCE,
 507:Generated_Source\PSoC4/key_touch_Structure.c ****         key_touch_BUTTON5_LOW_BSLN_RST,
 508:Generated_Source\PSoC4/key_touch_Structure.c ****         key_touch_BUTTON5_BSLN_COEFF,
 509:Generated_Source\PSoC4/key_touch_Structure.c ****         {
 510:Generated_Source\PSoC4/key_touch_Structure.c ****             key_touch_BUTTON5_IDAC_MOD0,
 511:Generated_Source\PSoC4/key_touch_Structure.c ****         },
 512:Generated_Source\PSoC4/key_touch_Structure.c ****         key_touch_BUTTON5_SNS_CLK,
 513:Generated_Source\PSoC4/key_touch_Structure.c ****         key_touch_BUTTON5_SNS_CLK_SOURCE,
 514:Generated_Source\PSoC4/key_touch_Structure.c ****         key_touch_BUTTON5_FINGER_CAP,
 515:Generated_Source\PSoC4/key_touch_Structure.c ****         key_touch_BUTTON5_SIGPFC,
 516:Generated_Source\PSoC4/key_touch_Structure.c ****     },
 517:Generated_Source\PSoC4/key_touch_Structure.c ****     { /* Button6 */
 518:Generated_Source\PSoC4/key_touch_Structure.c ****         key_touch_BUTTON6_RESOLUTION,
 519:Generated_Source\PSoC4/key_touch_Structure.c ****         key_touch_BUTTON6_FINGER_TH,
 520:Generated_Source\PSoC4/key_touch_Structure.c ****         key_touch_BUTTON6_NOISE_TH,
 521:Generated_Source\PSoC4/key_touch_Structure.c ****         key_touch_BUTTON6_NNOISE_TH,
 522:Generated_Source\PSoC4/key_touch_Structure.c ****         key_touch_BUTTON6_HYSTERESIS,
 523:Generated_Source\PSoC4/key_touch_Structure.c ****         key_touch_BUTTON6_ON_DEBOUNCE,
 524:Generated_Source\PSoC4/key_touch_Structure.c ****         key_touch_BUTTON6_LOW_BSLN_RST,
 525:Generated_Source\PSoC4/key_touch_Structure.c ****         key_touch_BUTTON6_BSLN_COEFF,
 526:Generated_Source\PSoC4/key_touch_Structure.c ****         {
 527:Generated_Source\PSoC4/key_touch_Structure.c ****             key_touch_BUTTON6_IDAC_MOD0,
 528:Generated_Source\PSoC4/key_touch_Structure.c ****         },
 529:Generated_Source\PSoC4/key_touch_Structure.c ****         key_touch_BUTTON6_SNS_CLK,
 530:Generated_Source\PSoC4/key_touch_Structure.c ****         key_touch_BUTTON6_SNS_CLK_SOURCE,
 531:Generated_Source\PSoC4/key_touch_Structure.c ****         key_touch_BUTTON6_FINGER_CAP,
 532:Generated_Source\PSoC4/key_touch_Structure.c ****         key_touch_BUTTON6_SIGPFC,
 533:Generated_Source\PSoC4/key_touch_Structure.c ****     },
 534:Generated_Source\PSoC4/key_touch_Structure.c ****     { /* Button7 */
 535:Generated_Source\PSoC4/key_touch_Structure.c ****         key_touch_BUTTON7_RESOLUTION,
 536:Generated_Source\PSoC4/key_touch_Structure.c ****         key_touch_BUTTON7_FINGER_TH,
 537:Generated_Source\PSoC4/key_touch_Structure.c ****         key_touch_BUTTON7_NOISE_TH,
 538:Generated_Source\PSoC4/key_touch_Structure.c ****         key_touch_BUTTON7_NNOISE_TH,
 539:Generated_Source\PSoC4/key_touch_Structure.c ****         key_touch_BUTTON7_HYSTERESIS,
 540:Generated_Source\PSoC4/key_touch_Structure.c ****         key_touch_BUTTON7_ON_DEBOUNCE,
 541:Generated_Source\PSoC4/key_touch_Structure.c ****         key_touch_BUTTON7_LOW_BSLN_RST,
 542:Generated_Source\PSoC4/key_touch_Structure.c ****         key_touch_BUTTON7_BSLN_COEFF,
 543:Generated_Source\PSoC4/key_touch_Structure.c ****         {
 544:Generated_Source\PSoC4/key_touch_Structure.c ****             key_touch_BUTTON7_IDAC_MOD0,
 545:Generated_Source\PSoC4/key_touch_Structure.c ****         },
 546:Generated_Source\PSoC4/key_touch_Structure.c ****         key_touch_BUTTON7_SNS_CLK,
ARM GAS  C:\Users\Administrator\AppData\Local\Temp\ccCs3Dc2.s 			page 11


 547:Generated_Source\PSoC4/key_touch_Structure.c ****         key_touch_BUTTON7_SNS_CLK_SOURCE,
 548:Generated_Source\PSoC4/key_touch_Structure.c ****         key_touch_BUTTON7_FINGER_CAP,
 549:Generated_Source\PSoC4/key_touch_Structure.c ****         key_touch_BUTTON7_SIGPFC,
 550:Generated_Source\PSoC4/key_touch_Structure.c ****     },
 551:Generated_Source\PSoC4/key_touch_Structure.c ****     { /* Button8 */
 552:Generated_Source\PSoC4/key_touch_Structure.c ****         key_touch_BUTTON8_RESOLUTION,
 553:Generated_Source\PSoC4/key_touch_Structure.c ****         key_touch_BUTTON8_FINGER_TH,
 554:Generated_Source\PSoC4/key_touch_Structure.c ****         key_touch_BUTTON8_NOISE_TH,
 555:Generated_Source\PSoC4/key_touch_Structure.c ****         key_touch_BUTTON8_NNOISE_TH,
 556:Generated_Source\PSoC4/key_touch_Structure.c ****         key_touch_BUTTON8_HYSTERESIS,
 557:Generated_Source\PSoC4/key_touch_Structure.c ****         key_touch_BUTTON8_ON_DEBOUNCE,
 558:Generated_Source\PSoC4/key_touch_Structure.c ****         key_touch_BUTTON8_LOW_BSLN_RST,
 559:Generated_Source\PSoC4/key_touch_Structure.c ****         key_touch_BUTTON8_BSLN_COEFF,
 560:Generated_Source\PSoC4/key_touch_Structure.c ****         {
 561:Generated_Source\PSoC4/key_touch_Structure.c ****             key_touch_BUTTON8_IDAC_MOD0,
 562:Generated_Source\PSoC4/key_touch_Structure.c ****         },
 563:Generated_Source\PSoC4/key_touch_Structure.c ****         key_touch_BUTTON8_SNS_CLK,
 564:Generated_Source\PSoC4/key_touch_Structure.c ****         key_touch_BUTTON8_SNS_CLK_SOURCE,
 565:Generated_Source\PSoC4/key_touch_Structure.c ****         key_touch_BUTTON8_FINGER_CAP,
 566:Generated_Source\PSoC4/key_touch_Structure.c ****         key_touch_BUTTON8_SIGPFC,
 567:Generated_Source\PSoC4/key_touch_Structure.c ****     },
 568:Generated_Source\PSoC4/key_touch_Structure.c ****     { /* Button9 */
 569:Generated_Source\PSoC4/key_touch_Structure.c ****         key_touch_BUTTON9_RESOLUTION,
 570:Generated_Source\PSoC4/key_touch_Structure.c ****         key_touch_BUTTON9_FINGER_TH,
 571:Generated_Source\PSoC4/key_touch_Structure.c ****         key_touch_BUTTON9_NOISE_TH,
 572:Generated_Source\PSoC4/key_touch_Structure.c ****         key_touch_BUTTON9_NNOISE_TH,
 573:Generated_Source\PSoC4/key_touch_Structure.c ****         key_touch_BUTTON9_HYSTERESIS,
 574:Generated_Source\PSoC4/key_touch_Structure.c ****         key_touch_BUTTON9_ON_DEBOUNCE,
 575:Generated_Source\PSoC4/key_touch_Structure.c ****         key_touch_BUTTON9_LOW_BSLN_RST,
 576:Generated_Source\PSoC4/key_touch_Structure.c ****         key_touch_BUTTON9_BSLN_COEFF,
 577:Generated_Source\PSoC4/key_touch_Structure.c ****         {
 578:Generated_Source\PSoC4/key_touch_Structure.c ****             key_touch_BUTTON9_IDAC_MOD0,
 579:Generated_Source\PSoC4/key_touch_Structure.c ****         },
 580:Generated_Source\PSoC4/key_touch_Structure.c ****         key_touch_BUTTON9_SNS_CLK,
 581:Generated_Source\PSoC4/key_touch_Structure.c ****         key_touch_BUTTON9_SNS_CLK_SOURCE,
 582:Generated_Source\PSoC4/key_touch_Structure.c ****         key_touch_BUTTON9_FINGER_CAP,
 583:Generated_Source\PSoC4/key_touch_Structure.c ****         key_touch_BUTTON9_SIGPFC,
 584:Generated_Source\PSoC4/key_touch_Structure.c ****     },
 585:Generated_Source\PSoC4/key_touch_Structure.c ****     { /* Button10 */
 586:Generated_Source\PSoC4/key_touch_Structure.c ****         key_touch_BUTTON10_RESOLUTION,
 587:Generated_Source\PSoC4/key_touch_Structure.c ****         key_touch_BUTTON10_FINGER_TH,
 588:Generated_Source\PSoC4/key_touch_Structure.c ****         key_touch_BUTTON10_NOISE_TH,
 589:Generated_Source\PSoC4/key_touch_Structure.c ****         key_touch_BUTTON10_NNOISE_TH,
 590:Generated_Source\PSoC4/key_touch_Structure.c ****         key_touch_BUTTON10_HYSTERESIS,
 591:Generated_Source\PSoC4/key_touch_Structure.c ****         key_touch_BUTTON10_ON_DEBOUNCE,
 592:Generated_Source\PSoC4/key_touch_Structure.c ****         key_touch_BUTTON10_LOW_BSLN_RST,
 593:Generated_Source\PSoC4/key_touch_Structure.c ****         key_touch_BUTTON10_BSLN_COEFF,
 594:Generated_Source\PSoC4/key_touch_Structure.c ****         {
 595:Generated_Source\PSoC4/key_touch_Structure.c ****             key_touch_BUTTON10_IDAC_MOD0,
 596:Generated_Source\PSoC4/key_touch_Structure.c ****         },
 597:Generated_Source\PSoC4/key_touch_Structure.c ****         key_touch_BUTTON10_SNS_CLK,
 598:Generated_Source\PSoC4/key_touch_Structure.c ****         key_touch_BUTTON10_SNS_CLK_SOURCE,
 599:Generated_Source\PSoC4/key_touch_Structure.c ****         key_touch_BUTTON10_FINGER_CAP,
 600:Generated_Source\PSoC4/key_touch_Structure.c ****         key_touch_BUTTON10_SIGPFC,
 601:Generated_Source\PSoC4/key_touch_Structure.c ****     },
 602:Generated_Source\PSoC4/key_touch_Structure.c ****     { /* Button11 */
 603:Generated_Source\PSoC4/key_touch_Structure.c ****         key_touch_BUTTON11_RESOLUTION,
ARM GAS  C:\Users\Administrator\AppData\Local\Temp\ccCs3Dc2.s 			page 12


 604:Generated_Source\PSoC4/key_touch_Structure.c ****         key_touch_BUTTON11_FINGER_TH,
 605:Generated_Source\PSoC4/key_touch_Structure.c ****         key_touch_BUTTON11_NOISE_TH,
 606:Generated_Source\PSoC4/key_touch_Structure.c ****         key_touch_BUTTON11_NNOISE_TH,
 607:Generated_Source\PSoC4/key_touch_Structure.c ****         key_touch_BUTTON11_HYSTERESIS,
 608:Generated_Source\PSoC4/key_touch_Structure.c ****         key_touch_BUTTON11_ON_DEBOUNCE,
 609:Generated_Source\PSoC4/key_touch_Structure.c ****         key_touch_BUTTON11_LOW_BSLN_RST,
 610:Generated_Source\PSoC4/key_touch_Structure.c ****         key_touch_BUTTON11_BSLN_COEFF,
 611:Generated_Source\PSoC4/key_touch_Structure.c ****         {
 612:Generated_Source\PSoC4/key_touch_Structure.c ****             key_touch_BUTTON11_IDAC_MOD0,
 613:Generated_Source\PSoC4/key_touch_Structure.c ****         },
 614:Generated_Source\PSoC4/key_touch_Structure.c ****         key_touch_BUTTON11_SNS_CLK,
 615:Generated_Source\PSoC4/key_touch_Structure.c ****         key_touch_BUTTON11_SNS_CLK_SOURCE,
 616:Generated_Source\PSoC4/key_touch_Structure.c ****         key_touch_BUTTON11_FINGER_CAP,
 617:Generated_Source\PSoC4/key_touch_Structure.c ****         key_touch_BUTTON11_SIGPFC,
 618:Generated_Source\PSoC4/key_touch_Structure.c ****     },
 619:Generated_Source\PSoC4/key_touch_Structure.c **** };
 620:Generated_Source\PSoC4/key_touch_Structure.c **** 
 621:Generated_Source\PSoC4/key_touch_Structure.c **** 
 622:Generated_Source\PSoC4/key_touch_Structure.c **** /* IDAC Initialization Data */
 623:Generated_Source\PSoC4/key_touch_Structure.c **** static const uint8 key_touch_ramIdacInit[key_touch_TOTAL_SENSORS] =
 624:Generated_Source\PSoC4/key_touch_Structure.c **** {
 625:Generated_Source\PSoC4/key_touch_Structure.c ****     /* Button0 */
 626:Generated_Source\PSoC4/key_touch_Structure.c ****     key_touch_BUTTON0_SNS0_IDAC_COMP0,
 627:Generated_Source\PSoC4/key_touch_Structure.c **** 
 628:Generated_Source\PSoC4/key_touch_Structure.c ****     /* Button1 */
 629:Generated_Source\PSoC4/key_touch_Structure.c ****     key_touch_BUTTON1_SNS0_IDAC_COMP0,
 630:Generated_Source\PSoC4/key_touch_Structure.c **** 
 631:Generated_Source\PSoC4/key_touch_Structure.c ****     /* Button2 */
 632:Generated_Source\PSoC4/key_touch_Structure.c ****     key_touch_BUTTON2_SNS0_IDAC_COMP0,
 633:Generated_Source\PSoC4/key_touch_Structure.c **** 
 634:Generated_Source\PSoC4/key_touch_Structure.c ****     /* Button3 */
 635:Generated_Source\PSoC4/key_touch_Structure.c ****     key_touch_BUTTON3_SNS0_IDAC_COMP0,
 636:Generated_Source\PSoC4/key_touch_Structure.c **** 
 637:Generated_Source\PSoC4/key_touch_Structure.c ****     /* Button4 */
 638:Generated_Source\PSoC4/key_touch_Structure.c ****     key_touch_BUTTON4_SNS0_IDAC_COMP0,
 639:Generated_Source\PSoC4/key_touch_Structure.c **** 
 640:Generated_Source\PSoC4/key_touch_Structure.c ****     /* Button5 */
 641:Generated_Source\PSoC4/key_touch_Structure.c ****     key_touch_BUTTON5_SNS0_IDAC_COMP0,
 642:Generated_Source\PSoC4/key_touch_Structure.c **** 
 643:Generated_Source\PSoC4/key_touch_Structure.c ****     /* Button6 */
 644:Generated_Source\PSoC4/key_touch_Structure.c ****     key_touch_BUTTON6_SNS0_IDAC_COMP0,
 645:Generated_Source\PSoC4/key_touch_Structure.c **** 
 646:Generated_Source\PSoC4/key_touch_Structure.c ****     /* Button7 */
 647:Generated_Source\PSoC4/key_touch_Structure.c ****     key_touch_BUTTON7_SNS0_IDAC_COMP0,
 648:Generated_Source\PSoC4/key_touch_Structure.c **** 
 649:Generated_Source\PSoC4/key_touch_Structure.c ****     /* Button8 */
 650:Generated_Source\PSoC4/key_touch_Structure.c ****     key_touch_BUTTON8_SNS0_IDAC_COMP0,
 651:Generated_Source\PSoC4/key_touch_Structure.c **** 
 652:Generated_Source\PSoC4/key_touch_Structure.c ****     /* Button9 */
 653:Generated_Source\PSoC4/key_touch_Structure.c ****     key_touch_BUTTON9_SNS0_IDAC_COMP0,
 654:Generated_Source\PSoC4/key_touch_Structure.c **** 
 655:Generated_Source\PSoC4/key_touch_Structure.c ****     /* Button10 */
 656:Generated_Source\PSoC4/key_touch_Structure.c ****     key_touch_BUTTON10_SNS0_IDAC_COMP0,
 657:Generated_Source\PSoC4/key_touch_Structure.c **** 
 658:Generated_Source\PSoC4/key_touch_Structure.c ****     /* Button11 */
 659:Generated_Source\PSoC4/key_touch_Structure.c ****     key_touch_BUTTON11_SNS0_IDAC_COMP0,
 660:Generated_Source\PSoC4/key_touch_Structure.c **** };
ARM GAS  C:\Users\Administrator\AppData\Local\Temp\ccCs3Dc2.s 			page 13


 661:Generated_Source\PSoC4/key_touch_Structure.c **** 
 662:Generated_Source\PSoC4/key_touch_Structure.c **** 
 663:Generated_Source\PSoC4/key_touch_Structure.c **** /*******************************************************************************
 664:Generated_Source\PSoC4/key_touch_Structure.c **** * Define internal data types and statements
 665:Generated_Source\PSoC4/key_touch_Structure.c **** *******************************************************************************/
 666:Generated_Source\PSoC4/key_touch_Structure.c **** #define PARAM_TYPE_OFFSET       (30u)
 667:Generated_Source\PSoC4/key_touch_Structure.c **** #define PARAM_TYPE_MASK         (3Lu << PARAM_TYPE_OFFSET)
 668:Generated_Source\PSoC4/key_touch_Structure.c **** #define PARAM_RWBIT_OFFSET      (29u)
 669:Generated_Source\PSoC4/key_touch_Structure.c **** #define PARAM_RWBIT_MASK        (1Lu << PARAM_RWBIT_OFFSET)
 670:Generated_Source\PSoC4/key_touch_Structure.c **** #define PARAM_FBIT_OFFSET       (28u)
 671:Generated_Source\PSoC4/key_touch_Structure.c **** #define PARAM_FBIT_MASK         (1Lu << PARAM_FBIT_OFFSET)
 672:Generated_Source\PSoC4/key_touch_Structure.c **** #define PARAM_UBIT_OFFSET       (23u)
 673:Generated_Source\PSoC4/key_touch_Structure.c **** #define PARAM_UBIT_MASK         (1Lu << PARAM_UBIT_OFFSET)
 674:Generated_Source\PSoC4/key_touch_Structure.c **** #define PARAM_WDID_OFFSET       (16u)
 675:Generated_Source\PSoC4/key_touch_Structure.c **** #define PARAM_WDID_MASK         (0x7FLu << PARAM_WDID_OFFSET)
 676:Generated_Source\PSoC4/key_touch_Structure.c **** #define PARAM_CRC_OFFSET        (24u)
 677:Generated_Source\PSoC4/key_touch_Structure.c **** #define PARAM_CRC_MASK          (0x0FLu << PARAM_CRC_OFFSET)
 678:Generated_Source\PSoC4/key_touch_Structure.c **** 
 679:Generated_Source\PSoC4/key_touch_Structure.c **** /* Define align masks for uint16 and uint32 */
 680:Generated_Source\PSoC4/key_touch_Structure.c **** #define UINT16_ALIGN_MASK       (1Lu)
 681:Generated_Source\PSoC4/key_touch_Structure.c **** #define UINT32_ALIGN_MASK       (3Lu)
 682:Generated_Source\PSoC4/key_touch_Structure.c **** 
 683:Generated_Source\PSoC4/key_touch_Structure.c **** /* Define supported parameter types */
 684:Generated_Source\PSoC4/key_touch_Structure.c **** #define DS_PARAM_TYPE_UINT8     (0x01u)
 685:Generated_Source\PSoC4/key_touch_Structure.c **** #define DS_PARAM_TYPE_UINT16    (0x02u)
 686:Generated_Source\PSoC4/key_touch_Structure.c **** #define DS_PARAM_TYPE_UINT32    (0x03u)
 687:Generated_Source\PSoC4/key_touch_Structure.c **** 
 688:Generated_Source\PSoC4/key_touch_Structure.c **** 
 689:Generated_Source\PSoC4/key_touch_Structure.c **** /* Define PARAM_ID structure */
 690:Generated_Source\PSoC4/key_touch_Structure.c **** typedef struct
 691:Generated_Source\PSoC4/key_touch_Structure.c **** {
 692:Generated_Source\PSoC4/key_touch_Structure.c ****     uint16 offset;      /* parameter offset                     */
 693:Generated_Source\PSoC4/key_touch_Structure.c ****     uint8  widgetId;    /* widget Id parameter belongs to       */
 694:Generated_Source\PSoC4/key_touch_Structure.c ****     uint8  affectsCrc;  /* parameter affects widget CRC         */
 695:Generated_Source\PSoC4/key_touch_Structure.c ****     uint8  crc;         /* parameter CRC                        */
 696:Generated_Source\PSoC4/key_touch_Structure.c ****     uint8  flash;       /* parameter located in FLASH flag      */
 697:Generated_Source\PSoC4/key_touch_Structure.c ****     uint8  rw;          /* parameter is read/write flag         */
 698:Generated_Source\PSoC4/key_touch_Structure.c ****     uint8  type;        /* parameter type: uint8/uint16/uint32  */
 699:Generated_Source\PSoC4/key_touch_Structure.c **** } PARAM_ID_STRUCT;
 700:Generated_Source\PSoC4/key_touch_Structure.c **** 
 701:Generated_Source\PSoC4/key_touch_Structure.c **** 
 702:Generated_Source\PSoC4/key_touch_Structure.c **** /*******************************************************************************
 703:Generated_Source\PSoC4/key_touch_Structure.c **** * Static Function Prototypes
 704:Generated_Source\PSoC4/key_touch_Structure.c **** *******************************************************************************/
 705:Generated_Source\PSoC4/key_touch_Structure.c **** /**
 706:Generated_Source\PSoC4/key_touch_Structure.c **** * \if SECTION_CAPSENSE_INTERNAL
 707:Generated_Source\PSoC4/key_touch_Structure.c **** * \addtogroup group_capsense_internal
 708:Generated_Source\PSoC4/key_touch_Structure.c **** * \{
 709:Generated_Source\PSoC4/key_touch_Structure.c **** */
 710:Generated_Source\PSoC4/key_touch_Structure.c **** 
 711:Generated_Source\PSoC4/key_touch_Structure.c **** static cystatus DsParseParamId(uint32 paramId, PARAM_ID_STRUCT *pData);
 712:Generated_Source\PSoC4/key_touch_Structure.c **** 
 713:Generated_Source\PSoC4/key_touch_Structure.c **** /** \}
 714:Generated_Source\PSoC4/key_touch_Structure.c **** * \endif */
 715:Generated_Source\PSoC4/key_touch_Structure.c **** 
 716:Generated_Source\PSoC4/key_touch_Structure.c **** 
 717:Generated_Source\PSoC4/key_touch_Structure.c **** /*******************************************************************************
ARM GAS  C:\Users\Administrator\AppData\Local\Temp\ccCs3Dc2.s 			page 14


 718:Generated_Source\PSoC4/key_touch_Structure.c **** * Function Name: key_touch_DsInitialize
 719:Generated_Source\PSoC4/key_touch_Structure.c **** ****************************************************************************//**
 720:Generated_Source\PSoC4/key_touch_Structure.c **** *
 721:Generated_Source\PSoC4/key_touch_Structure.c **** * \brief
 722:Generated_Source\PSoC4/key_touch_Structure.c **** *   This function initializes the Data Structure storage.
 723:Generated_Source\PSoC4/key_touch_Structure.c **** *
 724:Generated_Source\PSoC4/key_touch_Structure.c **** * \details
 725:Generated_Source\PSoC4/key_touch_Structure.c **** *   This function copies the default widget configuration parameters 
 726:Generated_Source\PSoC4/key_touch_Structure.c **** *   from the Flash storage into the RAM Data Structure.
 727:Generated_Source\PSoC4/key_touch_Structure.c **** *
 728:Generated_Source\PSoC4/key_touch_Structure.c **** *******************************************************************************/
 729:Generated_Source\PSoC4/key_touch_Structure.c **** void key_touch_DsInitialize(void)
 730:Generated_Source\PSoC4/key_touch_Structure.c **** {
 731:Generated_Source\PSoC4/key_touch_Structure.c ****     #if (0u != key_touch_CSX_EN) || (0 != key_touch_CSD_IDAC_COMP_EN)
 732:Generated_Source\PSoC4/key_touch_Structure.c ****         uint32 snsId;
 733:Generated_Source\PSoC4/key_touch_Structure.c ****         uint32 wdgtId;
 734:Generated_Source\PSoC4/key_touch_Structure.c ****     
 735:Generated_Source\PSoC4/key_touch_Structure.c ****         key_touch_RAM_SNS_STRUCT * ptrSns;
 736:Generated_Source\PSoC4/key_touch_Structure.c ****         key_touch_FLASH_WD_STRUCT const * ptrFlashWdgt;
 737:Generated_Source\PSoC4/key_touch_Structure.c ****         uint8 const * ptrIdacInit = key_touch_ramIdacInit;
 738:Generated_Source\PSoC4/key_touch_Structure.c ****     #endif        
 739:Generated_Source\PSoC4/key_touch_Structure.c ****     
 740:Generated_Source\PSoC4/key_touch_Structure.c ****     /* Reset RAM data structure content */
 741:Generated_Source\PSoC4/key_touch_Structure.c ****     (void)memset(&key_touch_dsRam, 0, sizeof(key_touch_dsRam));
 742:Generated_Source\PSoC4/key_touch_Structure.c ****     
 743:Generated_Source\PSoC4/key_touch_Structure.c ****     /* Initialize configId and deviceId registers */
 744:Generated_Source\PSoC4/key_touch_Structure.c ****     key_touch_dsRam.configId = key_touch_CONFIG_ID;
 745:Generated_Source\PSoC4/key_touch_Structure.c ****     key_touch_dsRam.deviceId = key_touch_DEVICE_ID;
 746:Generated_Source\PSoC4/key_touch_Structure.c ****     
 747:Generated_Source\PSoC4/key_touch_Structure.c ****     /* Initialize global RAM data */
 748:Generated_Source\PSoC4/key_touch_Structure.c ****     key_touch_dsRam.csd0Config = key_touch_CSD0_CONFIG;
 749:Generated_Source\PSoC4/key_touch_Structure.c **** 
 750:Generated_Source\PSoC4/key_touch_Structure.c ****     #if ((0u != key_touch_CSD2X_EN) || (0u != key_touch_CSX2X_EN))
 751:Generated_Source\PSoC4/key_touch_Structure.c ****         key_touch_dsRam.csd1Config = key_touch_CSD1_CONFIG;
 752:Generated_Source\PSoC4/key_touch_Structure.c ****     #endif /* #if ((0u != key_touch_CSD2X_EN) || (0u != key_touch_CSX2X_EN)) */
 753:Generated_Source\PSoC4/key_touch_Structure.c ****     
 754:Generated_Source\PSoC4/key_touch_Structure.c ****     #if (0u != key_touch_TOTAL_CSD_WIDGETS)
 755:Generated_Source\PSoC4/key_touch_Structure.c ****         key_touch_dsRam.modCsdClk = key_touch_CSD_SCANSPEED_DIVIDER;
 756:Generated_Source\PSoC4/key_touch_Structure.c ****         
 757:Generated_Source\PSoC4/key_touch_Structure.c ****         #if (0u != key_touch_CSD_COMMON_SNS_CLK_EN)
 758:Generated_Source\PSoC4/key_touch_Structure.c ****             key_touch_dsRam.snsCsdClk = key_touch_CSD_SNS_CLK_DIVIDER;
 759:Generated_Source\PSoC4/key_touch_Structure.c ****         #endif /* #if (0u != key_touch_CSD_COMMON_SNS_CLK_EN) */
 760:Generated_Source\PSoC4/key_touch_Structure.c ****     #endif /* #if (0u != key_touch_TOTAL_CSD_WIDGETS) */
 761:Generated_Source\PSoC4/key_touch_Structure.c ****     
 762:Generated_Source\PSoC4/key_touch_Structure.c ****     #if (0u != key_touch_CSX_EN)
 763:Generated_Source\PSoC4/key_touch_Structure.c ****         key_touch_dsRam.modCsxClk = key_touch_CSX_SCANSPEED_DIVIDER;
 764:Generated_Source\PSoC4/key_touch_Structure.c ****         
 765:Generated_Source\PSoC4/key_touch_Structure.c ****         #if (0u != key_touch_CSX_COMMON_TX_CLK_EN)
 766:Generated_Source\PSoC4/key_touch_Structure.c ****             key_touch_dsRam.snsCsxClk = key_touch_CSX_TX_CLK_DIVIDER;
 767:Generated_Source\PSoC4/key_touch_Structure.c ****         #endif /* #if (0u != key_touch_CSX_COMMON_TX_CLK_EN) */
 768:Generated_Source\PSoC4/key_touch_Structure.c ****     #endif /* #if (0u != key_touch_CSX_EN) */
 769:Generated_Source\PSoC4/key_touch_Structure.c ****     
 770:Generated_Source\PSoC4/key_touch_Structure.c ****     #if (0u != key_touch_SELF_TEST_EN)
 771:Generated_Source\PSoC4/key_touch_Structure.c ****         key_touch_dsRam.glbCrc = key_touch_GLB_CRC;
 772:Generated_Source\PSoC4/key_touch_Structure.c ****     #endif /* #if (0u != key_touch_SELF_TEST_EN) */
 773:Generated_Source\PSoC4/key_touch_Structure.c ****    
 774:Generated_Source\PSoC4/key_touch_Structure.c ****     /* Initialize RAM widget data */
ARM GAS  C:\Users\Administrator\AppData\Local\Temp\ccCs3Dc2.s 			page 15


 775:Generated_Source\PSoC4/key_touch_Structure.c ****     key_touch_dsRam.wdgtList = key_touch_ramWidgetInit;
 776:Generated_Source\PSoC4/key_touch_Structure.c ****     
 777:Generated_Source\PSoC4/key_touch_Structure.c ****     #if (0u != key_touch_CSX_EN) || (0 != key_touch_CSD_IDAC_COMP_EN)
 778:Generated_Source\PSoC4/key_touch_Structure.c ****         /* Initialize IDAC data */
 779:Generated_Source\PSoC4/key_touch_Structure.c ****         ptrFlashWdgt = key_touch_dsFlash.wdgtArray;
 780:Generated_Source\PSoC4/key_touch_Structure.c ****         
 781:Generated_Source\PSoC4/key_touch_Structure.c ****         for (wdgtId = key_touch_TOTAL_WIDGETS; wdgtId-- > 0u; )
 782:Generated_Source\PSoC4/key_touch_Structure.c ****         {
 783:Generated_Source\PSoC4/key_touch_Structure.c ****             ptrSns = ptrFlashWdgt->ptr2SnsRam;
 784:Generated_Source\PSoC4/key_touch_Structure.c ****                 
 785:Generated_Source\PSoC4/key_touch_Structure.c ****             for (snsId = key_touch_GET_SNS_CNT_BY_PTR(ptrFlashWdgt); snsId-- > 0u;)
 786:Generated_Source\PSoC4/key_touch_Structure.c ****             {
 787:Generated_Source\PSoC4/key_touch_Structure.c ****                 ptrSns->idacComp[0u] = *ptrIdacInit;
 788:Generated_Source\PSoC4/key_touch_Structure.c ****                 ptrIdacInit++;
 789:Generated_Source\PSoC4/key_touch_Structure.c ****                 
 790:Generated_Source\PSoC4/key_touch_Structure.c ****                 #if (0u != key_touch_MULTI_FREQ_SCAN_EN)
 791:Generated_Source\PSoC4/key_touch_Structure.c ****                     ptrSns->idacComp[1u] = *ptrIdacInit;
 792:Generated_Source\PSoC4/key_touch_Structure.c ****                     ptrIdacInit++;
 793:Generated_Source\PSoC4/key_touch_Structure.c ****                     
 794:Generated_Source\PSoC4/key_touch_Structure.c ****                     ptrSns->idacComp[2u] = *ptrIdacInit;
 795:Generated_Source\PSoC4/key_touch_Structure.c ****                     ptrIdacInit++;
 796:Generated_Source\PSoC4/key_touch_Structure.c ****                 #endif /* #if (0u != key_touch_MULTI_FREQ_SCAN_EN) */
 797:Generated_Source\PSoC4/key_touch_Structure.c ****                 
 798:Generated_Source\PSoC4/key_touch_Structure.c ****                 ptrSns++;
 799:Generated_Source\PSoC4/key_touch_Structure.c ****             }
 800:Generated_Source\PSoC4/key_touch_Structure.c ****             
 801:Generated_Source\PSoC4/key_touch_Structure.c ****             ptrFlashWdgt++; /* Move to next widget */
 802:Generated_Source\PSoC4/key_touch_Structure.c ****         }
 803:Generated_Source\PSoC4/key_touch_Structure.c ****     #endif /*(0u != key_touch_CSX_EN) || (0 != key_touch_CSD_IDAC_COMP_EN)*/
 804:Generated_Source\PSoC4/key_touch_Structure.c ****     
 805:Generated_Source\PSoC4/key_touch_Structure.c ****     #if (0u != key_touch_ADC_EN)
 806:Generated_Source\PSoC4/key_touch_Structure.c ****         key_touch_AdcDsInitialize();
 807:Generated_Source\PSoC4/key_touch_Structure.c ****     #endif /* (0u != key_touch_ADC_EN) */
 808:Generated_Source\PSoC4/key_touch_Structure.c **** }
 809:Generated_Source\PSoC4/key_touch_Structure.c **** 
 810:Generated_Source\PSoC4/key_touch_Structure.c **** 
 811:Generated_Source\PSoC4/key_touch_Structure.c **** #if (0u != key_touch_ADC_EN)
 812:Generated_Source\PSoC4/key_touch_Structure.c ****     /*******************************************************************************
 813:Generated_Source\PSoC4/key_touch_Structure.c ****     * Function Name: key_touch_AdcDsInitialize
 814:Generated_Source\PSoC4/key_touch_Structure.c ****     ****************************************************************************//**
 815:Generated_Source\PSoC4/key_touch_Structure.c ****     *
 816:Generated_Source\PSoC4/key_touch_Structure.c ****     * \brief
 817:Generated_Source\PSoC4/key_touch_Structure.c ****     *   Configures the initial Adc datastructure members.
 818:Generated_Source\PSoC4/key_touch_Structure.c ****     *
 819:Generated_Source\PSoC4/key_touch_Structure.c ****     *******************************************************************************/
 820:Generated_Source\PSoC4/key_touch_Structure.c ****     void key_touch_AdcDsInitialize(void)
 821:Generated_Source\PSoC4/key_touch_Structure.c ****     {
 822:Generated_Source\PSoC4/key_touch_Structure.c ****         key_touch_dsRam.adcResolution = key_touch_ADC_RESOLUTION;
 823:Generated_Source\PSoC4/key_touch_Structure.c ****         key_touch_dsRam.adcIdac = (uint8)(key_touch_ADC_IDACVAL);
 824:Generated_Source\PSoC4/key_touch_Structure.c ****     }
 825:Generated_Source\PSoC4/key_touch_Structure.c **** #endif /* (0u != key_touch_ADC_EN) */
 826:Generated_Source\PSoC4/key_touch_Structure.c **** 
 827:Generated_Source\PSoC4/key_touch_Structure.c **** 
 828:Generated_Source\PSoC4/key_touch_Structure.c **** /*******************************************************************************
 829:Generated_Source\PSoC4/key_touch_Structure.c **** * Function Name: DsParseParamId
 830:Generated_Source\PSoC4/key_touch_Structure.c **** ****************************************************************************//**
 831:Generated_Source\PSoC4/key_touch_Structure.c **** *
ARM GAS  C:\Users\Administrator\AppData\Local\Temp\ccCs3Dc2.s 			page 16


 832:Generated_Source\PSoC4/key_touch_Structure.c **** * \brief
 833:Generated_Source\PSoC4/key_touch_Structure.c **** *   This function parses the parameter ID and checks its correctness.
 834:Generated_Source\PSoC4/key_touch_Structure.c **** *
 835:Generated_Source\PSoC4/key_touch_Structure.c **** * \details
 836:Generated_Source\PSoC4/key_touch_Structure.c **** *   This function checks the parameter CRC if the self-test is enabled, 
 837:Generated_Source\PSoC4/key_touch_Structure.c **** *   validates the offset value and parameter type.
 838:Generated_Source\PSoC4/key_touch_Structure.c **** *
 839:Generated_Source\PSoC4/key_touch_Structure.c **** * \param paramId The parameter to parse.
 840:Generated_Source\PSoC4/key_touch_Structure.c **** * \param pData   The pointer to the structure that will hold parsed data.
 841:Generated_Source\PSoC4/key_touch_Structure.c **** *
 842:Generated_Source\PSoC4/key_touch_Structure.c **** * \return CYRET_SUCCESS     If the parameter is valid
 843:Generated_Source\PSoC4/key_touch_Structure.c **** *         CYRET_BAD_PARAM   If  the parameter is invalid
 844:Generated_Source\PSoC4/key_touch_Structure.c **** *
 845:Generated_Source\PSoC4/key_touch_Structure.c **** *******************************************************************************/
 846:Generated_Source\PSoC4/key_touch_Structure.c **** static cystatus DsParseParamId(uint32 paramId, PARAM_ID_STRUCT *pData)
 847:Generated_Source\PSoC4/key_touch_Structure.c **** {
  25              		.loc 1 847 0
  26              		.cfi_startproc
  27              	.LVL0:
  28 0000 30B5     		push	{r4, r5, lr}
  29              		.cfi_def_cfa_offset 12
  30              		.cfi_offset 4, -12
  31              		.cfi_offset 5, -8
  32              		.cfi_offset 14, -4
  33              	.LVL1:
 848:Generated_Source\PSoC4/key_touch_Structure.c ****     cystatus result = CYRET_SUCCESS;
 849:Generated_Source\PSoC4/key_touch_Structure.c ****     
 850:Generated_Source\PSoC4/key_touch_Structure.c ****     #if (0u != key_touch_SELF_TEST_EN)
 851:Generated_Source\PSoC4/key_touch_Structure.c ****         const uint8 crcTable[] =
 852:Generated_Source\PSoC4/key_touch_Structure.c ****         {
 853:Generated_Source\PSoC4/key_touch_Structure.c ****             0x00u, 0x09u, 0x0Bu, 0x02u, 0x0Fu, 0x06u, 0x04u, 0x0Du,
 854:Generated_Source\PSoC4/key_touch_Structure.c ****             0x07u, 0x0Eu, 0x0Cu, 0x05u, 0x08u, 0x01u, 0x03u, 0x0Au
 855:Generated_Source\PSoC4/key_touch_Structure.c ****         };
 856:Generated_Source\PSoC4/key_touch_Structure.c ****         
 857:Generated_Source\PSoC4/key_touch_Structure.c ****         uint32 i;
 858:Generated_Source\PSoC4/key_touch_Structure.c ****         uint32 actualCrc = 0u;
 859:Generated_Source\PSoC4/key_touch_Structure.c ****         uint32 crcIndex;
 860:Generated_Source\PSoC4/key_touch_Structure.c ****     #endif /* #if (0u != key_touch_SELF_TEST_EN) */
 861:Generated_Source\PSoC4/key_touch_Structure.c ****             
 862:Generated_Source\PSoC4/key_touch_Structure.c ****     /* Extract parameter data */
 863:Generated_Source\PSoC4/key_touch_Structure.c ****     pData->offset     = LO16(paramId);
  34              		.loc 1 863 0
  35 0002 84B2     		uxth	r4, r0
  36 0004 0C80     		strh	r4, [r1]
 864:Generated_Source\PSoC4/key_touch_Structure.c ****     pData->affectsCrc = LO8((paramId & PARAM_UBIT_MASK)  >> PARAM_UBIT_OFFSET);
  37              		.loc 1 864 0
  38 0006 0302     		lsl	r3, r0, #8
  39 0008 DB0F     		lsr	r3, r3, #31
  40 000a CB70     		strb	r3, [r1, #3]
 865:Generated_Source\PSoC4/key_touch_Structure.c ****     pData->widgetId   = LO8((paramId & PARAM_WDID_MASK)  >> PARAM_WDID_OFFSET);
  41              		.loc 1 865 0
  42 000c 4302     		lsl	r3, r0, #9
  43 000e 5B0E     		lsr	r3, r3, #25
  44 0010 8B70     		strb	r3, [r1, #2]
 866:Generated_Source\PSoC4/key_touch_Structure.c ****     pData->type       = LO8((paramId & PARAM_TYPE_MASK)  >> PARAM_TYPE_OFFSET);
  45              		.loc 1 866 0
  46 0012 850F     		lsr	r5, r0, #30
ARM GAS  C:\Users\Administrator\AppData\Local\Temp\ccCs3Dc2.s 			page 17


  47 0014 CD71     		strb	r5, [r1, #7]
 867:Generated_Source\PSoC4/key_touch_Structure.c ****     pData->flash      = LO8((paramId & PARAM_FBIT_MASK)  >> PARAM_FBIT_OFFSET);
  48              		.loc 1 867 0
  49 0016 C300     		lsl	r3, r0, #3
  50 0018 DB0F     		lsr	r3, r3, #31
  51 001a 4B71     		strb	r3, [r1, #5]
 868:Generated_Source\PSoC4/key_touch_Structure.c ****     pData->rw         = LO8((paramId & PARAM_RWBIT_MASK) >> PARAM_RWBIT_OFFSET);
  52              		.loc 1 868 0
  53 001c 8200     		lsl	r2, r0, #2
  54 001e D20F     		lsr	r2, r2, #31
  55 0020 8A71     		strb	r2, [r1, #6]
 869:Generated_Source\PSoC4/key_touch_Structure.c ****     pData->crc        = LO8((paramId & PARAM_CRC_MASK)   >> PARAM_CRC_OFFSET);
  56              		.loc 1 869 0
  57 0022 0001     		lsl	r0, r0, #4
  58              	.LVL2:
  59 0024 000F     		lsr	r0, r0, #28
  60 0026 0871     		strb	r0, [r1, #4]
 870:Generated_Source\PSoC4/key_touch_Structure.c ****     
 871:Generated_Source\PSoC4/key_touch_Structure.c ****     /* Check parameter CRC if self-test is enabled */
 872:Generated_Source\PSoC4/key_touch_Structure.c ****     #if (0u != key_touch_SELF_TEST_EN)
 873:Generated_Source\PSoC4/key_touch_Structure.c ****  
 874:Generated_Source\PSoC4/key_touch_Structure.c ****         /* Calculate CRC for bits 0..24.
 875:Generated_Source\PSoC4/key_touch_Structure.c ****          * The CRC is calculated using nibbles (4-bits). 
 876:Generated_Source\PSoC4/key_touch_Structure.c ****          * So for 0..24 bits there are in total 6 nibbles. */
 877:Generated_Source\PSoC4/key_touch_Structure.c ****         for (i = 6u; i > 0u; i--)
 878:Generated_Source\PSoC4/key_touch_Structure.c ****         {
 879:Generated_Source\PSoC4/key_touch_Structure.c ****             crcIndex = actualCrc ^ (paramId & 0x0Fu);
 880:Generated_Source\PSoC4/key_touch_Structure.c ****             actualCrc = crcTable[crcIndex];
 881:Generated_Source\PSoC4/key_touch_Structure.c ****             paramId >>= 4u;
 882:Generated_Source\PSoC4/key_touch_Structure.c ****         }
 883:Generated_Source\PSoC4/key_touch_Structure.c **** 
 884:Generated_Source\PSoC4/key_touch_Structure.c ****         /* Add bits 28..32 */
 885:Generated_Source\PSoC4/key_touch_Structure.c ****         crcIndex = actualCrc ^ ((paramId >> 4u) & 0x0Fu);
 886:Generated_Source\PSoC4/key_touch_Structure.c ****         actualCrc = crcTable[crcIndex];
 887:Generated_Source\PSoC4/key_touch_Structure.c **** 
 888:Generated_Source\PSoC4/key_touch_Structure.c ****         /* Add bits 24..28 (CRC) */
 889:Generated_Source\PSoC4/key_touch_Structure.c ****         crcIndex = actualCrc ^ (paramId & 0x0Fu);
 890:Generated_Source\PSoC4/key_touch_Structure.c ****         actualCrc = crcTable[crcIndex];
 891:Generated_Source\PSoC4/key_touch_Structure.c ****         
 892:Generated_Source\PSoC4/key_touch_Structure.c ****         if (0u != actualCrc)
 893:Generated_Source\PSoC4/key_touch_Structure.c ****         {
 894:Generated_Source\PSoC4/key_touch_Structure.c ****             /* CRC mismatch */
 895:Generated_Source\PSoC4/key_touch_Structure.c ****             result = CYRET_BAD_PARAM;
 896:Generated_Source\PSoC4/key_touch_Structure.c ****         }
 897:Generated_Source\PSoC4/key_touch_Structure.c ****         
 898:Generated_Source\PSoC4/key_touch_Structure.c ****         if ((CYRET_SUCCESS == result) && 
 899:Generated_Source\PSoC4/key_touch_Structure.c ****             (0u != pData->affectsCrc) && (pData->widgetId >= key_touch_TOTAL_WIDGETS ))
 900:Generated_Source\PSoC4/key_touch_Structure.c ****         {
 901:Generated_Source\PSoC4/key_touch_Structure.c ****             /* Wrong widgetId for protected parameter */
 902:Generated_Source\PSoC4/key_touch_Structure.c ****             result = CYRET_BAD_PARAM;
 903:Generated_Source\PSoC4/key_touch_Structure.c ****         }
 904:Generated_Source\PSoC4/key_touch_Structure.c ****         
 905:Generated_Source\PSoC4/key_touch_Structure.c ****         /* Check offset value range */
 906:Generated_Source\PSoC4/key_touch_Structure.c ****         if (CYRET_SUCCESS == result)
 907:Generated_Source\PSoC4/key_touch_Structure.c ****         {
 908:Generated_Source\PSoC4/key_touch_Structure.c ****             if (0u == pData->flash)
 909:Generated_Source\PSoC4/key_touch_Structure.c ****             {
ARM GAS  C:\Users\Administrator\AppData\Local\Temp\ccCs3Dc2.s 			page 18


 910:Generated_Source\PSoC4/key_touch_Structure.c ****                 /* Check offset for RAM Data Structure range */
 911:Generated_Source\PSoC4/key_touch_Structure.c ****                 if (pData->offset >= sizeof(key_touch_dsRam))
 912:Generated_Source\PSoC4/key_touch_Structure.c ****                 {
 913:Generated_Source\PSoC4/key_touch_Structure.c ****                     result = CYRET_BAD_PARAM;
 914:Generated_Source\PSoC4/key_touch_Structure.c ****                 }
 915:Generated_Source\PSoC4/key_touch_Structure.c ****             }
 916:Generated_Source\PSoC4/key_touch_Structure.c ****             else
 917:Generated_Source\PSoC4/key_touch_Structure.c ****             {
 918:Generated_Source\PSoC4/key_touch_Structure.c ****                 /* Check offset for Flash Data Structure range */
 919:Generated_Source\PSoC4/key_touch_Structure.c ****                 if (pData->offset >= sizeof(key_touch_dsFlash))
 920:Generated_Source\PSoC4/key_touch_Structure.c ****                 {
 921:Generated_Source\PSoC4/key_touch_Structure.c ****                     result = CYRET_BAD_PARAM;
 922:Generated_Source\PSoC4/key_touch_Structure.c ****                 }
 923:Generated_Source\PSoC4/key_touch_Structure.c ****                 
 924:Generated_Source\PSoC4/key_touch_Structure.c ****                 /* Check if it is marked as Read Only */
 925:Generated_Source\PSoC4/key_touch_Structure.c ****                 if (0u != pData->rw)
 926:Generated_Source\PSoC4/key_touch_Structure.c ****                 {
 927:Generated_Source\PSoC4/key_touch_Structure.c ****                     result = CYRET_BAD_PARAM;
 928:Generated_Source\PSoC4/key_touch_Structure.c ****                 }
 929:Generated_Source\PSoC4/key_touch_Structure.c ****             }
 930:Generated_Source\PSoC4/key_touch_Structure.c ****         }
 931:Generated_Source\PSoC4/key_touch_Structure.c ****     #else /* #if (0u != key_touch_SELF_TEST_EN) */
 932:Generated_Source\PSoC4/key_touch_Structure.c ****         /* Check offset value range */
 933:Generated_Source\PSoC4/key_touch_Structure.c ****         if (0u == pData->flash)
  61              		.loc 1 933 0
  62 0028 002B     		cmp	r3, #0
  63 002a 05D1     		bne	.L2
 934:Generated_Source\PSoC4/key_touch_Structure.c ****         {
 935:Generated_Source\PSoC4/key_touch_Structure.c ****             /* Check offset for RAM Data Structure range */
 936:Generated_Source\PSoC4/key_touch_Structure.c ****             if (pData->offset >= sizeof(key_touch_dsRam))
  64              		.loc 1 936 0
  65 002c 7C23     		mov	r3, #124
  66 002e FF33     		add	r3, r3, #255
  67 0030 9C42     		cmp	r4, r3
  68 0032 0BD8     		bhi	.L9
 848:Generated_Source\PSoC4/key_touch_Structure.c ****     
  69              		.loc 1 848 0
  70 0034 0020     		mov	r0, #0
  71 0036 0CE0     		b	.L3
  72              	.L2:
 937:Generated_Source\PSoC4/key_touch_Structure.c ****             {
 938:Generated_Source\PSoC4/key_touch_Structure.c ****                 result = CYRET_BAD_PARAM;
 939:Generated_Source\PSoC4/key_touch_Structure.c ****             }
 940:Generated_Source\PSoC4/key_touch_Structure.c ****         }
 941:Generated_Source\PSoC4/key_touch_Structure.c ****         else
 942:Generated_Source\PSoC4/key_touch_Structure.c ****         {
 943:Generated_Source\PSoC4/key_touch_Structure.c ****             /* Check offset for Flash Data Structure range */
 944:Generated_Source\PSoC4/key_touch_Structure.c ****             if (pData->offset >= sizeof(key_touch_dsFlash))
  73              		.loc 1 944 0
  74 0038 8023     		mov	r3, #128
  75 003a FF33     		add	r3, r3, #255
  76 003c 9C42     		cmp	r4, r3
  77 003e 01D8     		bhi	.L10
 848:Generated_Source\PSoC4/key_touch_Structure.c ****     
  78              		.loc 1 848 0
  79 0040 0020     		mov	r0, #0
  80 0042 00E0     		b	.L4
ARM GAS  C:\Users\Administrator\AppData\Local\Temp\ccCs3Dc2.s 			page 19


  81              	.L10:
 945:Generated_Source\PSoC4/key_touch_Structure.c ****             {
 946:Generated_Source\PSoC4/key_touch_Structure.c ****                 result = CYRET_BAD_PARAM;
  82              		.loc 1 946 0
  83 0044 0120     		mov	r0, #1
  84              	.L4:
  85              	.LVL3:
 947:Generated_Source\PSoC4/key_touch_Structure.c ****             }
 948:Generated_Source\PSoC4/key_touch_Structure.c ****             
 949:Generated_Source\PSoC4/key_touch_Structure.c ****             /* Check if it is marked as Read Only */
 950:Generated_Source\PSoC4/key_touch_Structure.c ****             if (0u != pData->rw)
  86              		.loc 1 950 0
  87 0046 002A     		cmp	r2, #0
  88 0048 02D1     		bne	.L11
  89 004a 02E0     		b	.L3
  90              	.LVL4:
  91              	.L9:
 938:Generated_Source\PSoC4/key_touch_Structure.c ****             }
  92              		.loc 1 938 0
  93 004c 0120     		mov	r0, #1
  94 004e 00E0     		b	.L3
  95              	.LVL5:
  96              	.L11:
 951:Generated_Source\PSoC4/key_touch_Structure.c ****             {
 952:Generated_Source\PSoC4/key_touch_Structure.c ****                 result = CYRET_BAD_PARAM;
  97              		.loc 1 952 0
  98 0050 0120     		mov	r0, #1
  99              	.LVL6:
 100              	.L3:
 953:Generated_Source\PSoC4/key_touch_Structure.c ****             }
 954:Generated_Source\PSoC4/key_touch_Structure.c ****         }
 955:Generated_Source\PSoC4/key_touch_Structure.c ****     #endif /* #if (0u != key_touch_SELF_TEST_EN) */
 956:Generated_Source\PSoC4/key_touch_Structure.c **** 
 957:Generated_Source\PSoC4/key_touch_Structure.c ****     if (CYRET_SUCCESS == result)
 101              		.loc 1 957 0
 102 0052 0028     		cmp	r0, #0
 103 0054 11D1     		bne	.L5
 958:Generated_Source\PSoC4/key_touch_Structure.c ****     {
 959:Generated_Source\PSoC4/key_touch_Structure.c ****         /* Check parameter type, offset alignment */
 960:Generated_Source\PSoC4/key_touch_Structure.c ****         switch (pData->type)
 104              		.loc 1 960 0
 105 0056 022D     		cmp	r5, #2
 106 0058 04D0     		beq	.L6
 107 005a 032D     		cmp	r5, #3
 108 005c 05D0     		beq	.L7
 109 005e 012D     		cmp	r5, #1
 110 0060 06D1     		bne	.L15
 111 0062 0AE0     		b	.L5
 112              	.L6:
 961:Generated_Source\PSoC4/key_touch_Structure.c ****         {
 962:Generated_Source\PSoC4/key_touch_Structure.c ****         case DS_PARAM_TYPE_UINT16:
 963:Generated_Source\PSoC4/key_touch_Structure.c ****             if (0u != (pData->offset & UINT16_ALIGN_MASK))
 113              		.loc 1 963 0
 114 0064 E307     		lsl	r3, r4, #31
 115 0066 05D4     		bmi	.L13
 116 0068 07E0     		b	.L5
 117              	.L7:
ARM GAS  C:\Users\Administrator\AppData\Local\Temp\ccCs3Dc2.s 			page 20


 964:Generated_Source\PSoC4/key_touch_Structure.c ****             {
 965:Generated_Source\PSoC4/key_touch_Structure.c ****                 result = CYRET_BAD_PARAM;
 966:Generated_Source\PSoC4/key_touch_Structure.c ****             }
 967:Generated_Source\PSoC4/key_touch_Structure.c ****             break;
 968:Generated_Source\PSoC4/key_touch_Structure.c ****             
 969:Generated_Source\PSoC4/key_touch_Structure.c ****         case DS_PARAM_TYPE_UINT32:
 970:Generated_Source\PSoC4/key_touch_Structure.c ****             if (0u != (pData->offset & UINT32_ALIGN_MASK))
 118              		.loc 1 970 0
 119 006a A307     		lsl	r3, r4, #30
 120 006c 04D1     		bne	.L14
 121 006e 04E0     		b	.L5
 122              	.L15:
 971:Generated_Source\PSoC4/key_touch_Structure.c ****             {
 972:Generated_Source\PSoC4/key_touch_Structure.c ****                 result = CYRET_BAD_PARAM;
 973:Generated_Source\PSoC4/key_touch_Structure.c ****             }
 974:Generated_Source\PSoC4/key_touch_Structure.c ****             break;
 975:Generated_Source\PSoC4/key_touch_Structure.c ****             
 976:Generated_Source\PSoC4/key_touch_Structure.c ****         case DS_PARAM_TYPE_UINT8:
 977:Generated_Source\PSoC4/key_touch_Structure.c ****             break;
 978:Generated_Source\PSoC4/key_touch_Structure.c ****             
 979:Generated_Source\PSoC4/key_touch_Structure.c ****         default:
 980:Generated_Source\PSoC4/key_touch_Structure.c ****             result = CYRET_BAD_PARAM;
 123              		.loc 1 980 0
 124 0070 0120     		mov	r0, #1
 125              	.LVL7:
 126 0072 02E0     		b	.L5
 127              	.LVL8:
 128              	.L13:
 965:Generated_Source\PSoC4/key_touch_Structure.c ****             }
 129              		.loc 1 965 0
 130 0074 0120     		mov	r0, #1
 131              	.LVL9:
 132 0076 00E0     		b	.L5
 133              	.LVL10:
 134              	.L14:
 972:Generated_Source\PSoC4/key_touch_Structure.c ****             }
 135              		.loc 1 972 0
 136 0078 0120     		mov	r0, #1
 137              	.LVL11:
 138              	.L5:
 981:Generated_Source\PSoC4/key_touch_Structure.c ****             break;
 982:Generated_Source\PSoC4/key_touch_Structure.c ****         }
 983:Generated_Source\PSoC4/key_touch_Structure.c ****     }
 984:Generated_Source\PSoC4/key_touch_Structure.c **** 
 985:Generated_Source\PSoC4/key_touch_Structure.c ****     return result;
 986:Generated_Source\PSoC4/key_touch_Structure.c **** }
 139              		.loc 1 986 0
 140              		@ sp needed
 141 007a 30BD     		pop	{r4, r5, pc}
 142              		.cfi_endproc
 143              	.LFE2:
 144              		.size	DsParseParamId, .-DsParseParamId
 145              		.section	.text.key_touch_DsInitialize,"ax",%progbits
 146              		.align	2
 147              		.global	key_touch_DsInitialize
 148              		.code	16
 149              		.thumb_func
ARM GAS  C:\Users\Administrator\AppData\Local\Temp\ccCs3Dc2.s 			page 21


 150              		.type	key_touch_DsInitialize, %function
 151              	key_touch_DsInitialize:
 152              	.LFB1:
 730:Generated_Source\PSoC4/key_touch_Structure.c ****     #if (0u != key_touch_CSX_EN) || (0 != key_touch_CSD_IDAC_COMP_EN)
 153              		.loc 1 730 0
 154              		.cfi_startproc
 155 0000 38B5     		push	{r3, r4, r5, lr}
 156              		.cfi_def_cfa_offset 16
 157              		.cfi_offset 3, -16
 158              		.cfi_offset 4, -12
 159              		.cfi_offset 5, -8
 160              		.cfi_offset 14, -4
 161              	.LVL12:
 741:Generated_Source\PSoC4/key_touch_Structure.c ****     
 162              		.loc 1 741 0
 163 0002 174C     		ldr	r4, .L21
 164 0004 201C     		mov	r0, r4
 165 0006 0021     		mov	r1, #0
 166 0008 BE22     		mov	r2, #190
 167 000a 5200     		lsl	r2, r2, #1
 168 000c FFF7FEFF 		bl	memset
 169              	.LVL13:
 744:Generated_Source\PSoC4/key_touch_Structure.c ****     key_touch_dsRam.deviceId = key_touch_DEVICE_ID;
 170              		.loc 1 744 0
 171 0010 144B     		ldr	r3, .L21+4
 172 0012 2380     		strh	r3, [r4]
 745:Generated_Source\PSoC4/key_touch_Structure.c ****     
 173              		.loc 1 745 0
 174 0014 9823     		mov	r3, #152
 175 0016 5B00     		lsl	r3, r3, #1
 176 0018 6380     		strh	r3, [r4, #2]
 748:Generated_Source\PSoC4/key_touch_Structure.c **** 
 177              		.loc 1 748 0
 178 001a 293B     		sub	r3, r3, #41
 179 001c FF3B     		sub	r3, r3, #255
 180 001e 2384     		strh	r3, [r4, #32]
 755:Generated_Source\PSoC4/key_touch_Structure.c ****         
 181              		.loc 1 755 0
 182 0020 0222     		mov	r2, #2
 183 0022 1A33     		add	r3, r3, #26
 184 0024 E254     		strb	r2, [r4, r3]
 775:Generated_Source\PSoC4/key_touch_Structure.c ****     
 185              		.loc 1 775 0
 186 0026 201C     		mov	r0, r4
 187 0028 2430     		add	r0, r0, #36
 188 002a 0F49     		ldr	r1, .L21+8
 189 002c 0C31     		add	r1, r1, #12
 190 002e D632     		add	r2, r2, #214
 191 0030 FFF7FEFF 		bl	memcpy
 192              	.LVL14:
 737:Generated_Source\PSoC4/key_touch_Structure.c ****     #endif        
 193              		.loc 1 737 0
 194 0034 0D49     		ldr	r1, .L21+12
 779:Generated_Source\PSoC4/key_touch_Structure.c ****         
 195              		.loc 1 779 0
 196 0036 0C1C     		mov	r4, r1
 197 0038 0C34     		add	r4, r4, #12
ARM GAS  C:\Users\Administrator\AppData\Local\Temp\ccCs3Dc2.s 			page 22


 781:Generated_Source\PSoC4/key_touch_Structure.c ****         {
 198              		.loc 1 781 0
 199 003a 0C23     		mov	r3, #12
 200 003c 0CE0     		b	.L17
 201              	.LVL15:
 202              	.L20:
 783:Generated_Source\PSoC4/key_touch_Structure.c ****                 
 203              		.loc 1 783 0
 204 003e A268     		ldr	r2, [r4, #8]
 205              	.LVL16:
 785:Generated_Source\PSoC4/key_touch_Structure.c ****             {
 206              		.loc 1 785 0
 207 0040 E38A     		ldrh	r3, [r4, #22]
 208              	.LVL17:
 209 0042 04E0     		b	.L18
 210              	.LVL18:
 211              	.L19:
 787:Generated_Source\PSoC4/key_touch_Structure.c ****                 ptrIdacInit++;
 212              		.loc 1 787 0
 213 0044 0B78     		ldrb	r3, [r1]
 214 0046 5372     		strb	r3, [r2, #9]
 788:Generated_Source\PSoC4/key_touch_Structure.c ****                 
 215              		.loc 1 788 0
 216 0048 0131     		add	r1, r1, #1
 217              	.LVL19:
 798:Generated_Source\PSoC4/key_touch_Structure.c ****             }
 218              		.loc 1 798 0
 219 004a 0A32     		add	r2, r2, #10
 220              	.LVL20:
 785:Generated_Source\PSoC4/key_touch_Structure.c ****             {
 221              		.loc 1 785 0
 222 004c 031C     		mov	r3, r0
 223              	.LVL21:
 224              	.L18:
 785:Generated_Source\PSoC4/key_touch_Structure.c ****             {
 225              		.loc 1 785 0 is_stmt 0 discriminator 1
 226 004e 581E     		sub	r0, r3, #1
 227              	.LVL22:
 228 0050 002B     		cmp	r3, #0
 229 0052 F7D1     		bne	.L19
 801:Generated_Source\PSoC4/key_touch_Structure.c ****         }
 230              		.loc 1 801 0 is_stmt 1
 231 0054 2034     		add	r4, r4, #32
 232              	.LVL23:
 781:Generated_Source\PSoC4/key_touch_Structure.c ****         {
 233              		.loc 1 781 0
 234 0056 2B1C     		mov	r3, r5
 235              	.LVL24:
 236              	.L17:
 781:Generated_Source\PSoC4/key_touch_Structure.c ****         {
 237              		.loc 1 781 0 is_stmt 0 discriminator 1
 238 0058 5D1E     		sub	r5, r3, #1
 239              	.LVL25:
 240 005a 002B     		cmp	r3, #0
 241 005c EFD1     		bne	.L20
 808:Generated_Source\PSoC4/key_touch_Structure.c **** 
 242              		.loc 1 808 0 is_stmt 1
ARM GAS  C:\Users\Administrator\AppData\Local\Temp\ccCs3Dc2.s 			page 23


 243              		@ sp needed
 244              	.LVL26:
 245              	.LVL27:
 246 005e 38BD     		pop	{r3, r4, r5, pc}
 247              	.L22:
 248              		.align	2
 249              	.L21:
 250 0060 00000000 		.word	key_touch_dsRam
 251 0064 C6EEFFFF 		.word	-4410
 252 0068 80010000 		.word	.LANCHOR1
 253 006c 00000000 		.word	.LANCHOR0
 254              		.cfi_endproc
 255              	.LFE1:
 256              		.size	key_touch_DsInitialize, .-key_touch_DsInitialize
 257              		.section	.text.key_touch_GetParam,"ax",%progbits
 258              		.align	2
 259              		.global	key_touch_GetParam
 260              		.code	16
 261              		.thumb_func
 262              		.type	key_touch_GetParam, %function
 263              	key_touch_GetParam:
 264              	.LFB3:
 987:Generated_Source\PSoC4/key_touch_Structure.c **** 
 988:Generated_Source\PSoC4/key_touch_Structure.c **** /*******************************************************************************
 989:Generated_Source\PSoC4/key_touch_Structure.c **** * Function Name: key_touch_GetParam
 990:Generated_Source\PSoC4/key_touch_Structure.c **** ****************************************************************************//**
 991:Generated_Source\PSoC4/key_touch_Structure.c **** *
 992:Generated_Source\PSoC4/key_touch_Structure.c **** * \brief
 993:Generated_Source\PSoC4/key_touch_Structure.c **** *  Gets the specified parameter value from the \ref group_structures.
 994:Generated_Source\PSoC4/key_touch_Structure.c **** *
 995:Generated_Source\PSoC4/key_touch_Structure.c **** * \details
 996:Generated_Source\PSoC4/key_touch_Structure.c **** *  This function gets the value of the specified parameter by the paramId 
 997:Generated_Source\PSoC4/key_touch_Structure.c **** *  argument. The paramId for each register is available in the 
 998:Generated_Source\PSoC4/key_touch_Structure.c **** *  key_touch RegisterMap header file as 
 999:Generated_Source\PSoC4/key_touch_Structure.c **** *  key_touch_<ParameterName>_PARAM_ID. The paramId is a special 
1000:Generated_Source\PSoC4/key_touch_Structure.c **** *  enumerated value generated by the customizer. The format of paramId is as 
1001:Generated_Source\PSoC4/key_touch_Structure.c **** *  follows:
1002:Generated_Source\PSoC4/key_touch_Structure.c **** *    1. [ byte 3 byte 2 byte 1 byte 0 ] 
1003:Generated_Source\PSoC4/key_touch_Structure.c **** *    2. [ TTWFCCCC UIIIIIII MMMMMMMM LLLLLLLL ]
1004:Generated_Source\PSoC4/key_touch_Structure.c **** *    3. T - encodes the parameter type:
1005:Generated_Source\PSoC4/key_touch_Structure.c **** *      - 01b: uint8
1006:Generated_Source\PSoC4/key_touch_Structure.c **** *      - 10b: uint16
1007:Generated_Source\PSoC4/key_touch_Structure.c **** *      - 11b: uint32
1008:Generated_Source\PSoC4/key_touch_Structure.c **** *    4. W - indicates whether the parameter is writable:
1009:Generated_Source\PSoC4/key_touch_Structure.c **** *      - 0: ReadOnly
1010:Generated_Source\PSoC4/key_touch_Structure.c **** *      - 1: Read/Write
1011:Generated_Source\PSoC4/key_touch_Structure.c **** *    5. C - 4 bit CRC (X^3 + 1) of the whole paramId word, the C bits are 
1012:Generated_Source\PSoC4/key_touch_Structure.c **** *       filled with 0s when the CRC is calculated.
1013:Generated_Source\PSoC4/key_touch_Structure.c **** *    6. U - indicates if the parameter affects the RAM Widget Object CRC.
1014:Generated_Source\PSoC4/key_touch_Structure.c **** *    7. I - specifies that the widgetID parameter belongs to
1015:Generated_Source\PSoC4/key_touch_Structure.c **** *    8. M,L - the parameter offset MSB and LSB accordingly in:
1016:Generated_Source\PSoC4/key_touch_Structure.c **** *      - Flash Data Structure if W bit is 0.
1017:Generated_Source\PSoC4/key_touch_Structure.c **** *      - RAM Data Structure if W bit is 1.
1018:Generated_Source\PSoC4/key_touch_Structure.c **** *
1019:Generated_Source\PSoC4/key_touch_Structure.c **** *  Refer to the \ref group_structures section for details of the data structure 
1020:Generated_Source\PSoC4/key_touch_Structure.c **** *  organization and examples of its register access.
1021:Generated_Source\PSoC4/key_touch_Structure.c **** *
ARM GAS  C:\Users\Administrator\AppData\Local\Temp\ccCs3Dc2.s 			page 24


1022:Generated_Source\PSoC4/key_touch_Structure.c **** * \param  paramId 
1023:Generated_Source\PSoC4/key_touch_Structure.c **** *  Specify the ID of parameter to get its value.
1024:Generated_Source\PSoC4/key_touch_Structure.c **** *  A macro for the parameter ID can be found in the key_touch RegisterMap header 
1025:Generated_Source\PSoC4/key_touch_Structure.c **** *  file defined as key_touch_<ParameterName>_PARAM_ID.
1026:Generated_Source\PSoC4/key_touch_Structure.c **** *
1027:Generated_Source\PSoC4/key_touch_Structure.c **** * \param  value   
1028:Generated_Source\PSoC4/key_touch_Structure.c **** *  The pointer to a variable that should be updated with the got value.
1029:Generated_Source\PSoC4/key_touch_Structure.c **** *
1030:Generated_Source\PSoC4/key_touch_Structure.c **** * \return
1031:Generated_Source\PSoC4/key_touch_Structure.c **** *  Returns the status of operation:
1032:Generated_Source\PSoC4/key_touch_Structure.c **** *    - CYRET_SUCCESS if the operation is successfully completed.
1033:Generated_Source\PSoC4/key_touch_Structure.c **** *    - CYRET_BAD_PARAM if the input parameter is invalid. 
1034:Generated_Source\PSoC4/key_touch_Structure.c **** *
1035:Generated_Source\PSoC4/key_touch_Structure.c **** *******************************************************************************/
1036:Generated_Source\PSoC4/key_touch_Structure.c **** cystatus key_touch_GetParam(uint32 paramId, uint32 *value)
1037:Generated_Source\PSoC4/key_touch_Structure.c **** {
 265              		.loc 1 1037 0
 266              		.cfi_startproc
 267              	.LVL28:
 268 0000 30B5     		push	{r4, r5, lr}
 269              		.cfi_def_cfa_offset 12
 270              		.cfi_offset 4, -12
 271              		.cfi_offset 5, -8
 272              		.cfi_offset 14, -4
 273 0002 83B0     		sub	sp, sp, #12
 274              		.cfi_def_cfa_offset 24
 275 0004 0D1C     		mov	r5, r1
1038:Generated_Source\PSoC4/key_touch_Structure.c ****     PARAM_ID_STRUCT pData;
1039:Generated_Source\PSoC4/key_touch_Structure.c ****     cystatus result;
1040:Generated_Source\PSoC4/key_touch_Structure.c ****     
1041:Generated_Source\PSoC4/key_touch_Structure.c ****     union
1042:Generated_Source\PSoC4/key_touch_Structure.c ****     {
1043:Generated_Source\PSoC4/key_touch_Structure.c ****         volatile void   const * ptr;
1044:Generated_Source\PSoC4/key_touch_Structure.c ****         volatile uint8  const * ptrUint8;
1045:Generated_Source\PSoC4/key_touch_Structure.c ****         volatile uint16 const * ptrUint16;
1046:Generated_Source\PSoC4/key_touch_Structure.c ****         volatile uint32 const * ptrUint32;
1047:Generated_Source\PSoC4/key_touch_Structure.c ****     } ptrData;
1048:Generated_Source\PSoC4/key_touch_Structure.c ****     
1049:Generated_Source\PSoC4/key_touch_Structure.c ****     result = DsParseParamId(paramId, &pData);
 276              		.loc 1 1049 0
 277 0006 6946     		mov	r1, sp
 278              	.LVL29:
 279 0008 FFF7FEFF 		bl	DsParseParamId
 280              	.LVL30:
 281 000c 041E     		sub	r4, r0, #0
 282              	.LVL31:
1050:Generated_Source\PSoC4/key_touch_Structure.c ****     
1051:Generated_Source\PSoC4/key_touch_Structure.c ****     /* Parse and validate paramId */
1052:Generated_Source\PSoC4/key_touch_Structure.c ****     if (CYRET_SUCCESS == result)
 283              		.loc 1 1052 0
 284 000e 1FD1     		bne	.L24
1053:Generated_Source\PSoC4/key_touch_Structure.c ****     {
1054:Generated_Source\PSoC4/key_touch_Structure.c ****         /* Get base address of parameter */
1055:Generated_Source\PSoC4/key_touch_Structure.c ****         if (0u == pData.flash)
 285              		.loc 1 1055 0
 286 0010 6B46     		mov	r3, sp
 287 0012 5B79     		ldrb	r3, [r3, #5]
ARM GAS  C:\Users\Administrator\AppData\Local\Temp\ccCs3Dc2.s 			page 25


 288 0014 002B     		cmp	r3, #0
 289 0016 01D1     		bne	.L25
1056:Generated_Source\PSoC4/key_touch_Structure.c ****         {
1057:Generated_Source\PSoC4/key_touch_Structure.c ****             ptrData.ptr = &key_touch_dsRam;
 290              		.loc 1 1057 0
 291 0018 0F4A     		ldr	r2, .L30
 292              	.LVL32:
 293 001a 02E0     		b	.L26
 294              	.L25:
1058:Generated_Source\PSoC4/key_touch_Structure.c ****         }
1059:Generated_Source\PSoC4/key_touch_Structure.c ****         else
1060:Generated_Source\PSoC4/key_touch_Structure.c ****         {
1061:Generated_Source\PSoC4/key_touch_Structure.c ****             ptrData.ptr = &key_touch_dsFlash;
 295              		.loc 1 1061 0
 296 001c 0F4B     		ldr	r3, .L30+4
 297              	.LVL33:
 298 001e 0C33     		add	r3, r3, #12
 299              	.LVL34:
 300 0020 1A1C     		mov	r2, r3
 301              	.L26:
1062:Generated_Source\PSoC4/key_touch_Structure.c ****         }
1063:Generated_Source\PSoC4/key_touch_Structure.c ****         
1064:Generated_Source\PSoC4/key_touch_Structure.c ****         /* Add offset to base address */
1065:Generated_Source\PSoC4/key_touch_Structure.c ****         ptrData.ptrUint8 += pData.offset;
 302              		.loc 1 1065 0
 303 0022 6B46     		mov	r3, sp
 304              	.LVL35:
 305 0024 1B88     		ldrh	r3, [r3]
 306              	.LVL36:
 307 0026 D318     		add	r3, r2, r3
1066:Generated_Source\PSoC4/key_touch_Structure.c ****         
1067:Generated_Source\PSoC4/key_touch_Structure.c ****         /* Read data */
1068:Generated_Source\PSoC4/key_touch_Structure.c ****         if (DS_PARAM_TYPE_UINT8 == pData.type)
 308              		.loc 1 1068 0
 309 0028 6A46     		mov	r2, sp
 310              	.LVL37:
 311 002a D279     		ldrb	r2, [r2, #7]
 312 002c 012A     		cmp	r2, #1
 313 002e 02D1     		bne	.L27
1069:Generated_Source\PSoC4/key_touch_Structure.c ****         {
1070:Generated_Source\PSoC4/key_touch_Structure.c ****             *value = (uint32) (*ptrData.ptrUint8);
 314              		.loc 1 1070 0
 315 0030 1B78     		ldrb	r3, [r3]
 316 0032 2B60     		str	r3, [r5]
 317 0034 0CE0     		b	.L24
 318              	.L27:
1071:Generated_Source\PSoC4/key_touch_Structure.c ****         }
1072:Generated_Source\PSoC4/key_touch_Structure.c ****         else if (DS_PARAM_TYPE_UINT16 == pData.type)
 319              		.loc 1 1072 0
 320 0036 022A     		cmp	r2, #2
 321 0038 02D1     		bne	.L28
1073:Generated_Source\PSoC4/key_touch_Structure.c ****         {
1074:Generated_Source\PSoC4/key_touch_Structure.c ****             *value = (uint32) (*ptrData.ptrUint16);
 322              		.loc 1 1074 0
 323 003a 1B88     		ldrh	r3, [r3]
 324 003c 2B60     		str	r3, [r5]
 325 003e 07E0     		b	.L24
ARM GAS  C:\Users\Administrator\AppData\Local\Temp\ccCs3Dc2.s 			page 26


 326              	.L28:
1075:Generated_Source\PSoC4/key_touch_Structure.c ****         }
1076:Generated_Source\PSoC4/key_touch_Structure.c ****         else if (DS_PARAM_TYPE_UINT32 == pData.type)
 327              		.loc 1 1076 0
 328 0040 032A     		cmp	r2, #3
 329 0042 02D1     		bne	.L29
1077:Generated_Source\PSoC4/key_touch_Structure.c ****         {
1078:Generated_Source\PSoC4/key_touch_Structure.c ****             *value = *ptrData.ptrUint32;
 330              		.loc 1 1078 0
 331 0044 1B68     		ldr	r3, [r3]
 332 0046 2B60     		str	r3, [r5]
 333 0048 02E0     		b	.L24
 334              	.L29:
1079:Generated_Source\PSoC4/key_touch_Structure.c ****         }
1080:Generated_Source\PSoC4/key_touch_Structure.c ****         else
1081:Generated_Source\PSoC4/key_touch_Structure.c ****         {
1082:Generated_Source\PSoC4/key_touch_Structure.c ****             /* Parameter comes here already validated. */
1083:Generated_Source\PSoC4/key_touch_Structure.c ****             CYASSERT(0u);
 335              		.loc 1 1083 0 discriminator 1
 336 004a 0020     		mov	r0, #0
 337              	.LVL38:
 338 004c FFF7FEFF 		bl	CyHalt
 339              	.LVL39:
 340              	.L24:
1084:Generated_Source\PSoC4/key_touch_Structure.c ****         }
1085:Generated_Source\PSoC4/key_touch_Structure.c ****     }
1086:Generated_Source\PSoC4/key_touch_Structure.c ****     
1087:Generated_Source\PSoC4/key_touch_Structure.c ****     return result;
1088:Generated_Source\PSoC4/key_touch_Structure.c **** }
 341              		.loc 1 1088 0
 342 0050 201C     		mov	r0, r4
 343 0052 03B0     		add	sp, sp, #12
 344              		@ sp needed
 345              	.LVL40:
 346              	.LVL41:
 347 0054 30BD     		pop	{r4, r5, pc}
 348              	.L31:
 349 0056 C046     		.align	2
 350              	.L30:
 351 0058 00000000 		.word	key_touch_dsRam
 352 005c 00000000 		.word	.LANCHOR0
 353              		.cfi_endproc
 354              	.LFE3:
 355              		.size	key_touch_GetParam, .-key_touch_GetParam
 356              		.section	.text.key_touch_SetParam,"ax",%progbits
 357              		.align	2
 358              		.global	key_touch_SetParam
 359              		.code	16
 360              		.thumb_func
 361              		.type	key_touch_SetParam, %function
 362              	key_touch_SetParam:
 363              	.LFB4:
1089:Generated_Source\PSoC4/key_touch_Structure.c **** 
1090:Generated_Source\PSoC4/key_touch_Structure.c **** 
1091:Generated_Source\PSoC4/key_touch_Structure.c **** /*******************************************************************************
1092:Generated_Source\PSoC4/key_touch_Structure.c **** * Function Name: key_touch_SetParam
1093:Generated_Source\PSoC4/key_touch_Structure.c **** ****************************************************************************//**
ARM GAS  C:\Users\Administrator\AppData\Local\Temp\ccCs3Dc2.s 			page 27


1094:Generated_Source\PSoC4/key_touch_Structure.c **** *
1095:Generated_Source\PSoC4/key_touch_Structure.c **** * \brief
1096:Generated_Source\PSoC4/key_touch_Structure.c **** *  Sets a new value for the specified parameter in the \ref group_structures.
1097:Generated_Source\PSoC4/key_touch_Structure.c **** *
1098:Generated_Source\PSoC4/key_touch_Structure.c **** * \details
1099:Generated_Source\PSoC4/key_touch_Structure.c **** *  This function sets the value of the specified parameter by the paramId 
1100:Generated_Source\PSoC4/key_touch_Structure.c **** *  argument. The paramId for each register is available in the 
1101:Generated_Source\PSoC4/key_touch_Structure.c **** *  key_touch RegisterMap header file as 
1102:Generated_Source\PSoC4/key_touch_Structure.c **** *  key_touch_<ParameterName>_PARAM_ID. The paramId is a special 
1103:Generated_Source\PSoC4/key_touch_Structure.c **** *  enumerated value generated by the customizer. The format of paramId is as 
1104:Generated_Source\PSoC4/key_touch_Structure.c **** *  follows:
1105:Generated_Source\PSoC4/key_touch_Structure.c **** *    1. [ byte 3 byte 2 byte 1 byte 0 ] 
1106:Generated_Source\PSoC4/key_touch_Structure.c **** *    2. [ TTWFCCCC UIIIIIII MMMMMMMM LLLLLLLL ]
1107:Generated_Source\PSoC4/key_touch_Structure.c **** *    3. T - encodes the parameter type:
1108:Generated_Source\PSoC4/key_touch_Structure.c **** *      - 01b: uint8
1109:Generated_Source\PSoC4/key_touch_Structure.c **** *      - 10b: uint16
1110:Generated_Source\PSoC4/key_touch_Structure.c **** *      - 11b: uint32
1111:Generated_Source\PSoC4/key_touch_Structure.c **** *    4. W - indicates whether the parameter is writable:
1112:Generated_Source\PSoC4/key_touch_Structure.c **** *      - 0: ReadOnly
1113:Generated_Source\PSoC4/key_touch_Structure.c **** *      - 1: Read/Write
1114:Generated_Source\PSoC4/key_touch_Structure.c **** *    5. C - 4 bit CRC (X^3 + 1) of the whole paramId word, the C bits are 
1115:Generated_Source\PSoC4/key_touch_Structure.c **** *       filled with 0s when the CRC is calculated.
1116:Generated_Source\PSoC4/key_touch_Structure.c **** *    6. U - indicates if the parameter affects the RAM Widget Object CRC.
1117:Generated_Source\PSoC4/key_touch_Structure.c **** *    7. I - specifies that the widgetID parameter belongs to
1118:Generated_Source\PSoC4/key_touch_Structure.c **** *    8. M,L - the parameter offset MSB and LSB accordingly in:
1119:Generated_Source\PSoC4/key_touch_Structure.c **** *      - Flash Data Structure if W bit is 0.
1120:Generated_Source\PSoC4/key_touch_Structure.c **** *      - RAM Data Structure if W bit is 1.
1121:Generated_Source\PSoC4/key_touch_Structure.c **** *
1122:Generated_Source\PSoC4/key_touch_Structure.c **** *  Refer to the \ref group_structures section for details of the data structure 
1123:Generated_Source\PSoC4/key_touch_Structure.c **** *  organization and examples of its register access.
1124:Generated_Source\PSoC4/key_touch_Structure.c **** *
1125:Generated_Source\PSoC4/key_touch_Structure.c **** * \param paramId  
1126:Generated_Source\PSoC4/key_touch_Structure.c **** *  Specify the ID of parameter to set its value.
1127:Generated_Source\PSoC4/key_touch_Structure.c **** *  A macro for the parameter ID can be found in the key_touch RegisterMap header
1128:Generated_Source\PSoC4/key_touch_Structure.c **** *  file defined as key_touch_<ParameterName>_PARAM_ID.
1129:Generated_Source\PSoC4/key_touch_Structure.c **** 
1130:Generated_Source\PSoC4/key_touch_Structure.c **** * \param value    
1131:Generated_Source\PSoC4/key_touch_Structure.c **** *  Specify the new parameter's value.
1132:Generated_Source\PSoC4/key_touch_Structure.c **** *
1133:Generated_Source\PSoC4/key_touch_Structure.c **** * \return
1134:Generated_Source\PSoC4/key_touch_Structure.c **** *  Returns the status of operation:
1135:Generated_Source\PSoC4/key_touch_Structure.c **** *    - CYRET_SUCCESS if the operation is successfully completed.
1136:Generated_Source\PSoC4/key_touch_Structure.c **** *    - CYRET_BAD_PARAM if the input parameter is invalid. 
1137:Generated_Source\PSoC4/key_touch_Structure.c **** *
1138:Generated_Source\PSoC4/key_touch_Structure.c **** *******************************************************************************/
1139:Generated_Source\PSoC4/key_touch_Structure.c **** cystatus key_touch_SetParam(uint32 paramId, uint32 value)
1140:Generated_Source\PSoC4/key_touch_Structure.c **** {
 364              		.loc 1 1140 0
 365              		.cfi_startproc
 366              	.LVL42:
 367 0000 30B5     		push	{r4, r5, lr}
 368              		.cfi_def_cfa_offset 12
 369              		.cfi_offset 4, -12
 370              		.cfi_offset 5, -8
 371              		.cfi_offset 14, -4
 372 0002 83B0     		sub	sp, sp, #12
 373              		.cfi_def_cfa_offset 24
ARM GAS  C:\Users\Administrator\AppData\Local\Temp\ccCs3Dc2.s 			page 28


 374 0004 0D1C     		mov	r5, r1
1141:Generated_Source\PSoC4/key_touch_Structure.c ****     cystatus result;
1142:Generated_Source\PSoC4/key_touch_Structure.c ****     PARAM_ID_STRUCT pData;
1143:Generated_Source\PSoC4/key_touch_Structure.c ****     
1144:Generated_Source\PSoC4/key_touch_Structure.c ****     union
1145:Generated_Source\PSoC4/key_touch_Structure.c ****     {
1146:Generated_Source\PSoC4/key_touch_Structure.c ****         volatile void   * ptr;
1147:Generated_Source\PSoC4/key_touch_Structure.c ****         volatile uint8  * ptrUint8;
1148:Generated_Source\PSoC4/key_touch_Structure.c ****         volatile uint16 * ptrUint16;
1149:Generated_Source\PSoC4/key_touch_Structure.c ****         volatile uint32 * ptrUint32;
1150:Generated_Source\PSoC4/key_touch_Structure.c ****     } ptrData;
1151:Generated_Source\PSoC4/key_touch_Structure.c ****     
1152:Generated_Source\PSoC4/key_touch_Structure.c ****     result = DsParseParamId(paramId, &pData);
 375              		.loc 1 1152 0
 376 0006 6946     		mov	r1, sp
 377              	.LVL43:
 378 0008 FFF7FEFF 		bl	DsParseParamId
 379              	.LVL44:
 380 000c 041E     		sub	r4, r0, #0
 381              	.LVL45:
1153:Generated_Source\PSoC4/key_touch_Structure.c ****     
1154:Generated_Source\PSoC4/key_touch_Structure.c ****     /* verify if parameter is writable */
1155:Generated_Source\PSoC4/key_touch_Structure.c ****     if (CYRET_SUCCESS == result)
 382              		.loc 1 1155 0
 383 000e 04D1     		bne	.L33
1156:Generated_Source\PSoC4/key_touch_Structure.c ****     {
1157:Generated_Source\PSoC4/key_touch_Structure.c ****         if (0u == pData.rw)
 384              		.loc 1 1157 0
 385 0010 6B46     		mov	r3, sp
 386 0012 9B79     		ldrb	r3, [r3, #6]
 387 0014 002B     		cmp	r3, #0
 388 0016 00D1     		bne	.L33
1158:Generated_Source\PSoC4/key_touch_Structure.c ****         {
1159:Generated_Source\PSoC4/key_touch_Structure.c ****             result = CYRET_BAD_PARAM;
 389              		.loc 1 1159 0
 390 0018 0134     		add	r4, r4, #1
 391              	.L33:
 392              	.LVL46:
1160:Generated_Source\PSoC4/key_touch_Structure.c ****         }
1161:Generated_Source\PSoC4/key_touch_Structure.c ****     }
1162:Generated_Source\PSoC4/key_touch_Structure.c ****     
1163:Generated_Source\PSoC4/key_touch_Structure.c ****     /* Parse and validate paramId */
1164:Generated_Source\PSoC4/key_touch_Structure.c ****     if (CYRET_SUCCESS == result)
 393              		.loc 1 1164 0
 394 001a 002C     		cmp	r4, #0
 395 001c 16D1     		bne	.L34
1165:Generated_Source\PSoC4/key_touch_Structure.c ****     {
1166:Generated_Source\PSoC4/key_touch_Structure.c ****         /* Get base address of parameter */
1167:Generated_Source\PSoC4/key_touch_Structure.c ****         ptrData.ptr = &key_touch_dsRam;
1168:Generated_Source\PSoC4/key_touch_Structure.c ****         
1169:Generated_Source\PSoC4/key_touch_Structure.c ****         /* Add offset to base address */
1170:Generated_Source\PSoC4/key_touch_Structure.c ****         ptrData.ptrUint8 += pData.offset;
 396              		.loc 1 1170 0
 397 001e 6B46     		mov	r3, sp
 398 0020 1A88     		ldrh	r2, [r3]
 399 0022 0C4B     		ldr	r3, .L39
 400 0024 D318     		add	r3, r2, r3
ARM GAS  C:\Users\Administrator\AppData\Local\Temp\ccCs3Dc2.s 			page 29


1171:Generated_Source\PSoC4/key_touch_Structure.c ****         
1172:Generated_Source\PSoC4/key_touch_Structure.c ****         /* Write data */
1173:Generated_Source\PSoC4/key_touch_Structure.c ****         if (DS_PARAM_TYPE_UINT8 == pData.type)
 401              		.loc 1 1173 0
 402 0026 6A46     		mov	r2, sp
 403 0028 D279     		ldrb	r2, [r2, #7]
 404 002a 012A     		cmp	r2, #1
 405 002c 02D1     		bne	.L35
1174:Generated_Source\PSoC4/key_touch_Structure.c ****         {
1175:Generated_Source\PSoC4/key_touch_Structure.c ****             *ptrData.ptrUint8 = LO8(value);
 406              		.loc 1 1175 0
 407 002e EDB2     		uxtb	r5, r5
 408              	.LVL47:
 409 0030 1D70     		strb	r5, [r3]
 410 0032 0BE0     		b	.L34
 411              	.LVL48:
 412              	.L35:
1176:Generated_Source\PSoC4/key_touch_Structure.c ****         }
1177:Generated_Source\PSoC4/key_touch_Structure.c ****         else if (DS_PARAM_TYPE_UINT16 == pData.type)
 413              		.loc 1 1177 0
 414 0034 022A     		cmp	r2, #2
 415 0036 02D1     		bne	.L36
1178:Generated_Source\PSoC4/key_touch_Structure.c ****         {
1179:Generated_Source\PSoC4/key_touch_Structure.c ****             *ptrData.ptrUint16 = LO16(value);
 416              		.loc 1 1179 0
 417 0038 ADB2     		uxth	r5, r5
 418              	.LVL49:
 419 003a 1D80     		strh	r5, [r3]
 420 003c 06E0     		b	.L34
 421              	.LVL50:
 422              	.L36:
1180:Generated_Source\PSoC4/key_touch_Structure.c ****         }
1181:Generated_Source\PSoC4/key_touch_Structure.c ****         else if (DS_PARAM_TYPE_UINT32 == pData.type)
 423              		.loc 1 1181 0
 424 003e 032A     		cmp	r2, #3
 425 0040 01D1     		bne	.L37
1182:Generated_Source\PSoC4/key_touch_Structure.c ****         {
1183:Generated_Source\PSoC4/key_touch_Structure.c ****             *ptrData.ptrUint32 = value;
 426              		.loc 1 1183 0
 427 0042 1D60     		str	r5, [r3]
 428 0044 02E0     		b	.L34
 429              	.L37:
1184:Generated_Source\PSoC4/key_touch_Structure.c ****         }
1185:Generated_Source\PSoC4/key_touch_Structure.c ****         else
1186:Generated_Source\PSoC4/key_touch_Structure.c ****         {
1187:Generated_Source\PSoC4/key_touch_Structure.c ****             /* Parameter comes here already validated. */
1188:Generated_Source\PSoC4/key_touch_Structure.c ****             CYASSERT(0u);
 430              		.loc 1 1188 0 discriminator 1
 431 0046 0020     		mov	r0, #0
 432 0048 FFF7FEFF 		bl	CyHalt
 433              	.LVL51:
 434              	.L34:
1189:Generated_Source\PSoC4/key_touch_Structure.c ****         }
1190:Generated_Source\PSoC4/key_touch_Structure.c ****         
1191:Generated_Source\PSoC4/key_touch_Structure.c ****         #if (key_touch_ENABLE == (key_touch_TST_WDGT_CRC_EN || key_touch_TST_GLOBAL_CRC_EN))
1192:Generated_Source\PSoC4/key_touch_Structure.c ****             /* Update widget or global CRC if self-test is enabled and parameter affects it */
1193:Generated_Source\PSoC4/key_touch_Structure.c ****             if (0u != pData.affectsCrc)
ARM GAS  C:\Users\Administrator\AppData\Local\Temp\ccCs3Dc2.s 			page 30


1194:Generated_Source\PSoC4/key_touch_Structure.c ****             {
1195:Generated_Source\PSoC4/key_touch_Structure.c ****                 if ((ptrData.ptrUint16 >= &key_touch_dsRam.csd0Config) &&
1196:Generated_Source\PSoC4/key_touch_Structure.c ****                     (ptrData.ptrUint16 <  &key_touch_dsRam.glbCrc))
1197:Generated_Source\PSoC4/key_touch_Structure.c ****                 {
1198:Generated_Source\PSoC4/key_touch_Structure.c ****                     
1199:Generated_Source\PSoC4/key_touch_Structure.c ****                     #if (key_touch_ENABLE == key_touch_TST_GLOBAL_CRC_EN)
1200:Generated_Source\PSoC4/key_touch_Structure.c ****                         key_touch_DsUpdateGlobalCrc();
1201:Generated_Source\PSoC4/key_touch_Structure.c ****                     #endif /* (key_touch_ENABLE == key_touch_TST_GLOBAL_CRC_EN) */
1202:Generated_Source\PSoC4/key_touch_Structure.c **** 
1203:Generated_Source\PSoC4/key_touch_Structure.c ****                 }
1204:Generated_Source\PSoC4/key_touch_Structure.c ****                 else
1205:Generated_Source\PSoC4/key_touch_Structure.c ****                 {
1206:Generated_Source\PSoC4/key_touch_Structure.c ****                     #if (key_touch_ENABLE == key_touch_TST_WDGT_CRC_EN)
1207:Generated_Source\PSoC4/key_touch_Structure.c ****                         key_touch_DsUpdateWidgetCrc((uint32)pData.widgetId);
1208:Generated_Source\PSoC4/key_touch_Structure.c ****                     #endif /* (key_touch_ENABLE == key_touch_TST_WDGT_CRC_EN) */
1209:Generated_Source\PSoC4/key_touch_Structure.c ****                 }
1210:Generated_Source\PSoC4/key_touch_Structure.c ****             }
1211:Generated_Source\PSoC4/key_touch_Structure.c ****         #endif /* (key_touch_ENABLE == (key_touch_TST_WDGT_CRC_EN || key_touch_TST_GLOBAL_CRC_EN)) 
1212:Generated_Source\PSoC4/key_touch_Structure.c ****     }
1213:Generated_Source\PSoC4/key_touch_Structure.c ****     
1214:Generated_Source\PSoC4/key_touch_Structure.c ****     return result;
1215:Generated_Source\PSoC4/key_touch_Structure.c **** }
 435              		.loc 1 1215 0
 436 004c 201C     		mov	r0, r4
 437 004e 03B0     		add	sp, sp, #12
 438              		@ sp needed
 439              	.LVL52:
 440 0050 30BD     		pop	{r4, r5, pc}
 441              	.L40:
 442 0052 C046     		.align	2
 443              	.L39:
 444 0054 00000000 		.word	key_touch_dsRam
 445              		.cfi_endproc
 446              	.LFE4:
 447              		.size	key_touch_SetParam, .-key_touch_SetParam
 448              		.section	.text.key_touch_IsAnyWidgetActive,"ax",%progbits
 449              		.align	2
 450              		.global	key_touch_IsAnyWidgetActive
 451              		.code	16
 452              		.thumb_func
 453              		.type	key_touch_IsAnyWidgetActive, %function
 454              	key_touch_IsAnyWidgetActive:
 455              	.LFB5:
1216:Generated_Source\PSoC4/key_touch_Structure.c **** 
1217:Generated_Source\PSoC4/key_touch_Structure.c **** /*******************************************************************************
1218:Generated_Source\PSoC4/key_touch_Structure.c **** * Function Name: key_touch_IsAnyWidgetActive
1219:Generated_Source\PSoC4/key_touch_Structure.c **** ****************************************************************************//**
1220:Generated_Source\PSoC4/key_touch_Structure.c **** *
1221:Generated_Source\PSoC4/key_touch_Structure.c **** * \brief
1222:Generated_Source\PSoC4/key_touch_Structure.c **** *  Reports if any widget has detected a touch.
1223:Generated_Source\PSoC4/key_touch_Structure.c **** *
1224:Generated_Source\PSoC4/key_touch_Structure.c **** * \details
1225:Generated_Source\PSoC4/key_touch_Structure.c **** *  This function reports if any widget has detected a touch or not by extracting 
1226:Generated_Source\PSoC4/key_touch_Structure.c **** *  the information from the wdgtStatus registers 
1227:Generated_Source\PSoC4/key_touch_Structure.c **** *  (key_touch_WDGT_STATUS<X>_VALUE). This function does not process any 
1228:Generated_Source\PSoC4/key_touch_Structure.c **** *  widget but extracts the processed results from the \ref group_structures.
1229:Generated_Source\PSoC4/key_touch_Structure.c **** *
ARM GAS  C:\Users\Administrator\AppData\Local\Temp\ccCs3Dc2.s 			page 31


1230:Generated_Source\PSoC4/key_touch_Structure.c **** * \return 
1231:Generated_Source\PSoC4/key_touch_Structure.c **** *   Returns the touch detection status of all widgets:
1232:Generated_Source\PSoC4/key_touch_Structure.c **** *     - Zero if no touch is detected in all widgets or sensors.
1233:Generated_Source\PSoC4/key_touch_Structure.c **** *     - Non-zero if at least one widget or sensor detected a touch.
1234:Generated_Source\PSoC4/key_touch_Structure.c **** *
1235:Generated_Source\PSoC4/key_touch_Structure.c **** *******************************************************************************/
1236:Generated_Source\PSoC4/key_touch_Structure.c **** uint32 key_touch_IsAnyWidgetActive(void)
1237:Generated_Source\PSoC4/key_touch_Structure.c **** {
 456              		.loc 1 1237 0
 457              		.cfi_startproc
 458              	.LVL53:
1238:Generated_Source\PSoC4/key_touch_Structure.c ****     uint32 result = 0Lu;
1239:Generated_Source\PSoC4/key_touch_Structure.c ****     uint32 wdWord;
1240:Generated_Source\PSoC4/key_touch_Structure.c ****     
1241:Generated_Source\PSoC4/key_touch_Structure.c ****     for (wdWord = key_touch_WDGT_STATUS_WORDS; wdWord-- > 0u;)
 459              		.loc 1 1241 0
 460 0000 0123     		mov	r3, #1
1238:Generated_Source\PSoC4/key_touch_Structure.c ****     uint32 result = 0Lu;
 461              		.loc 1 1238 0
 462 0002 0020     		mov	r0, #0
 463              		.loc 1 1241 0
 464 0004 05E0     		b	.L42
 465              	.LVL54:
 466              	.L43:
1242:Generated_Source\PSoC4/key_touch_Structure.c ****     {
1243:Generated_Source\PSoC4/key_touch_Structure.c ****         result |= key_touch_dsRam.wdgtStatus[wdWord];
 467              		.loc 1 1243 0
 468 0006 131D     		add	r3, r2, #4
 469 0008 9B00     		lsl	r3, r3, #2
 470 000a 0449     		ldr	r1, .L44
 471 000c 5B58     		ldr	r3, [r3, r1]
 472 000e 1843     		orr	r0, r3
 473              	.LVL55:
1241:Generated_Source\PSoC4/key_touch_Structure.c ****     {
 474              		.loc 1 1241 0
 475 0010 131C     		mov	r3, r2
 476              	.LVL56:
 477              	.L42:
1241:Generated_Source\PSoC4/key_touch_Structure.c ****     {
 478              		.loc 1 1241 0 is_stmt 0 discriminator 1
 479 0012 5A1E     		sub	r2, r3, #1
 480              	.LVL57:
 481 0014 002B     		cmp	r3, #0
 482 0016 F6D1     		bne	.L43
1244:Generated_Source\PSoC4/key_touch_Structure.c ****     }
1245:Generated_Source\PSoC4/key_touch_Structure.c ****     
1246:Generated_Source\PSoC4/key_touch_Structure.c ****     return result;
1247:Generated_Source\PSoC4/key_touch_Structure.c **** }
 483              		.loc 1 1247 0 is_stmt 1
 484              		@ sp needed
 485 0018 7047     		bx	lr
 486              	.L45:
 487 001a C046     		.align	2
 488              	.L44:
 489 001c 00000000 		.word	key_touch_dsRam
 490              		.cfi_endproc
 491              	.LFE5:
ARM GAS  C:\Users\Administrator\AppData\Local\Temp\ccCs3Dc2.s 			page 32


 492              		.size	key_touch_IsAnyWidgetActive, .-key_touch_IsAnyWidgetActive
 493              		.section	.text.key_touch_IsWidgetActive,"ax",%progbits
 494              		.align	2
 495              		.global	key_touch_IsWidgetActive
 496              		.code	16
 497              		.thumb_func
 498              		.type	key_touch_IsWidgetActive, %function
 499              	key_touch_IsWidgetActive:
 500              	.LFB6:
1248:Generated_Source\PSoC4/key_touch_Structure.c **** 
1249:Generated_Source\PSoC4/key_touch_Structure.c **** 
1250:Generated_Source\PSoC4/key_touch_Structure.c **** /*******************************************************************************
1251:Generated_Source\PSoC4/key_touch_Structure.c **** * Function Name: key_touch_IsWidgetActive
1252:Generated_Source\PSoC4/key_touch_Structure.c **** ****************************************************************************//**
1253:Generated_Source\PSoC4/key_touch_Structure.c **** *
1254:Generated_Source\PSoC4/key_touch_Structure.c **** * \brief
1255:Generated_Source\PSoC4/key_touch_Structure.c **** *  Reports if the specified widget detects a touch on any of its sensors.
1256:Generated_Source\PSoC4/key_touch_Structure.c **** *
1257:Generated_Source\PSoC4/key_touch_Structure.c **** * \details
1258:Generated_Source\PSoC4/key_touch_Structure.c **** *  This function reports if the specified widget has detected a touch or not by 
1259:Generated_Source\PSoC4/key_touch_Structure.c **** *  extracting the information from the wdgtStatus registers 
1260:Generated_Source\PSoC4/key_touch_Structure.c **** *  (key_touch_WDGT_STATUS<X>_VALUE). This function does not process the 
1261:Generated_Source\PSoC4/key_touch_Structure.c **** *  widget, but extracts the processed results from the \ref group_structures.
1262:Generated_Source\PSoC4/key_touch_Structure.c **** *
1263:Generated_Source\PSoC4/key_touch_Structure.c **** * \param widgetId  
1264:Generated_Source\PSoC4/key_touch_Structure.c **** *  Specify the ID number of the widget to get its status.
1265:Generated_Source\PSoC4/key_touch_Structure.c **** *  A macro for the widget ID can be found in the key_touch Configuration header 
1266:Generated_Source\PSoC4/key_touch_Structure.c **** *  file defined as key_touch_<WidgetName>_WDGT_ID.
1267:Generated_Source\PSoC4/key_touch_Structure.c **** *
1268:Generated_Source\PSoC4/key_touch_Structure.c **** * \return 
1269:Generated_Source\PSoC4/key_touch_Structure.c **** *  Returns the touch detection status of the specified widgets:
1270:Generated_Source\PSoC4/key_touch_Structure.c **** *    - Zero if no touch is detected in the specified widget or a wrong widgetId
1271:Generated_Source\PSoC4/key_touch_Structure.c **** *      is specified
1272:Generated_Source\PSoC4/key_touch_Structure.c **** *    - Non-zero if at least one sensor of the specified widget is active i.e. 
1273:Generated_Source\PSoC4/key_touch_Structure.c **** *      touch is detected
1274:Generated_Source\PSoC4/key_touch_Structure.c **** *
1275:Generated_Source\PSoC4/key_touch_Structure.c **** *******************************************************************************/
1276:Generated_Source\PSoC4/key_touch_Structure.c **** uint32 key_touch_IsWidgetActive(uint32 widgetId)
1277:Generated_Source\PSoC4/key_touch_Structure.c **** {
 501              		.loc 1 1277 0
 502              		.cfi_startproc
 503              	.LVL58:
1278:Generated_Source\PSoC4/key_touch_Structure.c ****     uint32 result = 0Lu;
1279:Generated_Source\PSoC4/key_touch_Structure.c ****    
1280:Generated_Source\PSoC4/key_touch_Structure.c ****     if (widgetId < key_touch_TOTAL_WIDGETS)
 504              		.loc 1 1280 0
 505 0000 0B28     		cmp	r0, #11
 506 0002 0BD8     		bhi	.L48
1281:Generated_Source\PSoC4/key_touch_Structure.c ****     {
1282:Generated_Source\PSoC4/key_touch_Structure.c ****         result = key_touch_GET_WIDGET_ACTIVE_STATUS(widgetId);
 507              		.loc 1 1282 0
 508 0004 1F22     		mov	r2, #31
 509 0006 0240     		and	r2, r0
 510 0008 0123     		mov	r3, #1
 511 000a 9340     		lsl	r3, r3, r2
 512 000c 1A1C     		mov	r2, r3
 513 000e 4309     		lsr	r3, r0, #5
ARM GAS  C:\Users\Administrator\AppData\Local\Temp\ccCs3Dc2.s 			page 33


 514 0010 0433     		add	r3, r3, #4
 515 0012 9B00     		lsl	r3, r3, #2
 516 0014 0249     		ldr	r1, .L49
 517 0016 5858     		ldr	r0, [r3, r1]
 518              	.LVL59:
 519 0018 1040     		and	r0, r2
 520              	.LVL60:
 521 001a 00E0     		b	.L47
 522              	.LVL61:
 523              	.L48:
1278:Generated_Source\PSoC4/key_touch_Structure.c ****     uint32 result = 0Lu;
 524              		.loc 1 1278 0
 525 001c 0020     		mov	r0, #0
 526              	.LVL62:
 527              	.L47:
1283:Generated_Source\PSoC4/key_touch_Structure.c ****     }
1284:Generated_Source\PSoC4/key_touch_Structure.c ****     return result;
1285:Generated_Source\PSoC4/key_touch_Structure.c **** }
 528              		.loc 1 1285 0
 529              		@ sp needed
 530 001e 7047     		bx	lr
 531              	.L50:
 532              		.align	2
 533              	.L49:
 534 0020 00000000 		.word	key_touch_dsRam
 535              		.cfi_endproc
 536              	.LFE6:
 537              		.size	key_touch_IsWidgetActive, .-key_touch_IsWidgetActive
 538              		.section	.text.key_touch_IsSensorActive,"ax",%progbits
 539              		.align	2
 540              		.global	key_touch_IsSensorActive
 541              		.code	16
 542              		.thumb_func
 543              		.type	key_touch_IsSensorActive, %function
 544              	key_touch_IsSensorActive:
 545              	.LFB7:
1286:Generated_Source\PSoC4/key_touch_Structure.c **** 
1287:Generated_Source\PSoC4/key_touch_Structure.c **** 
1288:Generated_Source\PSoC4/key_touch_Structure.c **** /*******************************************************************************
1289:Generated_Source\PSoC4/key_touch_Structure.c **** * Function Name: key_touch_IsSensorActive
1290:Generated_Source\PSoC4/key_touch_Structure.c **** ****************************************************************************//**
1291:Generated_Source\PSoC4/key_touch_Structure.c **** *
1292:Generated_Source\PSoC4/key_touch_Structure.c **** * \brief
1293:Generated_Source\PSoC4/key_touch_Structure.c **** *  Reports if the specified sensor in the widget detects a touch.
1294:Generated_Source\PSoC4/key_touch_Structure.c **** *
1295:Generated_Source\PSoC4/key_touch_Structure.c **** * \details 
1296:Generated_Source\PSoC4/key_touch_Structure.c **** *  This function reports if the specified sensor in the widget has detected a 
1297:Generated_Source\PSoC4/key_touch_Structure.c **** *  touch or not by extracting the information from wdgtStatus registers 
1298:Generated_Source\PSoC4/key_touch_Structure.c **** *  (key_touch_WDGT_STATUS<X>_VALUE). This function does not process the
1299:Generated_Source\PSoC4/key_touch_Structure.c **** *  widget or sensor, but extracts the processed results from the \ref group_structures.
1300:Generated_Source\PSoC4/key_touch_Structure.c **** *   
1301:Generated_Source\PSoC4/key_touch_Structure.c **** *  For Proximity sensors this function returns proximity detection status. To 
1302:Generated_Source\PSoC4/key_touch_Structure.c **** *  get finger touch status of proximity sensors, use the 
1303:Generated_Source\PSoC4/key_touch_Structure.c **** *  key_touch_IsProximitySensorActive() function. 
1304:Generated_Source\PSoC4/key_touch_Structure.c **** *
1305:Generated_Source\PSoC4/key_touch_Structure.c **** * \param widgetId  
1306:Generated_Source\PSoC4/key_touch_Structure.c **** *  Specify the ID number of the widget.
ARM GAS  C:\Users\Administrator\AppData\Local\Temp\ccCs3Dc2.s 			page 34


1307:Generated_Source\PSoC4/key_touch_Structure.c **** *  A macro for the widget ID can be found in the key_touch Configuration header 
1308:Generated_Source\PSoC4/key_touch_Structure.c **** *  file defined as key_touch_<WidgetName>_WDGT_ID 
1309:Generated_Source\PSoC4/key_touch_Structure.c **** 
1310:Generated_Source\PSoC4/key_touch_Structure.c **** * \param sensorId  
1311:Generated_Source\PSoC4/key_touch_Structure.c **** *  Specify the ID number of the sensor within the widget to get its touch 
1312:Generated_Source\PSoC4/key_touch_Structure.c **** *  detection status.
1313:Generated_Source\PSoC4/key_touch_Structure.c **** *  A macro for the sensor ID within specified widget can be found in the 
1314:Generated_Source\PSoC4/key_touch_Structure.c **** *  key_touch Configuration header file defined as 
1315:Generated_Source\PSoC4/key_touch_Structure.c **** *  key_touch_<WidgetName>_SNS<SensorNumber>_ID 
1316:Generated_Source\PSoC4/key_touch_Structure.c **** *
1317:Generated_Source\PSoC4/key_touch_Structure.c **** * \return 
1318:Generated_Source\PSoC4/key_touch_Structure.c **** *  Returns the touch detection status of the specified sensor / widget:
1319:Generated_Source\PSoC4/key_touch_Structure.c **** *    - Zero if no touch is detected in the specified sensor / widget or a wrong
1320:Generated_Source\PSoC4/key_touch_Structure.c **** *      widget ID / sensor ID is specified
1321:Generated_Source\PSoC4/key_touch_Structure.c **** *    - Non-zero if the specified sensor is active i.e. touch is detected. If the
1322:Generated_Source\PSoC4/key_touch_Structure.c **** *      specific sensor belongs to a proximity widget, the proximity detection 
1323:Generated_Source\PSoC4/key_touch_Structure.c **** *      status is returned.
1324:Generated_Source\PSoC4/key_touch_Structure.c **** *
1325:Generated_Source\PSoC4/key_touch_Structure.c **** *******************************************************************************/
1326:Generated_Source\PSoC4/key_touch_Structure.c **** uint32 key_touch_IsSensorActive(uint32 widgetId, uint32 sensorId)
1327:Generated_Source\PSoC4/key_touch_Structure.c **** {
 546              		.loc 1 1327 0
 547              		.cfi_startproc
 548              	.LVL63:
1328:Generated_Source\PSoC4/key_touch_Structure.c ****     uint32 result = 0Lu;
1329:Generated_Source\PSoC4/key_touch_Structure.c ****     
1330:Generated_Source\PSoC4/key_touch_Structure.c ****     if ((widgetId < key_touch_TOTAL_WIDGETS) &&
 549              		.loc 1 1330 0
 550 0000 0B28     		cmp	r0, #11
 551 0002 0CD8     		bhi	.L53
1331:Generated_Source\PSoC4/key_touch_Structure.c ****         (sensorId < key_touch_GET_SENSOR_COUNT(widgetId)))
 552              		.loc 1 1331 0 discriminator 1
 553 0004 4301     		lsl	r3, r0, #5
 554 0006 084A     		ldr	r2, .L55
 555 0008 D318     		add	r3, r2, r3
 556 000a 5B8C     		ldrh	r3, [r3, #34]
1330:Generated_Source\PSoC4/key_touch_Structure.c ****         (sensorId < key_touch_GET_SENSOR_COUNT(widgetId)))
 557              		.loc 1 1330 0 discriminator 1
 558 000c 8B42     		cmp	r3, r1
 559 000e 08D9     		bls	.L54
1332:Generated_Source\PSoC4/key_touch_Structure.c ****     {
1333:Generated_Source\PSoC4/key_touch_Structure.c ****         #if (key_touch_ENABLE == key_touch_PROXIMITY_WIDGET_EN)
1334:Generated_Source\PSoC4/key_touch_Structure.c ****             if (key_touch_WD_PROXIMITY_E == 
1335:Generated_Source\PSoC4/key_touch_Structure.c **** 				(key_touch_WD_TYPE_ENUM)key_touch_dsFlash.wdgtArray[widgetId].wdgtType)
1336:Generated_Source\PSoC4/key_touch_Structure.c ****             {
1337:Generated_Source\PSoC4/key_touch_Structure.c ****                 sensorId = key_touch_PROX_STS_OFFSET(sensorId);
1338:Generated_Source\PSoC4/key_touch_Structure.c ****             }
1339:Generated_Source\PSoC4/key_touch_Structure.c ****         #endif /* (key_touch_ENABLE != key_touch_PROXIMITY_WIDGET_EN) */
1340:Generated_Source\PSoC4/key_touch_Structure.c ****         result = key_touch_dsRam.snsStatus[widgetId] & (1Lu << sensorId);
 560              		.loc 1 1340 0
 561 0010 064B     		ldr	r3, .L55+4
 562 0012 1818     		add	r0, r3, r0
 563              	.LVL64:
 564 0014 037D     		ldrb	r3, [r0, #20]
 565 0016 0120     		mov	r0, #1
 566 0018 8840     		lsl	r0, r0, r1
 567 001a 1840     		and	r0, r3
ARM GAS  C:\Users\Administrator\AppData\Local\Temp\ccCs3Dc2.s 			page 35


 568              	.LVL65:
 569 001c 02E0     		b	.L52
 570              	.LVL66:
 571              	.L53:
1328:Generated_Source\PSoC4/key_touch_Structure.c ****     
 572              		.loc 1 1328 0
 573 001e 0020     		mov	r0, #0
 574              	.LVL67:
 575 0020 00E0     		b	.L52
 576              	.LVL68:
 577              	.L54:
 578 0022 0020     		mov	r0, #0
 579              	.LVL69:
 580              	.L52:
1341:Generated_Source\PSoC4/key_touch_Structure.c ****     }
1342:Generated_Source\PSoC4/key_touch_Structure.c ****     
1343:Generated_Source\PSoC4/key_touch_Structure.c ****     return result;
1344:Generated_Source\PSoC4/key_touch_Structure.c **** }
 581              		.loc 1 1344 0
 582              		@ sp needed
 583 0024 7047     		bx	lr
 584              	.L56:
 585 0026 C046     		.align	2
 586              	.L55:
 587 0028 00000000 		.word	.LANCHOR0
 588 002c 00000000 		.word	key_touch_dsRam
 589              		.cfi_endproc
 590              	.LFE7:
 591              		.size	key_touch_IsSensorActive, .-key_touch_IsSensorActive
 592              		.global	key_touch_ioList
 593              		.global	key_touch_dsFlash
 594              		.comm	key_touch_dsRam,380,4
 595              		.section	.rodata
 596              		.align	2
 597              		.set	.LANCHOR0,. + 0
 598              		.set	.LANCHOR1,. + 384
 599              		.type	key_touch_ramIdacInit, %object
 600              		.size	key_touch_ramIdacInit, 12
 601              	key_touch_ramIdacInit:
 602 0000 20       		.byte	32
 603 0001 20       		.byte	32
 604 0002 20       		.byte	32
 605 0003 20       		.byte	32
 606 0004 20       		.byte	32
 607 0005 20       		.byte	32
 608 0006 20       		.byte	32
 609 0007 20       		.byte	32
 610 0008 20       		.byte	32
 611 0009 20       		.byte	32
 612 000a 20       		.byte	32
 613 000b 20       		.byte	32
 614              		.type	key_touch_dsFlash, %object
 615              		.size	key_touch_dsFlash, 384
 616              	key_touch_dsFlash:
 617 000c 00000000 		.word	key_touch_ioList
 618 0010 24000000 		.word	key_touch_dsRam+36
 619 0014 FC000000 		.word	key_touch_dsRam+252
ARM GAS  C:\Users\Administrator\AppData\Local\Temp\ccCs3Dc2.s 			page 36


 620 0018 00000000 		.word	0
 621 001c BC000000 		.word	key_touch_debounceButton0
 622 0020 0100     		.short	1
 623 0022 0100     		.short	1
 624 0024 01       		.byte	1
 625 0025 01       		.byte	1
 626 0026 0000     		.space	2
 627 0028 84000000 		.word	key_touch_noiseEnvlpButton0
 628 002c 1C000000 		.word	key_touch_ioList+28
 629 0030 36000000 		.word	key_touch_dsRam+54
 630 0034 06010000 		.word	key_touch_dsRam+262
 631 0038 00000000 		.word	0
 632 003c B8000000 		.word	key_touch_debounceButton1
 633 0040 0100     		.short	1
 634 0042 0100     		.short	1
 635 0044 01       		.byte	1
 636 0045 01       		.byte	1
 637 0046 0000     		.space	2
 638 0048 78000000 		.word	key_touch_noiseEnvlpButton1
 639 004c 38000000 		.word	key_touch_ioList+56
 640 0050 48000000 		.word	key_touch_dsRam+72
 641 0054 10010000 		.word	key_touch_dsRam+272
 642 0058 00000000 		.word	0
 643 005c B4000000 		.word	key_touch_debounceButton2
 644 0060 0100     		.short	1
 645 0062 0100     		.short	1
 646 0064 01       		.byte	1
 647 0065 01       		.byte	1
 648 0066 0000     		.space	2
 649 0068 6C000000 		.word	key_touch_noiseEnvlpButton2
 650 006c 54000000 		.word	key_touch_ioList+84
 651 0070 5A000000 		.word	key_touch_dsRam+90
 652 0074 1A010000 		.word	key_touch_dsRam+282
 653 0078 00000000 		.word	0
 654 007c B0000000 		.word	key_touch_debounceButton3
 655 0080 0100     		.short	1
 656 0082 0100     		.short	1
 657 0084 01       		.byte	1
 658 0085 01       		.byte	1
 659 0086 0000     		.space	2
 660 0088 60000000 		.word	key_touch_noiseEnvlpButton3
 661 008c 70000000 		.word	key_touch_ioList+112
 662 0090 6C000000 		.word	key_touch_dsRam+108
 663 0094 24010000 		.word	key_touch_dsRam+292
 664 0098 00000000 		.word	0
 665 009c AC000000 		.word	key_touch_debounceButton4
 666 00a0 0100     		.short	1
 667 00a2 0100     		.short	1
 668 00a4 01       		.byte	1
 669 00a5 01       		.byte	1
 670 00a6 0000     		.space	2
 671 00a8 54000000 		.word	key_touch_noiseEnvlpButton4
 672 00ac 8C000000 		.word	key_touch_ioList+140
 673 00b0 7E000000 		.word	key_touch_dsRam+126
 674 00b4 2E010000 		.word	key_touch_dsRam+302
 675 00b8 00000000 		.word	0
 676 00bc A8000000 		.word	key_touch_debounceButton5
ARM GAS  C:\Users\Administrator\AppData\Local\Temp\ccCs3Dc2.s 			page 37


 677 00c0 0100     		.short	1
 678 00c2 0100     		.short	1
 679 00c4 01       		.byte	1
 680 00c5 01       		.byte	1
 681 00c6 0000     		.space	2
 682 00c8 48000000 		.word	key_touch_noiseEnvlpButton5
 683 00cc A8000000 		.word	key_touch_ioList+168
 684 00d0 90000000 		.word	key_touch_dsRam+144
 685 00d4 38010000 		.word	key_touch_dsRam+312
 686 00d8 00000000 		.word	0
 687 00dc A4000000 		.word	key_touch_debounceButton6
 688 00e0 0100     		.short	1
 689 00e2 0100     		.short	1
 690 00e4 01       		.byte	1
 691 00e5 01       		.byte	1
 692 00e6 0000     		.space	2
 693 00e8 3C000000 		.word	key_touch_noiseEnvlpButton6
 694 00ec C4000000 		.word	key_touch_ioList+196
 695 00f0 A2000000 		.word	key_touch_dsRam+162
 696 00f4 42010000 		.word	key_touch_dsRam+322
 697 00f8 00000000 		.word	0
 698 00fc A0000000 		.word	key_touch_debounceButton7
 699 0100 0100     		.short	1
 700 0102 0100     		.short	1
 701 0104 01       		.byte	1
 702 0105 01       		.byte	1
 703 0106 0000     		.space	2
 704 0108 30000000 		.word	key_touch_noiseEnvlpButton7
 705 010c E0000000 		.word	key_touch_ioList+224
 706 0110 B4000000 		.word	key_touch_dsRam+180
 707 0114 4C010000 		.word	key_touch_dsRam+332
 708 0118 00000000 		.word	0
 709 011c 9C000000 		.word	key_touch_debounceButton8
 710 0120 0100     		.short	1
 711 0122 0100     		.short	1
 712 0124 01       		.byte	1
 713 0125 01       		.byte	1
 714 0126 0000     		.space	2
 715 0128 24000000 		.word	key_touch_noiseEnvlpButton8
 716 012c FC000000 		.word	key_touch_ioList+252
 717 0130 C6000000 		.word	key_touch_dsRam+198
 718 0134 56010000 		.word	key_touch_dsRam+342
 719 0138 00000000 		.word	0
 720 013c 98000000 		.word	key_touch_debounceButton9
 721 0140 0100     		.short	1
 722 0142 0100     		.short	1
 723 0144 01       		.byte	1
 724 0145 01       		.byte	1
 725 0146 0000     		.space	2
 726 0148 18000000 		.word	key_touch_noiseEnvlpButton9
 727 014c 18010000 		.word	key_touch_ioList+280
 728 0150 D8000000 		.word	key_touch_dsRam+216
 729 0154 60010000 		.word	key_touch_dsRam+352
 730 0158 00000000 		.word	0
 731 015c 94000000 		.word	key_touch_debounceButton10
 732 0160 0100     		.short	1
 733 0162 0100     		.short	1
ARM GAS  C:\Users\Administrator\AppData\Local\Temp\ccCs3Dc2.s 			page 38


 734 0164 01       		.byte	1
 735 0165 01       		.byte	1
 736 0166 0000     		.space	2
 737 0168 0C000000 		.word	key_touch_noiseEnvlpButton10
 738 016c 34010000 		.word	key_touch_ioList+308
 739 0170 EA000000 		.word	key_touch_dsRam+234
 740 0174 6A010000 		.word	key_touch_dsRam+362
 741 0178 00000000 		.word	0
 742 017c 90000000 		.word	key_touch_debounceButton11
 743 0180 0100     		.short	1
 744 0182 0100     		.short	1
 745 0184 01       		.byte	1
 746 0185 01       		.byte	1
 747 0186 0000     		.space	2
 748 0188 00000000 		.word	key_touch_noiseEnvlpButton11
 749              		.type	key_touch_ramWidgetInit, %object
 750              		.size	key_touch_ramWidgetInit, 216
 751              	key_touch_ramWidgetInit:
 752 018c 0C00     		.short	12
 753 018e 6400     		.short	100
 754 0190 28       		.byte	40
 755 0191 28       		.byte	40
 756 0192 0A       		.byte	10
 757 0193 03       		.byte	3
 758 0194 1E       		.byte	30
 759 0195 64       		.byte	100
 760 0196 20       		.byte	32
 761 0197 04       		.byte	4
 762 0198 00       		.byte	0
 763 0199 00       		.space	1
 764 019a A000     		.short	160
 765 019c 0000     		.short	0
 766 019e 0C00     		.short	12
 767 01a0 6400     		.short	100
 768 01a2 28       		.byte	40
 769 01a3 28       		.byte	40
 770 01a4 0A       		.byte	10
 771 01a5 03       		.byte	3
 772 01a6 1E       		.byte	30
 773 01a7 64       		.byte	100
 774 01a8 20       		.byte	32
 775 01a9 04       		.byte	4
 776 01aa 00       		.byte	0
 777 01ab 00       		.space	1
 778 01ac A000     		.short	160
 779 01ae 0000     		.short	0
 780 01b0 0C00     		.short	12
 781 01b2 6400     		.short	100
 782 01b4 28       		.byte	40
 783 01b5 28       		.byte	40
 784 01b6 0A       		.byte	10
 785 01b7 03       		.byte	3
 786 01b8 1E       		.byte	30
 787 01b9 64       		.byte	100
 788 01ba 20       		.byte	32
 789 01bb 04       		.byte	4
 790 01bc 00       		.byte	0
ARM GAS  C:\Users\Administrator\AppData\Local\Temp\ccCs3Dc2.s 			page 39


 791 01bd 00       		.space	1
 792 01be A000     		.short	160
 793 01c0 0000     		.short	0
 794 01c2 0C00     		.short	12
 795 01c4 6400     		.short	100
 796 01c6 28       		.byte	40
 797 01c7 28       		.byte	40
 798 01c8 0A       		.byte	10
 799 01c9 03       		.byte	3
 800 01ca 1E       		.byte	30
 801 01cb 64       		.byte	100
 802 01cc 20       		.byte	32
 803 01cd 04       		.byte	4
 804 01ce 00       		.byte	0
 805 01cf 00       		.space	1
 806 01d0 A000     		.short	160
 807 01d2 0000     		.short	0
 808 01d4 0C00     		.short	12
 809 01d6 6400     		.short	100
 810 01d8 28       		.byte	40
 811 01d9 28       		.byte	40
 812 01da 0A       		.byte	10
 813 01db 03       		.byte	3
 814 01dc 1E       		.byte	30
 815 01dd 64       		.byte	100
 816 01de 20       		.byte	32
 817 01df 04       		.byte	4
 818 01e0 00       		.byte	0
 819 01e1 00       		.space	1
 820 01e2 A000     		.short	160
 821 01e4 0000     		.short	0
 822 01e6 0C00     		.short	12
 823 01e8 6400     		.short	100
 824 01ea 28       		.byte	40
 825 01eb 28       		.byte	40
 826 01ec 0A       		.byte	10
 827 01ed 03       		.byte	3
 828 01ee 1E       		.byte	30
 829 01ef 64       		.byte	100
 830 01f0 20       		.byte	32
 831 01f1 04       		.byte	4
 832 01f2 00       		.byte	0
 833 01f3 00       		.space	1
 834 01f4 A000     		.short	160
 835 01f6 0000     		.short	0
 836 01f8 0C00     		.short	12
 837 01fa 6400     		.short	100
 838 01fc 28       		.byte	40
 839 01fd 28       		.byte	40
 840 01fe 0A       		.byte	10
 841 01ff 03       		.byte	3
 842 0200 1E       		.byte	30
 843 0201 64       		.byte	100
 844 0202 20       		.byte	32
 845 0203 04       		.byte	4
 846 0204 00       		.byte	0
 847 0205 00       		.space	1
ARM GAS  C:\Users\Administrator\AppData\Local\Temp\ccCs3Dc2.s 			page 40


 848 0206 A000     		.short	160
 849 0208 0000     		.short	0
 850 020a 0C00     		.short	12
 851 020c 6400     		.short	100
 852 020e 28       		.byte	40
 853 020f 28       		.byte	40
 854 0210 0A       		.byte	10
 855 0211 03       		.byte	3
 856 0212 1E       		.byte	30
 857 0213 64       		.byte	100
 858 0214 20       		.byte	32
 859 0215 04       		.byte	4
 860 0216 00       		.byte	0
 861 0217 00       		.space	1
 862 0218 A000     		.short	160
 863 021a 0000     		.short	0
 864 021c 0C00     		.short	12
 865 021e 6400     		.short	100
 866 0220 28       		.byte	40
 867 0221 28       		.byte	40
 868 0222 0A       		.byte	10
 869 0223 03       		.byte	3
 870 0224 1E       		.byte	30
 871 0225 64       		.byte	100
 872 0226 20       		.byte	32
 873 0227 04       		.byte	4
 874 0228 00       		.byte	0
 875 0229 00       		.space	1
 876 022a A000     		.short	160
 877 022c 0000     		.short	0
 878 022e 0C00     		.short	12
 879 0230 6400     		.short	100
 880 0232 28       		.byte	40
 881 0233 28       		.byte	40
 882 0234 0A       		.byte	10
 883 0235 03       		.byte	3
 884 0236 1E       		.byte	30
 885 0237 64       		.byte	100
 886 0238 20       		.byte	32
 887 0239 04       		.byte	4
 888 023a 00       		.byte	0
 889 023b 00       		.space	1
 890 023c A000     		.short	160
 891 023e 0000     		.short	0
 892 0240 0C00     		.short	12
 893 0242 6400     		.short	100
 894 0244 28       		.byte	40
 895 0245 28       		.byte	40
 896 0246 0A       		.byte	10
 897 0247 03       		.byte	3
 898 0248 1E       		.byte	30
 899 0249 64       		.byte	100
 900 024a 20       		.byte	32
 901 024b 04       		.byte	4
 902 024c 00       		.byte	0
 903 024d 00       		.space	1
 904 024e A000     		.short	160
ARM GAS  C:\Users\Administrator\AppData\Local\Temp\ccCs3Dc2.s 			page 41


 905 0250 0000     		.short	0
 906 0252 0C00     		.short	12
 907 0254 6400     		.short	100
 908 0256 28       		.byte	40
 909 0257 28       		.byte	40
 910 0258 0A       		.byte	10
 911 0259 03       		.byte	3
 912 025a 1E       		.byte	30
 913 025b 64       		.byte	100
 914 025c 20       		.byte	32
 915 025d 04       		.byte	4
 916 025e 00       		.byte	0
 917 025f 00       		.space	1
 918 0260 A000     		.short	160
 919 0262 0000     		.short	0
 920              		.type	key_touch_ioList, %object
 921              		.size	key_touch_ioList, 336
 922              	key_touch_ioList:
 923 0264 00000240 		.word	1073872896
 924 0268 08000440 		.word	1074003976
 925 026c 00000440 		.word	1074003968
 926 0270 04000440 		.word	1074003972
 927 0274 0F000000 		.word	15
 928 0278 01000000 		.word	1
 929 027c 00       		.byte	0
 930 027d 00       		.byte	0
 931 027e 00       		.byte	0
 932 027f 00       		.space	1
 933 0280 00000240 		.word	1073872896
 934 0284 08000440 		.word	1074003976
 935 0288 00000440 		.word	1074003968
 936 028c 04000440 		.word	1074003972
 937 0290 F0000000 		.word	240
 938 0294 02000000 		.word	2
 939 0298 04       		.byte	4
 940 0299 01       		.byte	1
 941 029a 03       		.byte	3
 942 029b 00       		.space	1
 943 029c 00000240 		.word	1073872896
 944 02a0 08000440 		.word	1074003976
 945 02a4 00000440 		.word	1074003968
 946 02a8 04000440 		.word	1074003972
 947 02ac 000F0000 		.word	3840
 948 02b0 04000000 		.word	4
 949 02b4 08       		.byte	8
 950 02b5 02       		.byte	2
 951 02b6 06       		.byte	6
 952 02b7 00       		.space	1
 953 02b8 00000240 		.word	1073872896
 954 02bc 08000440 		.word	1074003976
 955 02c0 00000440 		.word	1074003968
 956 02c4 04000440 		.word	1074003972
 957 02c8 00F00000 		.word	61440
 958 02cc 08000000 		.word	8
 959 02d0 0C       		.byte	12
 960 02d1 03       		.byte	3
 961 02d2 09       		.byte	9
ARM GAS  C:\Users\Administrator\AppData\Local\Temp\ccCs3Dc2.s 			page 42


 962 02d3 00       		.space	1
 963 02d4 00040240 		.word	1073873920
 964 02d8 08040440 		.word	1074005000
 965 02dc 00040440 		.word	1074004992
 966 02e0 04040440 		.word	1074004996
 967 02e4 0F000000 		.word	15
 968 02e8 01000000 		.word	1
 969 02ec 00       		.byte	0
 970 02ed 00       		.byte	0
 971 02ee 00       		.byte	0
 972 02ef 00       		.space	1
 973 02f0 00030240 		.word	1073873664
 974 02f4 08030440 		.word	1074004744
 975 02f8 00030440 		.word	1074004736
 976 02fc 04030440 		.word	1074004740
 977 0300 F0000000 		.word	240
 978 0304 02000000 		.word	2
 979 0308 04       		.byte	4
 980 0309 01       		.byte	1
 981 030a 03       		.byte	3
 982 030b 00       		.space	1
 983 030c 00020240 		.word	1073873408
 984 0310 08020440 		.word	1074004488
 985 0314 00020440 		.word	1074004480
 986 0318 04020440 		.word	1074004484
 987 031c 000F0000 		.word	3840
 988 0320 04000000 		.word	4
 989 0324 08       		.byte	8
 990 0325 02       		.byte	2
 991 0326 06       		.byte	6
 992 0327 00       		.space	1
 993 0328 00020240 		.word	1073873408
 994 032c 08020440 		.word	1074004488
 995 0330 00020440 		.word	1074004480
 996 0334 04020440 		.word	1074004484
 997 0338 00F00000 		.word	61440
 998 033c 08000000 		.word	8
 999 0340 0C       		.byte	12
 1000 0341 03       		.byte	3
 1001 0342 09       		.byte	9
 1002 0343 00       		.space	1
 1003 0344 00020240 		.word	1073873408
 1004 0348 08020440 		.word	1074004488
 1005 034c 00020440 		.word	1074004480
 1006 0350 04020440 		.word	1074004484
 1007 0354 0000F000 		.word	15728640
 1008 0358 20000000 		.word	32
 1009 035c 14       		.byte	20
 1010 035d 05       		.byte	5
 1011 035e 0F       		.byte	15
 1012 035f 00       		.space	1
 1013 0360 00020240 		.word	1073873408
 1014 0364 08020440 		.word	1074004488
 1015 0368 00020440 		.word	1074004480
 1016 036c 04020440 		.word	1074004484
 1017 0370 0000000F 		.word	251658240
 1018 0374 40000000 		.word	64
ARM GAS  C:\Users\Administrator\AppData\Local\Temp\ccCs3Dc2.s 			page 43


 1019 0378 18       		.byte	24
 1020 0379 06       		.byte	6
 1021 037a 12       		.byte	18
 1022 037b 00       		.space	1
 1023 037c 00020240 		.word	1073873408
 1024 0380 08020440 		.word	1074004488
 1025 0384 00020440 		.word	1074004480
 1026 0388 04020440 		.word	1074004484
 1027 038c 000000F0 		.word	-268435456
 1028 0390 80000000 		.word	128
 1029 0394 1C       		.byte	28
 1030 0395 07       		.byte	7
 1031 0396 15       		.byte	21
 1032 0397 00       		.space	1
 1033 0398 00030240 		.word	1073873664
 1034 039c 08030440 		.word	1074004744
 1035 03a0 00030440 		.word	1074004736
 1036 03a4 04030440 		.word	1074004740
 1037 03a8 0F000000 		.word	15
 1038 03ac 01000000 		.word	1
 1039 03b0 00       		.byte	0
 1040 03b1 00       		.byte	0
 1041 03b2 00       		.byte	0
 1042 03b3 00       		.space	1
 1043              		.bss
 1044              		.align	2
 1045              		.type	key_touch_noiseEnvlpButton11, %object
 1046              		.size	key_touch_noiseEnvlpButton11, 12
 1047              	key_touch_noiseEnvlpButton11:
 1048 0000 00000000 		.space	12
 1048      00000000 
 1048      00000000 
 1049              		.type	key_touch_noiseEnvlpButton10, %object
 1050              		.size	key_touch_noiseEnvlpButton10, 12
 1051              	key_touch_noiseEnvlpButton10:
 1052 000c 00000000 		.space	12
 1052      00000000 
 1052      00000000 
 1053              		.type	key_touch_noiseEnvlpButton9, %object
 1054              		.size	key_touch_noiseEnvlpButton9, 12
 1055              	key_touch_noiseEnvlpButton9:
 1056 0018 00000000 		.space	12
 1056      00000000 
 1056      00000000 
 1057              		.type	key_touch_noiseEnvlpButton8, %object
 1058              		.size	key_touch_noiseEnvlpButton8, 12
 1059              	key_touch_noiseEnvlpButton8:
 1060 0024 00000000 		.space	12
 1060      00000000 
 1060      00000000 
 1061              		.type	key_touch_noiseEnvlpButton7, %object
 1062              		.size	key_touch_noiseEnvlpButton7, 12
 1063              	key_touch_noiseEnvlpButton7:
 1064 0030 00000000 		.space	12
 1064      00000000 
 1064      00000000 
 1065              		.type	key_touch_noiseEnvlpButton6, %object
ARM GAS  C:\Users\Administrator\AppData\Local\Temp\ccCs3Dc2.s 			page 44


 1066              		.size	key_touch_noiseEnvlpButton6, 12
 1067              	key_touch_noiseEnvlpButton6:
 1068 003c 00000000 		.space	12
 1068      00000000 
 1068      00000000 
 1069              		.type	key_touch_noiseEnvlpButton5, %object
 1070              		.size	key_touch_noiseEnvlpButton5, 12
 1071              	key_touch_noiseEnvlpButton5:
 1072 0048 00000000 		.space	12
 1072      00000000 
 1072      00000000 
 1073              		.type	key_touch_noiseEnvlpButton4, %object
 1074              		.size	key_touch_noiseEnvlpButton4, 12
 1075              	key_touch_noiseEnvlpButton4:
 1076 0054 00000000 		.space	12
 1076      00000000 
 1076      00000000 
 1077              		.type	key_touch_noiseEnvlpButton3, %object
 1078              		.size	key_touch_noiseEnvlpButton3, 12
 1079              	key_touch_noiseEnvlpButton3:
 1080 0060 00000000 		.space	12
 1080      00000000 
 1080      00000000 
 1081              		.type	key_touch_noiseEnvlpButton2, %object
 1082              		.size	key_touch_noiseEnvlpButton2, 12
 1083              	key_touch_noiseEnvlpButton2:
 1084 006c 00000000 		.space	12
 1084      00000000 
 1084      00000000 
 1085              		.type	key_touch_noiseEnvlpButton1, %object
 1086              		.size	key_touch_noiseEnvlpButton1, 12
 1087              	key_touch_noiseEnvlpButton1:
 1088 0078 00000000 		.space	12
 1088      00000000 
 1088      00000000 
 1089              		.type	key_touch_noiseEnvlpButton0, %object
 1090              		.size	key_touch_noiseEnvlpButton0, 12
 1091              	key_touch_noiseEnvlpButton0:
 1092 0084 00000000 		.space	12
 1092      00000000 
 1092      00000000 
 1093              		.type	key_touch_debounceButton11, %object
 1094              		.size	key_touch_debounceButton11, 1
 1095              	key_touch_debounceButton11:
 1096 0090 00       		.space	1
 1097 0091 000000   		.space	3
 1098              		.type	key_touch_debounceButton10, %object
 1099              		.size	key_touch_debounceButton10, 1
 1100              	key_touch_debounceButton10:
 1101 0094 00       		.space	1
 1102 0095 000000   		.space	3
 1103              		.type	key_touch_debounceButton9, %object
 1104              		.size	key_touch_debounceButton9, 1
 1105              	key_touch_debounceButton9:
 1106 0098 00       		.space	1
 1107 0099 000000   		.space	3
 1108              		.type	key_touch_debounceButton8, %object
ARM GAS  C:\Users\Administrator\AppData\Local\Temp\ccCs3Dc2.s 			page 45


 1109              		.size	key_touch_debounceButton8, 1
 1110              	key_touch_debounceButton8:
 1111 009c 00       		.space	1
 1112 009d 000000   		.space	3
 1113              		.type	key_touch_debounceButton7, %object
 1114              		.size	key_touch_debounceButton7, 1
 1115              	key_touch_debounceButton7:
 1116 00a0 00       		.space	1
 1117 00a1 000000   		.space	3
 1118              		.type	key_touch_debounceButton6, %object
 1119              		.size	key_touch_debounceButton6, 1
 1120              	key_touch_debounceButton6:
 1121 00a4 00       		.space	1
 1122 00a5 000000   		.space	3
 1123              		.type	key_touch_debounceButton5, %object
 1124              		.size	key_touch_debounceButton5, 1
 1125              	key_touch_debounceButton5:
 1126 00a8 00       		.space	1
 1127 00a9 000000   		.space	3
 1128              		.type	key_touch_debounceButton4, %object
 1129              		.size	key_touch_debounceButton4, 1
 1130              	key_touch_debounceButton4:
 1131 00ac 00       		.space	1
 1132 00ad 000000   		.space	3
 1133              		.type	key_touch_debounceButton3, %object
 1134              		.size	key_touch_debounceButton3, 1
 1135              	key_touch_debounceButton3:
 1136 00b0 00       		.space	1
 1137 00b1 000000   		.space	3
 1138              		.type	key_touch_debounceButton2, %object
 1139              		.size	key_touch_debounceButton2, 1
 1140              	key_touch_debounceButton2:
 1141 00b4 00       		.space	1
 1142 00b5 000000   		.space	3
 1143              		.type	key_touch_debounceButton1, %object
 1144              		.size	key_touch_debounceButton1, 1
 1145              	key_touch_debounceButton1:
 1146 00b8 00       		.space	1
 1147 00b9 000000   		.space	3
 1148              		.type	key_touch_debounceButton0, %object
 1149              		.size	key_touch_debounceButton0, 1
 1150              	key_touch_debounceButton0:
 1151 00bc 00       		.space	1
 1152 00bd 000000   		.text
 1153              	.Letext0:
 1154              		.file 2 "Generated_Source\\PSoC4/cytypes.h"
 1155              		.file 3 "Generated_Source\\PSoC4\\key_touch_Configuration.h"
 1156              		.file 4 "Generated_Source\\PSoC4\\key_touch_SmartSense_LL.h"
 1157              		.file 5 "Generated_Source\\PSoC4\\key_touch_Structure.h"
 1158              		.file 6 "Generated_Source\\PSoC4\\CyLib.h"