ARM GAS  C:\Users\Administrator\AppData\Local\Temp\ccrG5N5m.s 			page 1


   1              		.cpu cortex-m0plus
   2              		.fpu softvfp
   3              		.eabi_attribute 20, 1
   4              		.eabi_attribute 21, 1
   5              		.eabi_attribute 23, 3
   6              		.eabi_attribute 24, 1
   7              		.eabi_attribute 25, 1
   8              		.eabi_attribute 26, 1
   9              		.eabi_attribute 30, 1
  10              		.eabi_attribute 34, 0
  11              		.eabi_attribute 18, 4
  12              		.code	16
  13              		.file	"key_touch_Filter.c"
  14              		.text
  15              	.Ltext0:
  16              		.cfi_sections	.debug_frame
  17              		.section	.text.key_touch_FtInitialize,"ax",%progbits
  18              		.align	2
  19              		.global	key_touch_FtInitialize
  20              		.code	16
  21              		.thumb_func
  22              		.type	key_touch_FtInitialize, %function
  23              	key_touch_FtInitialize:
  24              	.LFB1:
  25              		.file 1 "Generated_Source\\PSoC4\\key_touch_Filter.c"
   1:Generated_Source\PSoC4/key_touch_Filter.c **** /***************************************************************************//**
   2:Generated_Source\PSoC4/key_touch_Filter.c **** * \file     key_touch_Filter.c
   3:Generated_Source\PSoC4/key_touch_Filter.c **** * \version  3.10
   4:Generated_Source\PSoC4/key_touch_Filter.c **** *
   5:Generated_Source\PSoC4/key_touch_Filter.c **** * \brief    This file contains the implementation source code to implement all 
   6:Generated_Source\PSoC4/key_touch_Filter.c **** *           firmware filters.
   7:Generated_Source\PSoC4/key_touch_Filter.c **** *
   8:Generated_Source\PSoC4/key_touch_Filter.c **** * \see      CapSense P4 v3.10 Datasheet
   9:Generated_Source\PSoC4/key_touch_Filter.c **** * 
  10:Generated_Source\PSoC4/key_touch_Filter.c **** *//*****************************************************************************
  11:Generated_Source\PSoC4/key_touch_Filter.c **** * Copyright (2016), Cypress Semiconductor Corporation.
  12:Generated_Source\PSoC4/key_touch_Filter.c **** ********************************************************************************
  13:Generated_Source\PSoC4/key_touch_Filter.c **** * This software is owned by Cypress Semiconductor Corporation (Cypress) and is
  14:Generated_Source\PSoC4/key_touch_Filter.c **** * protected by and subject to worldwide patent protection (United States and
  15:Generated_Source\PSoC4/key_touch_Filter.c **** * foreign), United States copyright laws and international treaty provisions.
  16:Generated_Source\PSoC4/key_touch_Filter.c **** * Cypress hereby grants to licensee a personal, non-exclusive, non-transferable
  17:Generated_Source\PSoC4/key_touch_Filter.c **** * license to copy, use, modify, create derivative works of, and compile the
  18:Generated_Source\PSoC4/key_touch_Filter.c **** * Cypress Source Code and derivative works for the sole purpose of creating
  19:Generated_Source\PSoC4/key_touch_Filter.c **** * custom software in support of licensee product to be used only in conjunction
  20:Generated_Source\PSoC4/key_touch_Filter.c **** * with a Cypress integrated circuit as specified in the applicable agreement.
  21:Generated_Source\PSoC4/key_touch_Filter.c **** * Any reproduction, modification, translation, compilation, or representation of
  22:Generated_Source\PSoC4/key_touch_Filter.c **** * this software except as specified above is prohibited without the express
  23:Generated_Source\PSoC4/key_touch_Filter.c **** * written permission of Cypress.
  24:Generated_Source\PSoC4/key_touch_Filter.c **** *
  25:Generated_Source\PSoC4/key_touch_Filter.c **** * Disclaimer: CYPRESS MAKES NO WARRANTY OF ANY KIND, EXPRESS OR IMPLIED, WITH
  26:Generated_Source\PSoC4/key_touch_Filter.c **** * REGARD TO THIS MATERIAL, INCLUDING, BUT NOT LIMITED TO, THE IMPLIED
  27:Generated_Source\PSoC4/key_touch_Filter.c **** * WARRANTIES OF MERCHANTABILITY AND FITNESS FOR A PARTICULAR PURPOSE.
  28:Generated_Source\PSoC4/key_touch_Filter.c **** * Cypress reserves the right to make changes without further notice to the
  29:Generated_Source\PSoC4/key_touch_Filter.c **** * materials described herein. Cypress does not assume any liability arising out
  30:Generated_Source\PSoC4/key_touch_Filter.c **** * of the application or use of any product or circuit described herein. Cypress
  31:Generated_Source\PSoC4/key_touch_Filter.c **** * does not authorize its products for use as critical components in life-support
  32:Generated_Source\PSoC4/key_touch_Filter.c **** * systems where a malfunction or failure may reasonably be expected to result in
ARM GAS  C:\Users\Administrator\AppData\Local\Temp\ccrG5N5m.s 			page 2


  33:Generated_Source\PSoC4/key_touch_Filter.c **** * significant injury to the user. The inclusion of Cypress' product in a life-
  34:Generated_Source\PSoC4/key_touch_Filter.c **** * support systems application implies that the manufacturer assumes all risk of
  35:Generated_Source\PSoC4/key_touch_Filter.c **** * such use and in doing so indemnifies Cypress against all charges. Use may be
  36:Generated_Source\PSoC4/key_touch_Filter.c **** * limited by and subject to the applicable Cypress software license agreement.
  37:Generated_Source\PSoC4/key_touch_Filter.c **** *******************************************************************************/
  38:Generated_Source\PSoC4/key_touch_Filter.c **** 
  39:Generated_Source\PSoC4/key_touch_Filter.c **** #include "key_touch_Filter.h"
  40:Generated_Source\PSoC4/key_touch_Filter.c **** #include "key_touch_Configuration.h"
  41:Generated_Source\PSoC4/key_touch_Filter.c **** 
  42:Generated_Source\PSoC4/key_touch_Filter.c **** #if (0 != (key_touch_CSD_AUTOTUNE & key_touch_CSD_SS_TH_EN))
  43:Generated_Source\PSoC4/key_touch_Filter.c ****     #include "key_touch_SmartSense_LL.h"
  44:Generated_Source\PSoC4/key_touch_Filter.c **** #endif /* (0 != (key_touch_CSD_AUTOTUNE & key_touch_CSD_SS_TH_EN)) */
  45:Generated_Source\PSoC4/key_touch_Filter.c **** 
  46:Generated_Source\PSoC4/key_touch_Filter.c **** #if (key_touch_ENABLE == key_touch_SELF_TEST_EN)
  47:Generated_Source\PSoC4/key_touch_Filter.c ****     #include "key_touch_SelfTest.h"
  48:Generated_Source\PSoC4/key_touch_Filter.c **** #endif
  49:Generated_Source\PSoC4/key_touch_Filter.c **** 
  50:Generated_Source\PSoC4/key_touch_Filter.c **** /*******************************************************************************
  51:Generated_Source\PSoC4/key_touch_Filter.c **** * Function Name: key_touch_FtInitialize
  52:Generated_Source\PSoC4/key_touch_Filter.c **** ****************************************************************************//**
  53:Generated_Source\PSoC4/key_touch_Filter.c **** *
  54:Generated_Source\PSoC4/key_touch_Filter.c **** * \brief
  55:Generated_Source\PSoC4/key_touch_Filter.c **** *    Initializes all the firmware filter history, except the baseline filter.
  56:Generated_Source\PSoC4/key_touch_Filter.c **** *
  57:Generated_Source\PSoC4/key_touch_Filter.c **** * \details
  58:Generated_Source\PSoC4/key_touch_Filter.c **** *    Initializes all the firmware filter history, except the baseline filter.
  59:Generated_Source\PSoC4/key_touch_Filter.c **** *
  60:Generated_Source\PSoC4/key_touch_Filter.c **** *******************************************************************************/
  61:Generated_Source\PSoC4/key_touch_Filter.c **** void key_touch_FtInitialize(void)
  62:Generated_Source\PSoC4/key_touch_Filter.c **** {
  26              		.loc 1 62 0
  27              		.cfi_startproc
  28 0000 F8B5     		push	{r3, r4, r5, r6, r7, lr}
  29              		.cfi_def_cfa_offset 24
  30              		.cfi_offset 3, -24
  31              		.cfi_offset 4, -20
  32              		.cfi_offset 5, -16
  33              		.cfi_offset 6, -12
  34              		.cfi_offset 7, -8
  35              		.cfi_offset 14, -4
  36              	.LVL0:
  63:Generated_Source\PSoC4/key_touch_Filter.c ****     uint32 widgetId;
  64:Generated_Source\PSoC4/key_touch_Filter.c ****     uint32 sensorId;
  65:Generated_Source\PSoC4/key_touch_Filter.c ****     uint32 sensorsNumber;
  66:Generated_Source\PSoC4/key_touch_Filter.c **** 
  67:Generated_Source\PSoC4/key_touch_Filter.c ****     key_touch_FLASH_WD_STRUCT const *ptrWidget;
  68:Generated_Source\PSoC4/key_touch_Filter.c ****     key_touch_RAM_SNS_STRUCT *ptrSensor = NULL;
  69:Generated_Source\PSoC4/key_touch_Filter.c ****     key_touch_PTR_FILTER_VARIANT ptrFilterHistObj;
  70:Generated_Source\PSoC4/key_touch_Filter.c ****     
  71:Generated_Source\PSoC4/key_touch_Filter.c ****     #if key_touch_CSD_AUTOTUNE & key_touch_CSD_SS_TH_EN
  72:Generated_Source\PSoC4/key_touch_Filter.c ****         key_touch_RAM_WD_BASE_STRUCT *ptrWidgetRam;
  73:Generated_Source\PSoC4/key_touch_Filter.c ****         SMARTSENSE_CSD_NOISE_ENVELOPE_STRUCT *ptrNoiseEnvelope = NULL;
  74:Generated_Source\PSoC4/key_touch_Filter.c ****     #endif /* #if key_touch_CSD_AUTOTUNE & key_touch_CSD_SS_TH_EN */
  75:Generated_Source\PSoC4/key_touch_Filter.c ****     
  76:Generated_Source\PSoC4/key_touch_Filter.c ****     for (widgetId = key_touch_TOTAL_WIDGETS; widgetId-- > 0u;)
  37              		.loc 1 76 0
  38 0002 0C23     		mov	r3, #12
ARM GAS  C:\Users\Administrator\AppData\Local\Temp\ccrG5N5m.s 			page 3


  39 0004 1AE0     		b	.L2
  40              	.LVL1:
  41              	.L5:
  77:Generated_Source\PSoC4/key_touch_Filter.c ****     {
  78:Generated_Source\PSoC4/key_touch_Filter.c ****         ptrWidget = &key_touch_dsFlash.wdgtArray[widgetId];
  79:Generated_Source\PSoC4/key_touch_Filter.c ****         
  80:Generated_Source\PSoC4/key_touch_Filter.c ****         #if key_touch_CSD_AUTOTUNE & key_touch_CSD_SS_TH_EN
  81:Generated_Source\PSoC4/key_touch_Filter.c ****             ptrWidgetRam = ptrWidget->ptr2WdgtRam;
  42              		.loc 1 81 0
  43 0006 6B01     		lsl	r3, r5, #5
  44 0008 0E4A     		ldr	r2, .L6
  45 000a D318     		add	r3, r2, r3
  46              	.LVL2:
  47 000c 5E68     		ldr	r6, [r3, #4]
  48              	.LVL3:
  82:Generated_Source\PSoC4/key_touch_Filter.c ****         #endif /* #if key_touch_CSD_AUTOTUNE & key_touch_CSD_SS_TH_EN */
  83:Generated_Source\PSoC4/key_touch_Filter.c **** 
  84:Generated_Source\PSoC4/key_touch_Filter.c ****         /* Find total amount of sensors in specified widget */   
  85:Generated_Source\PSoC4/key_touch_Filter.c ****         sensorsNumber = key_touch_GET_SNS_CNT_BY_PTR(ptrWidget);    
  49              		.loc 1 85 0
  50 000e DB8A     		ldrh	r3, [r3, #22]
  51              	.LVL4:
  86:Generated_Source\PSoC4/key_touch_Filter.c ****     
  87:Generated_Source\PSoC4/key_touch_Filter.c ****         for (sensorId = sensorsNumber; sensorId-- > 0u;) 
  52              		.loc 1 87 0
  53 0010 10E0     		b	.L3
  54              	.LVL5:
  55              	.L4:
  88:Generated_Source\PSoC4/key_touch_Filter.c ****         {
  89:Generated_Source\PSoC4/key_touch_Filter.c ****             /* Find pointer to specified sensor object */
  90:Generated_Source\PSoC4/key_touch_Filter.c ****             ptrSensor = ptrWidget->ptr2SnsRam;
  56              		.loc 1 90 0
  57 0012 6B01     		lsl	r3, r5, #5
  58 0014 0B4A     		ldr	r2, .L6
  59 0016 D318     		add	r3, r2, r3
  60 0018 9F68     		ldr	r7, [r3, #8]
  61              	.LVL6:
  91:Generated_Source\PSoC4/key_touch_Filter.c ****             ptrSensor = &ptrSensor[sensorId];
  62              		.loc 1 91 0
  63 001a A000     		lsl	r0, r4, #2
  64 001c 0019     		add	r0, r0, r4
  65 001e 4000     		lsl	r0, r0, #1
  66              	.LVL7:
  92:Generated_Source\PSoC4/key_touch_Filter.c ****                         
  93:Generated_Source\PSoC4/key_touch_Filter.c ****             /* Find pointer to to specified filter sensor object */
  94:Generated_Source\PSoC4/key_touch_Filter.c ****             ptrFilterHistObj.ptr = ptrWidget->ptr2FltrHistory;
  95:Generated_Source\PSoC4/key_touch_Filter.c **** 
  96:Generated_Source\PSoC4/key_touch_Filter.c ****             #if key_touch_CSD_AUTOTUNE & key_touch_CSD_SS_TH_EN
  97:Generated_Source\PSoC4/key_touch_Filter.c ****                 /* Find pointer to specified noise envelope sensor object */
  98:Generated_Source\PSoC4/key_touch_Filter.c ****                 ptrNoiseEnvelope = ptrWidget->ptr2NoiseEnvlp;
  67              		.loc 1 98 0
  68 0020 DA69     		ldr	r2, [r3, #28]
  69              	.LVL8:
  99:Generated_Source\PSoC4/key_touch_Filter.c ****                 ptrNoiseEnvelope = &ptrNoiseEnvelope[sensorId];    
  70              		.loc 1 99 0
  71 0022 6100     		lsl	r1, r4, #1
  72 0024 0B19     		add	r3, r1, r4
ARM GAS  C:\Users\Administrator\AppData\Local\Temp\ccrG5N5m.s 			page 4


  73 0026 9B00     		lsl	r3, r3, #2
  74 0028 D218     		add	r2, r2, r3
  75              	.LVL9:
 100:Generated_Source\PSoC4/key_touch_Filter.c ****             #endif /* #if key_touch_CSD_AUTOTUNE & key_touch_CSD_SS_TH_EN */
 101:Generated_Source\PSoC4/key_touch_Filter.c ****             
 102:Generated_Source\PSoC4/key_touch_Filter.c ****             if ((key_touch_WD_TYPE_ENUM)ptrWidget->wdgtType != key_touch_WD_PROXIMITY_E)
 103:Generated_Source\PSoC4/key_touch_Filter.c ****             {
 104:Generated_Source\PSoC4/key_touch_Filter.c ****                 #if (key_touch_REGULAR_SENSOR_EN)             
 105:Generated_Source\PSoC4/key_touch_Filter.c ****                     ptrFilterHistObj.ptrRegular = &ptrFilterHistObj.ptrRegular[sensorId];
 106:Generated_Source\PSoC4/key_touch_Filter.c ****                 #endif /* (key_touch_REGULAR_SENSOR_EN) */
 107:Generated_Source\PSoC4/key_touch_Filter.c ****             }
 108:Generated_Source\PSoC4/key_touch_Filter.c ****             else
 109:Generated_Source\PSoC4/key_touch_Filter.c ****             {
 110:Generated_Source\PSoC4/key_touch_Filter.c ****                 #if (key_touch_PROXIMITY_SENSOR_EN)             
 111:Generated_Source\PSoC4/key_touch_Filter.c ****                     ptrFilterHistObj.ptrProx = &ptrFilterHistObj.ptrProx[sensorId];
 112:Generated_Source\PSoC4/key_touch_Filter.c ****                 #endif /* (key_touch_PROXIMITY_SENSOR_EN) */
 113:Generated_Source\PSoC4/key_touch_Filter.c ****             }
 114:Generated_Source\PSoC4/key_touch_Filter.c ****             
 115:Generated_Source\PSoC4/key_touch_Filter.c ****             #if (key_touch_REGULAR_RC_IIR_FILTER_EN || key_touch_PROX_RC_IIR_FILTER_EN)
 116:Generated_Source\PSoC4/key_touch_Filter.c ****                 key_touch_InitializeIIRInternal(ptrFilterHistObj, ptrSensor, (uint32)ptrWidget->wdg
 117:Generated_Source\PSoC4/key_touch_Filter.c ****             #endif /* (key_touch_REGULAR_RC_IIR_FILTER_EN || key_touch_PROX_RC_IIR_FILTER_EN) */   
 118:Generated_Source\PSoC4/key_touch_Filter.c **** 
 119:Generated_Source\PSoC4/key_touch_Filter.c ****             #if (key_touch_REGULAR_RC_MEDIAN_FILTER_EN || key_touch_PROX_RC_MEDIAN_FILTER_EN)
 120:Generated_Source\PSoC4/key_touch_Filter.c ****                 key_touch_InitializeMedianInternal(ptrFilterHistObj, ptrSensor, (uint32)ptrWidget->
 121:Generated_Source\PSoC4/key_touch_Filter.c ****             #endif /* (key_touch_REGULAR_RC_MEDIAN_FILTER_EN || key_touch_PROX_RC_MEDIAN_FILTER_EN)
 122:Generated_Source\PSoC4/key_touch_Filter.c **** 
 123:Generated_Source\PSoC4/key_touch_Filter.c ****             #if (key_touch_REGULAR_RC_AVERAGE_FILTER_EN || key_touch_PROX_RC_AVERAGE_FILTER_EN)
 124:Generated_Source\PSoC4/key_touch_Filter.c ****                 key_touch_InitializeAverageInternal(ptrFilterHistObj, ptrSensor, (uint32)ptrWidget-
 125:Generated_Source\PSoC4/key_touch_Filter.c ****             #endif /* (key_touch_REGULAR_RC_AVERAGE_FILTER_EN || key_touch_PROX_RC_AVERAGE_FILTER_E
 126:Generated_Source\PSoC4/key_touch_Filter.c ****             
 127:Generated_Source\PSoC4/key_touch_Filter.c ****             #if (key_touch_CSD_AUTOTUNE & key_touch_CSD_SS_TH_EN)
 128:Generated_Source\PSoC4/key_touch_Filter.c ****                 if (key_touch_SENSE_METHOD_CSD_E ==
 129:Generated_Source\PSoC4/key_touch_Filter.c ****                     key_touch_GET_SENSE_METHOD(&key_touch_dsFlash.wdgtArray[widgetId]))
 130:Generated_Source\PSoC4/key_touch_Filter.c ****                 {
 131:Generated_Source\PSoC4/key_touch_Filter.c ****                     SmartSense_InitializeNoiseEnvelope(ptrSensor->raw[0u], ptrWidgetRam->sigPFC, pt
  76              		.loc 1 131 0
  77 002a 385A     		ldrh	r0, [r7, r0]
  78              	.LVL10:
  79 002c 318A     		ldrh	r1, [r6, #16]
  80 002e FFF7FEFF 		bl	SmartSense_InitializeNoiseEnvelope
  81              	.LVL11:
  87:Generated_Source\PSoC4/key_touch_Filter.c ****         {
  82              		.loc 1 87 0
  83 0032 231C     		mov	r3, r4
  84              	.LVL12:
  85              	.L3:
  87:Generated_Source\PSoC4/key_touch_Filter.c ****         {
  86              		.loc 1 87 0 is_stmt 0 discriminator 1
  87 0034 5C1E     		sub	r4, r3, #1
  88              	.LVL13:
  89 0036 002B     		cmp	r3, #0
  90 0038 EBD1     		bne	.L4
  76:Generated_Source\PSoC4/key_touch_Filter.c ****     {
  91              		.loc 1 76 0 is_stmt 1
  92 003a 2B1C     		mov	r3, r5
  93              	.LVL14:
  94              	.L2:
ARM GAS  C:\Users\Administrator\AppData\Local\Temp\ccrG5N5m.s 			page 5


  76:Generated_Source\PSoC4/key_touch_Filter.c ****     {
  95              		.loc 1 76 0 is_stmt 0 discriminator 1
  96 003c 5D1E     		sub	r5, r3, #1
  97              	.LVL15:
  98 003e 002B     		cmp	r3, #0
  99 0040 E1D1     		bne	.L5
 132:Generated_Source\PSoC4/key_touch_Filter.c ****                 }
 133:Generated_Source\PSoC4/key_touch_Filter.c ****             #endif /* #if key_touch_CSD_AUTOTUNE & key_touch_CSD_SS_TH_EN */
 134:Generated_Source\PSoC4/key_touch_Filter.c ****         }
 135:Generated_Source\PSoC4/key_touch_Filter.c ****     }   
 136:Generated_Source\PSoC4/key_touch_Filter.c **** }
 100              		.loc 1 136 0 is_stmt 1
 101              		@ sp needed
 102              	.LVL16:
 103 0042 F8BD     		pop	{r3, r4, r5, r6, r7, pc}
 104              	.L7:
 105              		.align	2
 106              	.L6:
 107 0044 00000000 		.word	key_touch_dsFlash
 108              		.cfi_endproc
 109              	.LFE1:
 110              		.size	key_touch_FtInitialize, .-key_touch_FtInitialize
 111              		.section	.text.key_touch_FtInitializeBaselineChannel,"ax",%progbits
 112              		.align	2
 113              		.global	key_touch_FtInitializeBaselineChannel
 114              		.code	16
 115              		.thumb_func
 116              		.type	key_touch_FtInitializeBaselineChannel, %function
 117              	key_touch_FtInitializeBaselineChannel:
 118              	.LFB10:
 137:Generated_Source\PSoC4/key_touch_Filter.c **** 
 138:Generated_Source\PSoC4/key_touch_Filter.c **** 
 139:Generated_Source\PSoC4/key_touch_Filter.c **** /*******************************************************************************
 140:Generated_Source\PSoC4/key_touch_Filter.c **** * Function Name: key_touch_UpdateAllBaselines
 141:Generated_Source\PSoC4/key_touch_Filter.c **** ****************************************************************************//**
 142:Generated_Source\PSoC4/key_touch_Filter.c **** *
 143:Generated_Source\PSoC4/key_touch_Filter.c **** * \brief    
 144:Generated_Source\PSoC4/key_touch_Filter.c **** *  Updates the baseline for all sensors in all widgets.
 145:Generated_Source\PSoC4/key_touch_Filter.c **** *
 146:Generated_Source\PSoC4/key_touch_Filter.c **** * \details
 147:Generated_Source\PSoC4/key_touch_Filter.c **** *  Updates the baseline for all sensors in all widgets. Baseline updating is a 
 148:Generated_Source\PSoC4/key_touch_Filter.c **** *  part of data processing performed by the process functions. So, no need to 
 149:Generated_Source\PSoC4/key_touch_Filter.c **** *  call this function except a specific process flow is implemented.
 150:Generated_Source\PSoC4/key_touch_Filter.c **** *  
 151:Generated_Source\PSoC4/key_touch_Filter.c **** *  This function ignores the value of the wdgtEnable register. Multiple calling 
 152:Generated_Source\PSoC4/key_touch_Filter.c **** *  of this function (or any other function with a baseline updating task) 
 153:Generated_Source\PSoC4/key_touch_Filter.c **** *  without scanning leads to unexpected behavior.
 154:Generated_Source\PSoC4/key_touch_Filter.c **** *
 155:Generated_Source\PSoC4/key_touch_Filter.c **** *  If Self-test library is enabled this function executes baseline duplication
 156:Generated_Source\PSoC4/key_touch_Filter.c **** *  test. Refer to key_touch_CheckBaselineDuplication() for details.
 157:Generated_Source\PSoC4/key_touch_Filter.c **** *
 158:Generated_Source\PSoC4/key_touch_Filter.c **** * \return   
 159:Generated_Source\PSoC4/key_touch_Filter.c **** *  Returns the status of the update baseline operation of all widgets:
 160:Generated_Source\PSoC4/key_touch_Filter.c **** *  - CYRET_SUCCESS if operation was successfully completed
 161:Generated_Source\PSoC4/key_touch_Filter.c **** *  - CYRET_BAD_DATA if baseline processing failed
 162:Generated_Source\PSoC4/key_touch_Filter.c **** *
 163:Generated_Source\PSoC4/key_touch_Filter.c **** *******************************************************************************/
ARM GAS  C:\Users\Administrator\AppData\Local\Temp\ccrG5N5m.s 			page 6


 164:Generated_Source\PSoC4/key_touch_Filter.c **** cystatus key_touch_UpdateAllBaselines(void)
 165:Generated_Source\PSoC4/key_touch_Filter.c **** {
 166:Generated_Source\PSoC4/key_touch_Filter.c ****     uint32 widgetId; 
 167:Generated_Source\PSoC4/key_touch_Filter.c ****     cystatus bslnStatus = CYRET_SUCCESS;
 168:Generated_Source\PSoC4/key_touch_Filter.c ****     
 169:Generated_Source\PSoC4/key_touch_Filter.c ****     for(widgetId = key_touch_TOTAL_WIDGETS; widgetId-- > 0u;)
 170:Generated_Source\PSoC4/key_touch_Filter.c ****     {            
 171:Generated_Source\PSoC4/key_touch_Filter.c ****         bslnStatus |= key_touch_UpdateWidgetBaseline(widgetId);       
 172:Generated_Source\PSoC4/key_touch_Filter.c ****     }      
 173:Generated_Source\PSoC4/key_touch_Filter.c ****     
 174:Generated_Source\PSoC4/key_touch_Filter.c ****     return(bslnStatus);
 175:Generated_Source\PSoC4/key_touch_Filter.c **** }
 176:Generated_Source\PSoC4/key_touch_Filter.c ****   
 177:Generated_Source\PSoC4/key_touch_Filter.c **** 
 178:Generated_Source\PSoC4/key_touch_Filter.c **** /*******************************************************************************
 179:Generated_Source\PSoC4/key_touch_Filter.c **** * Function Name: key_touch_UpdateWidgetBaseline
 180:Generated_Source\PSoC4/key_touch_Filter.c **** ****************************************************************************//**
 181:Generated_Source\PSoC4/key_touch_Filter.c **** *
 182:Generated_Source\PSoC4/key_touch_Filter.c **** * \brief    
 183:Generated_Source\PSoC4/key_touch_Filter.c **** *  Updates the baseline for all sensors in a widget specified by input parameter.
 184:Generated_Source\PSoC4/key_touch_Filter.c **** *
 185:Generated_Source\PSoC4/key_touch_Filter.c **** * \details  
 186:Generated_Source\PSoC4/key_touch_Filter.c **** *  This function performs exactly the same tasks as 
 187:Generated_Source\PSoC4/key_touch_Filter.c **** *  key_touch_UpdateAllBaselines(), but only for a specified widget.
 188:Generated_Source\PSoC4/key_touch_Filter.c **** *  
 189:Generated_Source\PSoC4/key_touch_Filter.c **** *  This function ignores the value of the wdgtEnable register. Multiple calling
 190:Generated_Source\PSoC4/key_touch_Filter.c **** *  of this function (or any other function with a baseline updating task) 
 191:Generated_Source\PSoC4/key_touch_Filter.c **** *  without scanning leads to unexpected behavior.
 192:Generated_Source\PSoC4/key_touch_Filter.c **** *
 193:Generated_Source\PSoC4/key_touch_Filter.c **** *  If Self-test library is enabled this function executes baseline duplication
 194:Generated_Source\PSoC4/key_touch_Filter.c **** *  test. Refer to key_touch_CheckBaselineDuplication() for details.
 195:Generated_Source\PSoC4/key_touch_Filter.c **** *
 196:Generated_Source\PSoC4/key_touch_Filter.c **** * \param widgetId 
 197:Generated_Source\PSoC4/key_touch_Filter.c **** *  Specify the ID number of the widget to update the baseline of all sensors
 198:Generated_Source\PSoC4/key_touch_Filter.c **** *  in the widget.
 199:Generated_Source\PSoC4/key_touch_Filter.c **** *  A macro for the widget ID can be found in the 
 200:Generated_Source\PSoC4/key_touch_Filter.c **** *  key_touch Configuration header file defined as 
 201:Generated_Source\PSoC4/key_touch_Filter.c **** *  key_touch_<WidgetName>_WDGT_ID.
 202:Generated_Source\PSoC4/key_touch_Filter.c **** *
 203:Generated_Source\PSoC4/key_touch_Filter.c **** * \return   
 204:Generated_Source\PSoC4/key_touch_Filter.c **** *  Returns the status of the specified widget update baseline operation:
 205:Generated_Source\PSoC4/key_touch_Filter.c **** *  - CYRET_SUCCESS if operation was successfully completed
 206:Generated_Source\PSoC4/key_touch_Filter.c **** *  - CYRET_BAD_DATA if baseline processing failed
 207:Generated_Source\PSoC4/key_touch_Filter.c **** *
 208:Generated_Source\PSoC4/key_touch_Filter.c **** *******************************************************************************/
 209:Generated_Source\PSoC4/key_touch_Filter.c **** cystatus key_touch_UpdateWidgetBaseline(uint32 widgetId)
 210:Generated_Source\PSoC4/key_touch_Filter.c **** {
 211:Generated_Source\PSoC4/key_touch_Filter.c ****     uint32 sensorId;       
 212:Generated_Source\PSoC4/key_touch_Filter.c ****     uint32 sensorsNumber;  
 213:Generated_Source\PSoC4/key_touch_Filter.c **** 
 214:Generated_Source\PSoC4/key_touch_Filter.c ****     key_touch_FLASH_WD_STRUCT const *ptrWidget = &key_touch_dsFlash.wdgtArray[widgetId];    
 215:Generated_Source\PSoC4/key_touch_Filter.c ****     cystatus bslnStatus = CYRET_SUCCESS;    
 216:Generated_Source\PSoC4/key_touch_Filter.c ****     
 217:Generated_Source\PSoC4/key_touch_Filter.c ****     /* Find total amount of sensors in specified widget */   
 218:Generated_Source\PSoC4/key_touch_Filter.c ****     sensorsNumber = key_touch_GET_SNS_CNT_BY_PTR(ptrWidget);    
 219:Generated_Source\PSoC4/key_touch_Filter.c ****     
 220:Generated_Source\PSoC4/key_touch_Filter.c ****     for(sensorId = sensorsNumber; sensorId-- > 0u;)
ARM GAS  C:\Users\Administrator\AppData\Local\Temp\ccrG5N5m.s 			page 7


 221:Generated_Source\PSoC4/key_touch_Filter.c ****     {
 222:Generated_Source\PSoC4/key_touch_Filter.c ****         bslnStatus |= key_touch_UpdateSensorBaseline(widgetId, sensorId);    
 223:Generated_Source\PSoC4/key_touch_Filter.c ****     }
 224:Generated_Source\PSoC4/key_touch_Filter.c **** 
 225:Generated_Source\PSoC4/key_touch_Filter.c ****     return(bslnStatus);
 226:Generated_Source\PSoC4/key_touch_Filter.c **** }
 227:Generated_Source\PSoC4/key_touch_Filter.c **** 
 228:Generated_Source\PSoC4/key_touch_Filter.c **** 
 229:Generated_Source\PSoC4/key_touch_Filter.c **** /*******************************************************************************
 230:Generated_Source\PSoC4/key_touch_Filter.c **** * Function Name: key_touch_UpdateSensorBaseline
 231:Generated_Source\PSoC4/key_touch_Filter.c **** ****************************************************************************//**
 232:Generated_Source\PSoC4/key_touch_Filter.c **** *
 233:Generated_Source\PSoC4/key_touch_Filter.c **** * \brief    
 234:Generated_Source\PSoC4/key_touch_Filter.c **** *  Updates the baseline for a sensor in a widget specified by input parameters.
 235:Generated_Source\PSoC4/key_touch_Filter.c **** *
 236:Generated_Source\PSoC4/key_touch_Filter.c **** * \details  
 237:Generated_Source\PSoC4/key_touch_Filter.c **** *  This function performs exactly the same tasks as
 238:Generated_Source\PSoC4/key_touch_Filter.c **** *  key_touch_UpdateAllBaselines() and 
 239:Generated_Source\PSoC4/key_touch_Filter.c **** *  key_touch_UpdateWidgetBaseline() but only for a specified sensor.
 240:Generated_Source\PSoC4/key_touch_Filter.c **** *  
 241:Generated_Source\PSoC4/key_touch_Filter.c **** *  This function ignores the value of the wdgtEnable register. Multiple calling 
 242:Generated_Source\PSoC4/key_touch_Filter.c **** *  of this function (or any other function with a baseline updating task) 
 243:Generated_Source\PSoC4/key_touch_Filter.c **** *  without scanning leads to unexpected behavior.
 244:Generated_Source\PSoC4/key_touch_Filter.c **** *
 245:Generated_Source\PSoC4/key_touch_Filter.c **** *  If Self-test library is enabled this function executes baseline duplication
 246:Generated_Source\PSoC4/key_touch_Filter.c **** *  test. Refer to key_touch_CheckBaselineDuplication() for details.
 247:Generated_Source\PSoC4/key_touch_Filter.c **** *
 248:Generated_Source\PSoC4/key_touch_Filter.c **** * \param   widgetId 
 249:Generated_Source\PSoC4/key_touch_Filter.c **** *  Specify the ID number of the widget to update the baseline of the sensor 
 250:Generated_Source\PSoC4/key_touch_Filter.c **** *  specified by the sensorId argument.
 251:Generated_Source\PSoC4/key_touch_Filter.c **** *  A macro for the widget ID can be found in the key_touch Configuration header 
 252:Generated_Source\PSoC4/key_touch_Filter.c **** *  file defined as key_touch_<WidgetName>_WDGT_ID. 
 253:Generated_Source\PSoC4/key_touch_Filter.c **** *
 254:Generated_Source\PSoC4/key_touch_Filter.c **** * \param   sensorId 
 255:Generated_Source\PSoC4/key_touch_Filter.c **** *  Specify the ID number of the sensor within the widget to update its baseline.
 256:Generated_Source\PSoC4/key_touch_Filter.c **** *  A macro for the sensor ID within a specified widget can be found in the 
 257:Generated_Source\PSoC4/key_touch_Filter.c **** *  key_touch Configuration header file defined as 
 258:Generated_Source\PSoC4/key_touch_Filter.c **** *  key_touch_<WidgetName>_SNS<SensorNumber>_ID
 259:Generated_Source\PSoC4/key_touch_Filter.c **** *
 260:Generated_Source\PSoC4/key_touch_Filter.c **** * \return   
 261:Generated_Source\PSoC4/key_touch_Filter.c **** *  Returns the status of the specified sensor update baseline operation:
 262:Generated_Source\PSoC4/key_touch_Filter.c **** *  - CYRET_SUCCESS if operation was successfully completed
 263:Generated_Source\PSoC4/key_touch_Filter.c **** *  - CYRET_BAD_DATA if baseline processing failed
 264:Generated_Source\PSoC4/key_touch_Filter.c **** *
 265:Generated_Source\PSoC4/key_touch_Filter.c **** *******************************************************************************/
 266:Generated_Source\PSoC4/key_touch_Filter.c **** cystatus key_touch_UpdateSensorBaseline(uint32 widgetId, uint32 sensorId)
 267:Generated_Source\PSoC4/key_touch_Filter.c **** {    
 268:Generated_Source\PSoC4/key_touch_Filter.c ****     uint32 result = CYRET_SUCCESS;
 269:Generated_Source\PSoC4/key_touch_Filter.c ****     
 270:Generated_Source\PSoC4/key_touch_Filter.c ****     key_touch_RAM_SNS_STRUCT *ptrSensor = NULL;    
 271:Generated_Source\PSoC4/key_touch_Filter.c ****     key_touch_FLASH_WD_STRUCT const *ptrWidget = &key_touch_dsFlash.wdgtArray[widgetId];    
 272:Generated_Source\PSoC4/key_touch_Filter.c ****     key_touch_RAM_WD_BASE_STRUCT *ptrWidgetRam = ptrWidget->ptr2WdgtRam;   
 273:Generated_Source\PSoC4/key_touch_Filter.c **** 
 274:Generated_Source\PSoC4/key_touch_Filter.c ****     /* Find pointer to specified sensor object */     
 275:Generated_Source\PSoC4/key_touch_Filter.c ****     ptrSensor = ptrWidget->ptr2SnsRam;
 276:Generated_Source\PSoC4/key_touch_Filter.c ****     ptrSensor = &ptrSensor[sensorId];
 277:Generated_Source\PSoC4/key_touch_Filter.c ****     result = key_touch_FtUpdateBaseline(ptrWidgetRam, ptrSensor, (uint32)ptrWidget->wdgtType);
ARM GAS  C:\Users\Administrator\AppData\Local\Temp\ccrG5N5m.s 			page 8


 278:Generated_Source\PSoC4/key_touch_Filter.c ****     
 279:Generated_Source\PSoC4/key_touch_Filter.c ****     #if (key_touch_ENABLE == key_touch_TST_BSLN_DUPLICATION_EN)
 280:Generated_Source\PSoC4/key_touch_Filter.c ****         if (CYRET_SUCCESS != result)
 281:Generated_Source\PSoC4/key_touch_Filter.c ****         {
 282:Generated_Source\PSoC4/key_touch_Filter.c ****             result = CYRET_BAD_DATA;
 283:Generated_Source\PSoC4/key_touch_Filter.c ****             key_touch_UpdateTestResultBaselineDuplication(widgetId, sensorId);           
 284:Generated_Source\PSoC4/key_touch_Filter.c ****         }
 285:Generated_Source\PSoC4/key_touch_Filter.c ****     #endif /* (key_touch_ENABLE == key_touch_TST_BSLN_DUPLICATION_EN) */
 286:Generated_Source\PSoC4/key_touch_Filter.c **** 
 287:Generated_Source\PSoC4/key_touch_Filter.c ****     return result;
 288:Generated_Source\PSoC4/key_touch_Filter.c **** }
 289:Generated_Source\PSoC4/key_touch_Filter.c **** 
 290:Generated_Source\PSoC4/key_touch_Filter.c **** /*******************************************************************************
 291:Generated_Source\PSoC4/key_touch_Filter.c **** * Function Name: key_touch_FtUpdateBaseline
 292:Generated_Source\PSoC4/key_touch_Filter.c **** ****************************************************************************//**
 293:Generated_Source\PSoC4/key_touch_Filter.c **** *
 294:Generated_Source\PSoC4/key_touch_Filter.c **** * \brief
 295:Generated_Source\PSoC4/key_touch_Filter.c **** *  Updates the baseline for a sensor specified by an input parameter.
 296:Generated_Source\PSoC4/key_touch_Filter.c **** *
 297:Generated_Source\PSoC4/key_touch_Filter.c **** * \details
 298:Generated_Source\PSoC4/key_touch_Filter.c **** *  Check a matching of present baseline and its inverse duplication. If they 
 299:Generated_Source\PSoC4/key_touch_Filter.c **** *  match then updates the baseline for a sensor specified by an input parameter.  
 300:Generated_Source\PSoC4/key_touch_Filter.c **** *  If don't match the function return key_touch_TST_BSLN_DUPLICATION
 301:Generated_Source\PSoC4/key_touch_Filter.c **** *  result and don't update baseline.
 302:Generated_Source\PSoC4/key_touch_Filter.c **** *
 303:Generated_Source\PSoC4/key_touch_Filter.c **** * \param    ptrWidgetRam
 304:Generated_Source\PSoC4/key_touch_Filter.c **** *  The pointer to the widget RAM structure where all the widget parameters
 305:Generated_Source\PSoC4/key_touch_Filter.c **** *  are stored.
 306:Generated_Source\PSoC4/key_touch_Filter.c **** *
 307:Generated_Source\PSoC4/key_touch_Filter.c **** * \param    ptrSensor
 308:Generated_Source\PSoC4/key_touch_Filter.c **** *  The pointer to the sensor RAM structure where all the sensor parameters
 309:Generated_Source\PSoC4/key_touch_Filter.c **** *  are stored.
 310:Generated_Source\PSoC4/key_touch_Filter.c **** *
 311:Generated_Source\PSoC4/key_touch_Filter.c **** * \param    wdType
 312:Generated_Source\PSoC4/key_touch_Filter.c **** *  Specifies the type of a widget.
 313:Generated_Source\PSoC4/key_touch_Filter.c **** *
 314:Generated_Source\PSoC4/key_touch_Filter.c **** * \return   
 315:Generated_Source\PSoC4/key_touch_Filter.c **** *  Returns a status indicating whether the baseline has been updated:
 316:Generated_Source\PSoC4/key_touch_Filter.c **** *  - CYRET_SUCCESS if baseline updating was successful;
 317:Generated_Source\PSoC4/key_touch_Filter.c **** *  - key_touch_PROCESS_BASELINE_FAILED if present sensor's any channel
 318:Generated_Source\PSoC4/key_touch_Filter.c **** *    baseline and its inversion doesn't matched
 319:Generated_Source\PSoC4/key_touch_Filter.c **** *
 320:Generated_Source\PSoC4/key_touch_Filter.c **** *******************************************************************************/
 321:Generated_Source\PSoC4/key_touch_Filter.c **** uint32 key_touch_FtUpdateBaseline(
 322:Generated_Source\PSoC4/key_touch_Filter.c ****                                 key_touch_RAM_WD_BASE_STRUCT *ptrWidgetRam,
 323:Generated_Source\PSoC4/key_touch_Filter.c ****                                 key_touch_RAM_SNS_STRUCT *ptrSensor, 
 324:Generated_Source\PSoC4/key_touch_Filter.c ****                                 uint32 wdType)
 325:Generated_Source\PSoC4/key_touch_Filter.c **** {         
 326:Generated_Source\PSoC4/key_touch_Filter.c ****     uint32 sign;
 327:Generated_Source\PSoC4/key_touch_Filter.c ****     uint32 difference;        
 328:Generated_Source\PSoC4/key_touch_Filter.c ****     uint32 channel;
 329:Generated_Source\PSoC4/key_touch_Filter.c ****     uint32 result = CYRET_SUCCESS;
 330:Generated_Source\PSoC4/key_touch_Filter.c ****     
 331:Generated_Source\PSoC4/key_touch_Filter.c ****     #if (key_touch_TOTAL_WIDGETS)  
 332:Generated_Source\PSoC4/key_touch_Filter.c ****         uint32 history;
 333:Generated_Source\PSoC4/key_touch_Filter.c ****     #endif /* (key_touch_TOTAL_WIDGETS) */    
 334:Generated_Source\PSoC4/key_touch_Filter.c ****     
ARM GAS  C:\Users\Administrator\AppData\Local\Temp\ccrG5N5m.s 			page 9


 335:Generated_Source\PSoC4/key_touch_Filter.c ****     /* Apply baseline to every channel in sensor */
 336:Generated_Source\PSoC4/key_touch_Filter.c ****     for(channel = key_touch_NUM_SCAN_FREQS; channel-- > 0u;) 
 337:Generated_Source\PSoC4/key_touch_Filter.c ****     {               
 338:Generated_Source\PSoC4/key_touch_Filter.c ****         #if (key_touch_ENABLE == key_touch_TST_BSLN_DUPLICATION_EN)
 339:Generated_Source\PSoC4/key_touch_Filter.c ****             if (ptrSensor->bslnInv[channel] != ((uint16) ~(ptrSensor->bsln[channel])))
 340:Generated_Source\PSoC4/key_touch_Filter.c ****             {
 341:Generated_Source\PSoC4/key_touch_Filter.c ****                 result = key_touch_PROCESS_BASELINE_FAILED;
 342:Generated_Source\PSoC4/key_touch_Filter.c ****             }
 343:Generated_Source\PSoC4/key_touch_Filter.c ****             else
 344:Generated_Source\PSoC4/key_touch_Filter.c ****             {
 345:Generated_Source\PSoC4/key_touch_Filter.c ****         #endif /* (key_touch_ENABLE == key_touch_TST_BSLN_DUPLICATION_EN) */
 346:Generated_Source\PSoC4/key_touch_Filter.c **** 
 347:Generated_Source\PSoC4/key_touch_Filter.c ****         /* Calculate signal value and its sign */
 348:Generated_Source\PSoC4/key_touch_Filter.c ****         if(ptrSensor->raw[channel] >= ptrSensor->bsln[channel])
 349:Generated_Source\PSoC4/key_touch_Filter.c ****         {
 350:Generated_Source\PSoC4/key_touch_Filter.c ****             difference = (uint32)ptrSensor->raw[channel] - (uint32)ptrSensor->bsln[channel];
 351:Generated_Source\PSoC4/key_touch_Filter.c ****             sign = 1u;
 352:Generated_Source\PSoC4/key_touch_Filter.c ****             ptrSensor->negBslnRstCnt[channel] = 0u;
 353:Generated_Source\PSoC4/key_touch_Filter.c ****         }
 354:Generated_Source\PSoC4/key_touch_Filter.c ****         else
 355:Generated_Source\PSoC4/key_touch_Filter.c ****         {
 356:Generated_Source\PSoC4/key_touch_Filter.c ****             difference = (uint32)ptrSensor->bsln[channel] - (uint32)ptrSensor->raw[channel];
 357:Generated_Source\PSoC4/key_touch_Filter.c ****             sign = 0u;
 358:Generated_Source\PSoC4/key_touch_Filter.c ****         }     
 359:Generated_Source\PSoC4/key_touch_Filter.c ****         
 360:Generated_Source\PSoC4/key_touch_Filter.c ****         /* Reset baseline if condition is met */ 
 361:Generated_Source\PSoC4/key_touch_Filter.c ****         if((sign == 0u) && (difference > (uint32) ptrWidgetRam->nNoiseTh))
 362:Generated_Source\PSoC4/key_touch_Filter.c ****         {
 363:Generated_Source\PSoC4/key_touch_Filter.c ****             if(ptrSensor->negBslnRstCnt[channel] >= ptrWidgetRam->lowBslnRst)
 364:Generated_Source\PSoC4/key_touch_Filter.c ****             {                
 365:Generated_Source\PSoC4/key_touch_Filter.c ****                 key_touch_FtInitializeBaselineChannel(ptrSensor, wdType, channel);             
 366:Generated_Source\PSoC4/key_touch_Filter.c ****             }
 367:Generated_Source\PSoC4/key_touch_Filter.c ****             else
 368:Generated_Source\PSoC4/key_touch_Filter.c ****             {
 369:Generated_Source\PSoC4/key_touch_Filter.c ****                 ptrSensor->negBslnRstCnt[channel]++;
 370:Generated_Source\PSoC4/key_touch_Filter.c ****             }
 371:Generated_Source\PSoC4/key_touch_Filter.c ****         }
 372:Generated_Source\PSoC4/key_touch_Filter.c ****         else
 373:Generated_Source\PSoC4/key_touch_Filter.c ****         {
 374:Generated_Source\PSoC4/key_touch_Filter.c ****             #if (!key_touch_SENSOR_AUTO_RESET_EN)
 375:Generated_Source\PSoC4/key_touch_Filter.c ****                 /* Update baseline only if signal is in range between noiseThreshold and negativeno
 376:Generated_Source\PSoC4/key_touch_Filter.c ****                 if ((difference <= (uint32)ptrWidgetRam->noiseTh) ||
 377:Generated_Source\PSoC4/key_touch_Filter.c ****                     ((difference < (uint32) ptrWidgetRam->nNoiseTh) && (sign == 0u)))
 378:Generated_Source\PSoC4/key_touch_Filter.c ****                 {
 379:Generated_Source\PSoC4/key_touch_Filter.c ****             #endif /* (key_touch_CSD_AUTO_RESET == key_touch_CSD_AUTO_RESET_DISABLE) */
 380:Generated_Source\PSoC4/key_touch_Filter.c ****             
 381:Generated_Source\PSoC4/key_touch_Filter.c ****             #if (key_touch_BASELINE_TYPE == key_touch_IIR_BASELINE)  
 382:Generated_Source\PSoC4/key_touch_Filter.c ****                 /* Calculate baseline value */
 383:Generated_Source\PSoC4/key_touch_Filter.c ****                 if ((key_touch_WD_TYPE_ENUM)wdType != key_touch_WD_PROXIMITY_E)
 384:Generated_Source\PSoC4/key_touch_Filter.c ****                 {
 385:Generated_Source\PSoC4/key_touch_Filter.c ****                     #if (key_touch_REGULAR_SENSOR_EN) 
 386:Generated_Source\PSoC4/key_touch_Filter.c ****                         #if (key_touch_REGULAR_IIR_BL_TYPE == key_touch_IIR_FILTER_PERFORMANCE)    
 387:Generated_Source\PSoC4/key_touch_Filter.c ****                             history = (uint32) ptrSensor->bsln[channel] << 8u; 
 388:Generated_Source\PSoC4/key_touch_Filter.c ****                             history |= ptrSensor->bslnExt[channel];
 389:Generated_Source\PSoC4/key_touch_Filter.c ****                         #else
 390:Generated_Source\PSoC4/key_touch_Filter.c ****                             history = ptrSensor->bsln[channel];                                    
 391:Generated_Source\PSoC4/key_touch_Filter.c ****                         #endif /* (key_touch_REGULAR_IIR_BL_TYPE == key_touch_IIR_FILTER_PERFORMANC
ARM GAS  C:\Users\Administrator\AppData\Local\Temp\ccrG5N5m.s 			page 10


 392:Generated_Source\PSoC4/key_touch_Filter.c ****                     
 393:Generated_Source\PSoC4/key_touch_Filter.c ****                         history =  key_touch_FtIIR1stOrder(
 394:Generated_Source\PSoC4/key_touch_Filter.c ****                                         (uint32)ptrSensor->raw[channel],
 395:Generated_Source\PSoC4/key_touch_Filter.c ****                                         history, 
 396:Generated_Source\PSoC4/key_touch_Filter.c ****                                         key_touch_REGULAR_IIR_BL_N, 
 397:Generated_Source\PSoC4/key_touch_Filter.c ****                                         key_touch_REGULAR_IIR_BL_SHIFT);
 398:Generated_Source\PSoC4/key_touch_Filter.c ****                                                    
 399:Generated_Source\PSoC4/key_touch_Filter.c ****                         #if (key_touch_REGULAR_IIR_BL_TYPE == key_touch_IIR_FILTER_PERFORMANCE)    
 400:Generated_Source\PSoC4/key_touch_Filter.c ****                             ptrSensor->bsln[channel] = LO16(history >> 8u);
 401:Generated_Source\PSoC4/key_touch_Filter.c ****                             ptrSensor->bslnExt[channel] = LO8(history);
 402:Generated_Source\PSoC4/key_touch_Filter.c ****                         #else
 403:Generated_Source\PSoC4/key_touch_Filter.c ****                             ptrSensor->bsln[channel] = LO16(history);
 404:Generated_Source\PSoC4/key_touch_Filter.c ****                         #endif /* (key_touch_REGULAR_IIR_BL_TYPE == key_touch_IIR_FILTER_PERFORMANC
 405:Generated_Source\PSoC4/key_touch_Filter.c ****                     #endif /* (key_touch_REGULAR_SENSOR_EN) */
 406:Generated_Source\PSoC4/key_touch_Filter.c ****                 }
 407:Generated_Source\PSoC4/key_touch_Filter.c ****                 else 
 408:Generated_Source\PSoC4/key_touch_Filter.c ****                 {
 409:Generated_Source\PSoC4/key_touch_Filter.c ****                     #if (key_touch_PROXIMITY_SENSOR_EN)     
 410:Generated_Source\PSoC4/key_touch_Filter.c ****                         #if (key_touch_PROX_IIR_BL_TYPE == key_touch_IIR_FILTER_PERFORMANCE)       
 411:Generated_Source\PSoC4/key_touch_Filter.c ****                             history = (uint32) ptrSensor->bsln[channel] << 8u; 
 412:Generated_Source\PSoC4/key_touch_Filter.c ****                             history |= ptrSensor->bslnExt[channel];
 413:Generated_Source\PSoC4/key_touch_Filter.c ****                         #else
 414:Generated_Source\PSoC4/key_touch_Filter.c ****                             history = (uint32) ptrSensor->bsln[channel];                           
 415:Generated_Source\PSoC4/key_touch_Filter.c ****                         #endif /* (key_touch_PROX_IIR_BL_TYPE == key_touch_IIR_FILTER_PERFORMANCE) 
 416:Generated_Source\PSoC4/key_touch_Filter.c ****                         
 417:Generated_Source\PSoC4/key_touch_Filter.c ****                         history = key_touch_FtIIR1stOrder((uint32)ptrSensor->raw[channel], history,
 418:Generated_Source\PSoC4/key_touch_Filter.c ****                         
 419:Generated_Source\PSoC4/key_touch_Filter.c ****                         #if (key_touch_PROX_IIR_BL_TYPE == key_touch_IIR_FILTER_PERFORMANCE)       
 420:Generated_Source\PSoC4/key_touch_Filter.c ****                             ptrSensor->bsln[channel] = LO16(history >> 8u);
 421:Generated_Source\PSoC4/key_touch_Filter.c ****                             ptrSensor->bslnExt[channel] = LO8(history);
 422:Generated_Source\PSoC4/key_touch_Filter.c ****                         #else
 423:Generated_Source\PSoC4/key_touch_Filter.c ****                             ptrSensor->bsln[channel] = LO16(history);
 424:Generated_Source\PSoC4/key_touch_Filter.c ****                         #endif /* (key_touch_PROX_IIR_BL_TYPE == key_touch_IIR_FILTER_PERFORMANCE) 
 425:Generated_Source\PSoC4/key_touch_Filter.c ****                     #endif /* (key_touch_PROX_SENSOR_EN)   */
 426:Generated_Source\PSoC4/key_touch_Filter.c ****                 }
 427:Generated_Source\PSoC4/key_touch_Filter.c ****             #else /* (key_touch_CSD_BASELINE_TYPE == key_touch_IIR_BASELINE)  */
 428:Generated_Source\PSoC4/key_touch_Filter.c ****                 
 429:Generated_Source\PSoC4/key_touch_Filter.c ****                 /******************************************************************
 430:Generated_Source\PSoC4/key_touch_Filter.c ****                 * This is the place where the bucket algorithm should be implemented.
 431:Generated_Source\PSoC4/key_touch_Filter.c ****                 * The bucket method will be implemented in future component version.
 432:Generated_Source\PSoC4/key_touch_Filter.c ****                 *******************************************************************/
 433:Generated_Source\PSoC4/key_touch_Filter.c ****                 
 434:Generated_Source\PSoC4/key_touch_Filter.c ****             #endif /* (key_touch_CSD_BASELINE_TYPE == key_touch_IIR_BASELINE)  */
 435:Generated_Source\PSoC4/key_touch_Filter.c ****                     
 436:Generated_Source\PSoC4/key_touch_Filter.c ****             #if (!key_touch_SENSOR_AUTO_RESET_EN)
 437:Generated_Source\PSoC4/key_touch_Filter.c ****                 }
 438:Generated_Source\PSoC4/key_touch_Filter.c ****             #endif /* (!key_touch_SENSOR_AUTO_RESET_EN) */
 439:Generated_Source\PSoC4/key_touch_Filter.c ****         }
 440:Generated_Source\PSoC4/key_touch_Filter.c ****                 
 441:Generated_Source\PSoC4/key_touch_Filter.c ****         #if (key_touch_ENABLE == key_touch_TST_BSLN_DUPLICATION_EN)
 442:Generated_Source\PSoC4/key_touch_Filter.c ****             /* Update baseline inversion of every channel in sensor */    
 443:Generated_Source\PSoC4/key_touch_Filter.c ****             ptrSensor->bslnInv[channel] = ~(ptrSensor->bsln[channel]);
 444:Generated_Source\PSoC4/key_touch_Filter.c ****             }
 445:Generated_Source\PSoC4/key_touch_Filter.c ****         #endif /* (key_touch_ENABLE == key_touch_TST_BSLN_DUPLICATION_EN) */
 446:Generated_Source\PSoC4/key_touch_Filter.c **** 
 447:Generated_Source\PSoC4/key_touch_Filter.c ****     }
 448:Generated_Source\PSoC4/key_touch_Filter.c ****     return result;    
ARM GAS  C:\Users\Administrator\AppData\Local\Temp\ccrG5N5m.s 			page 11


 449:Generated_Source\PSoC4/key_touch_Filter.c **** }
 450:Generated_Source\PSoC4/key_touch_Filter.c **** 
 451:Generated_Source\PSoC4/key_touch_Filter.c **** 
 452:Generated_Source\PSoC4/key_touch_Filter.c **** /*******************************************************************************
 453:Generated_Source\PSoC4/key_touch_Filter.c **** * Function Name: key_touch_InitializeAllBaselines
 454:Generated_Source\PSoC4/key_touch_Filter.c **** ****************************************************************************//**
 455:Generated_Source\PSoC4/key_touch_Filter.c **** *
 456:Generated_Source\PSoC4/key_touch_Filter.c **** * \brief    
 457:Generated_Source\PSoC4/key_touch_Filter.c **** *  Initializes (or re-initialize) the baseline of all sensors of all widgets.
 458:Generated_Source\PSoC4/key_touch_Filter.c **** *
 459:Generated_Source\PSoC4/key_touch_Filter.c **** * \details  
 460:Generated_Source\PSoC4/key_touch_Filter.c **** *  Initializes the baseline for all sensors of all widgets. Also, this function
 461:Generated_Source\PSoC4/key_touch_Filter.c **** *  can be used to re-initialize baselines. key_touch_Start() calls this 
 462:Generated_Source\PSoC4/key_touch_Filter.c **** *  API as part of key_touch operation initialization.
 463:Generated_Source\PSoC4/key_touch_Filter.c **** *
 464:Generated_Source\PSoC4/key_touch_Filter.c **** *******************************************************************************/
 465:Generated_Source\PSoC4/key_touch_Filter.c **** void key_touch_InitializeAllBaselines(void)
 466:Generated_Source\PSoC4/key_touch_Filter.c **** {
 467:Generated_Source\PSoC4/key_touch_Filter.c ****     uint32 widgetId;    
 468:Generated_Source\PSoC4/key_touch_Filter.c ****     
 469:Generated_Source\PSoC4/key_touch_Filter.c ****     for(widgetId = key_touch_TOTAL_WIDGETS; widgetId-- > 0u;)
 470:Generated_Source\PSoC4/key_touch_Filter.c ****     {
 471:Generated_Source\PSoC4/key_touch_Filter.c ****         key_touch_InitializeWidgetBaseline(widgetId); 
 472:Generated_Source\PSoC4/key_touch_Filter.c ****     }
 473:Generated_Source\PSoC4/key_touch_Filter.c **** }
 474:Generated_Source\PSoC4/key_touch_Filter.c **** 
 475:Generated_Source\PSoC4/key_touch_Filter.c **** 
 476:Generated_Source\PSoC4/key_touch_Filter.c **** /*******************************************************************************
 477:Generated_Source\PSoC4/key_touch_Filter.c **** * Function Name: key_touch_InitializeWidgetBaseline
 478:Generated_Source\PSoC4/key_touch_Filter.c **** ****************************************************************************//**
 479:Generated_Source\PSoC4/key_touch_Filter.c **** *
 480:Generated_Source\PSoC4/key_touch_Filter.c **** * \brief    
 481:Generated_Source\PSoC4/key_touch_Filter.c **** *  Initializes (or re-initialize) the baseline of all sensors in a widget 
 482:Generated_Source\PSoC4/key_touch_Filter.c **** *  specified by input parameter. 
 483:Generated_Source\PSoC4/key_touch_Filter.c **** *
 484:Generated_Source\PSoC4/key_touch_Filter.c **** * \details  
 485:Generated_Source\PSoC4/key_touch_Filter.c **** *  Initializes (or re-initializes) the baseline for all sensors of the 
 486:Generated_Source\PSoC4/key_touch_Filter.c **** *  specified widget.
 487:Generated_Source\PSoC4/key_touch_Filter.c **** *
 488:Generated_Source\PSoC4/key_touch_Filter.c **** * \param  widgetId 
 489:Generated_Source\PSoC4/key_touch_Filter.c **** *  Specify the ID number of a widget to initialize the baseline of all sensors
 490:Generated_Source\PSoC4/key_touch_Filter.c **** *  in the widget. 
 491:Generated_Source\PSoC4/key_touch_Filter.c **** *  A macro for the widget ID can be found in the 
 492:Generated_Source\PSoC4/key_touch_Filter.c **** *  key_touch Configuration header file defined as 
 493:Generated_Source\PSoC4/key_touch_Filter.c **** *  key_touch_<WidgetName>_WDGT_ID.
 494:Generated_Source\PSoC4/key_touch_Filter.c **** *
 495:Generated_Source\PSoC4/key_touch_Filter.c **** *******************************************************************************/
 496:Generated_Source\PSoC4/key_touch_Filter.c **** void key_touch_InitializeWidgetBaseline(uint32 widgetId)
 497:Generated_Source\PSoC4/key_touch_Filter.c **** {   
 498:Generated_Source\PSoC4/key_touch_Filter.c ****     uint32 sensorId;
 499:Generated_Source\PSoC4/key_touch_Filter.c ****     uint32 sensorsNumber;
 500:Generated_Source\PSoC4/key_touch_Filter.c ****   
 501:Generated_Source\PSoC4/key_touch_Filter.c ****     key_touch_FLASH_WD_STRUCT const *ptrWidget = &key_touch_dsFlash.wdgtArray[widgetId];
 502:Generated_Source\PSoC4/key_touch_Filter.c **** 
 503:Generated_Source\PSoC4/key_touch_Filter.c ****     /* Find total amount of sensors in specified widget */   
 504:Generated_Source\PSoC4/key_touch_Filter.c ****     sensorsNumber = key_touch_GET_SNS_CNT_BY_PTR(ptrWidget);    
 505:Generated_Source\PSoC4/key_touch_Filter.c ****     
ARM GAS  C:\Users\Administrator\AppData\Local\Temp\ccrG5N5m.s 			page 12


 506:Generated_Source\PSoC4/key_touch_Filter.c ****     for(sensorId = sensorsNumber; sensorId-- > 0u;)
 507:Generated_Source\PSoC4/key_touch_Filter.c ****     {
 508:Generated_Source\PSoC4/key_touch_Filter.c ****         key_touch_InitializeSensorBaseline(widgetId, sensorId);   
 509:Generated_Source\PSoC4/key_touch_Filter.c ****     }
 510:Generated_Source\PSoC4/key_touch_Filter.c **** }
 511:Generated_Source\PSoC4/key_touch_Filter.c **** 
 512:Generated_Source\PSoC4/key_touch_Filter.c **** 
 513:Generated_Source\PSoC4/key_touch_Filter.c **** /*******************************************************************************
 514:Generated_Source\PSoC4/key_touch_Filter.c **** * Function Name: key_touch_InitializeSensorBaseline
 515:Generated_Source\PSoC4/key_touch_Filter.c **** ****************************************************************************//**
 516:Generated_Source\PSoC4/key_touch_Filter.c **** *
 517:Generated_Source\PSoC4/key_touch_Filter.c **** * \brief
 518:Generated_Source\PSoC4/key_touch_Filter.c **** *  Initializes (or re-initialize) the baseline of a sensor in a widget specified
 519:Generated_Source\PSoC4/key_touch_Filter.c **** *  by input parameters.
 520:Generated_Source\PSoC4/key_touch_Filter.c **** *
 521:Generated_Source\PSoC4/key_touch_Filter.c **** * \details  
 522:Generated_Source\PSoC4/key_touch_Filter.c **** *  Initializes (or re-initializes) the baseline for a specified sensor within
 523:Generated_Source\PSoC4/key_touch_Filter.c **** *  a specified widget.
 524:Generated_Source\PSoC4/key_touch_Filter.c **** *
 525:Generated_Source\PSoC4/key_touch_Filter.c **** * \param    widgetId 
 526:Generated_Source\PSoC4/key_touch_Filter.c **** *  Specify the ID number of a widget to initialize the baseline of all sensors
 527:Generated_Source\PSoC4/key_touch_Filter.c **** *  in the widget.
 528:Generated_Source\PSoC4/key_touch_Filter.c **** *  A macro for the widget ID can be found in the 
 529:Generated_Source\PSoC4/key_touch_Filter.c **** *  key_touch Configuration header file defined as 
 530:Generated_Source\PSoC4/key_touch_Filter.c **** *  key_touch_<WidgetName>_WDGT_ID.
 531:Generated_Source\PSoC4/key_touch_Filter.c **** *  
 532:Generated_Source\PSoC4/key_touch_Filter.c **** * \param    sensorId 
 533:Generated_Source\PSoC4/key_touch_Filter.c **** *  Specify the ID number of the sensor within the widget to initialize its 
 534:Generated_Source\PSoC4/key_touch_Filter.c **** *  baseline.
 535:Generated_Source\PSoC4/key_touch_Filter.c **** *  A macro for the sensor ID within a specified widget can be found in the 
 536:Generated_Source\PSoC4/key_touch_Filter.c **** *  key_touch Configuration header file defined as 
 537:Generated_Source\PSoC4/key_touch_Filter.c **** *  key_touch_<WidgetName>_SNS<SensorNumber>_ID
 538:Generated_Source\PSoC4/key_touch_Filter.c **** *
 539:Generated_Source\PSoC4/key_touch_Filter.c **** *******************************************************************************/
 540:Generated_Source\PSoC4/key_touch_Filter.c **** void key_touch_InitializeSensorBaseline(uint32 widgetId, uint32 sensorId)
 541:Generated_Source\PSoC4/key_touch_Filter.c **** {      
 542:Generated_Source\PSoC4/key_touch_Filter.c ****     key_touch_RAM_SNS_STRUCT *ptrSensor = NULL;    
 543:Generated_Source\PSoC4/key_touch_Filter.c ****     key_touch_FLASH_WD_STRUCT const *ptrWidget = NULL;
 544:Generated_Source\PSoC4/key_touch_Filter.c ****     ptrWidget = &key_touch_dsFlash.wdgtArray[widgetId];
 545:Generated_Source\PSoC4/key_touch_Filter.c **** 
 546:Generated_Source\PSoC4/key_touch_Filter.c ****     /* Find pointer to specified sensor object */     
 547:Generated_Source\PSoC4/key_touch_Filter.c ****     ptrSensor = ptrWidget->ptr2SnsRam;
 548:Generated_Source\PSoC4/key_touch_Filter.c ****     ptrSensor = &ptrSensor[sensorId];
 549:Generated_Source\PSoC4/key_touch_Filter.c **** 
 550:Generated_Source\PSoC4/key_touch_Filter.c ****     key_touch_FtInitializeBaseline(ptrSensor, (uint32)ptrWidget->wdgtType);
 551:Generated_Source\PSoC4/key_touch_Filter.c **** }
 552:Generated_Source\PSoC4/key_touch_Filter.c **** 
 553:Generated_Source\PSoC4/key_touch_Filter.c **** 
 554:Generated_Source\PSoC4/key_touch_Filter.c **** /*******************************************************************************
 555:Generated_Source\PSoC4/key_touch_Filter.c **** * Function Name: key_touch_FtInitializeBaseline
 556:Generated_Source\PSoC4/key_touch_Filter.c **** ****************************************************************************//**
 557:Generated_Source\PSoC4/key_touch_Filter.c **** *
 558:Generated_Source\PSoC4/key_touch_Filter.c **** * \brief    Initializes the baseline history for a sensor indicated by an input
 559:Generated_Source\PSoC4/key_touch_Filter.c **** *           parameter.
 560:Generated_Source\PSoC4/key_touch_Filter.c **** *
 561:Generated_Source\PSoC4/key_touch_Filter.c **** * \details  Initializes the baseline history for a sensor indicated by an input
 562:Generated_Source\PSoC4/key_touch_Filter.c **** *           parameter.
ARM GAS  C:\Users\Administrator\AppData\Local\Temp\ccrG5N5m.s 			page 13


 563:Generated_Source\PSoC4/key_touch_Filter.c **** *
 564:Generated_Source\PSoC4/key_touch_Filter.c **** * \param    *ptrSensor The pointer to the sensor RAM object.
 565:Generated_Source\PSoC4/key_touch_Filter.c **** * \param    wdType     Specifies the type of a widget.
 566:Generated_Source\PSoC4/key_touch_Filter.c **** *
 567:Generated_Source\PSoC4/key_touch_Filter.c **** *******************************************************************************/
 568:Generated_Source\PSoC4/key_touch_Filter.c **** CY_INLINE void key_touch_FtInitializeBaseline(key_touch_RAM_SNS_STRUCT *ptrSensor, uint32 wdType) 
 569:Generated_Source\PSoC4/key_touch_Filter.c **** {
 570:Generated_Source\PSoC4/key_touch_Filter.c ****     uint32 channel;
 571:Generated_Source\PSoC4/key_touch_Filter.c **** 
 572:Generated_Source\PSoC4/key_touch_Filter.c ****     /* Apply baseline initialization to every channel in sensor */    
 573:Generated_Source\PSoC4/key_touch_Filter.c ****     for(channel = key_touch_NUM_SCAN_FREQS; channel-- > 0u;) 
 574:Generated_Source\PSoC4/key_touch_Filter.c ****     {
 575:Generated_Source\PSoC4/key_touch_Filter.c ****         key_touch_FtInitializeBaselineChannel(ptrSensor, wdType, channel); 
 576:Generated_Source\PSoC4/key_touch_Filter.c ****     }
 577:Generated_Source\PSoC4/key_touch_Filter.c **** }
 578:Generated_Source\PSoC4/key_touch_Filter.c **** 
 579:Generated_Source\PSoC4/key_touch_Filter.c **** 
 580:Generated_Source\PSoC4/key_touch_Filter.c **** /*******************************************************************************
 581:Generated_Source\PSoC4/key_touch_Filter.c **** * Function Name: key_touch_FtInitializeBaselineChannel
 582:Generated_Source\PSoC4/key_touch_Filter.c **** ****************************************************************************//**
 583:Generated_Source\PSoC4/key_touch_Filter.c **** *
 584:Generated_Source\PSoC4/key_touch_Filter.c **** * \brief    Initializes the baseline history for a sensor indicated by an input
 585:Generated_Source\PSoC4/key_touch_Filter.c **** *           parameter.
 586:Generated_Source\PSoC4/key_touch_Filter.c **** *
 587:Generated_Source\PSoC4/key_touch_Filter.c **** * \details  Initializes the baseline history for a sensor indicated by an input
 588:Generated_Source\PSoC4/key_touch_Filter.c **** *           parameter.
 589:Generated_Source\PSoC4/key_touch_Filter.c **** *
 590:Generated_Source\PSoC4/key_touch_Filter.c **** * \param    *ptrSensor The pointer to the sensor RAM object.
 591:Generated_Source\PSoC4/key_touch_Filter.c **** * \param    wdType     Specifies the type of a widget.
 592:Generated_Source\PSoC4/key_touch_Filter.c **** * \param    channel    Specifies the number of the channel to be initialized.
 593:Generated_Source\PSoC4/key_touch_Filter.c **** *
 594:Generated_Source\PSoC4/key_touch_Filter.c **** *******************************************************************************/
 595:Generated_Source\PSoC4/key_touch_Filter.c **** void key_touch_FtInitializeBaselineChannel(key_touch_RAM_SNS_STRUCT *ptrSensor, uint32 wdType, uint
 596:Generated_Source\PSoC4/key_touch_Filter.c **** {
 119              		.loc 1 596 0
 120              		.cfi_startproc
 121              	.LVL17:
 597:Generated_Source\PSoC4/key_touch_Filter.c ****     #if (key_touch_BASELINE_TYPE == key_touch_IIR_BASELINE)  
 598:Generated_Source\PSoC4/key_touch_Filter.c ****         if ((key_touch_WD_TYPE_ENUM)wdType != key_touch_WD_PROXIMITY_E)
 122              		.loc 1 598 0
 123 0000 C9B2     		uxtb	r1, r1
 124              	.LVL18:
 125 0002 0629     		cmp	r1, #6
 126 0004 02D0     		beq	.L9
 599:Generated_Source\PSoC4/key_touch_Filter.c ****         {
 600:Generated_Source\PSoC4/key_touch_Filter.c ****             #if (key_touch_REGULAR_SENSOR_EN)
 601:Generated_Source\PSoC4/key_touch_Filter.c ****                 #if (key_touch_REGULAR_IIR_BL_TYPE == key_touch_IIR_FILTER_PERFORMANCE)            
 602:Generated_Source\PSoC4/key_touch_Filter.c ****                     ptrSensor->bslnExt[channel] = 0u;                
 127              		.loc 1 602 0
 128 0006 8318     		add	r3, r0, r2
 129 0008 0021     		mov	r1, #0
 130 000a 1971     		strb	r1, [r3, #4]
 131              	.L9:
 603:Generated_Source\PSoC4/key_touch_Filter.c ****                 #endif /* (key_touch_REGULAR_IIR_BL_TYPE == key_touch_IIR_FILTER_PERFORMANCE) */
 604:Generated_Source\PSoC4/key_touch_Filter.c ****             #endif /* (key_touch_REGULAR_SENSOR_EN) */
 605:Generated_Source\PSoC4/key_touch_Filter.c ****         }
 606:Generated_Source\PSoC4/key_touch_Filter.c ****         else
ARM GAS  C:\Users\Administrator\AppData\Local\Temp\ccrG5N5m.s 			page 14


 607:Generated_Source\PSoC4/key_touch_Filter.c ****         {
 608:Generated_Source\PSoC4/key_touch_Filter.c ****             #if (key_touch_PROXIMITY_SENSOR_EN)     
 609:Generated_Source\PSoC4/key_touch_Filter.c ****                 #if (key_touch_PROX_IIR_BL_TYPE == key_touch_IIR_FILTER_PERFORMANCE)               
 610:Generated_Source\PSoC4/key_touch_Filter.c ****                     ptrSensor->bslnExt[channel] = 0u;               
 611:Generated_Source\PSoC4/key_touch_Filter.c ****                 #endif /* (key_touch_PROX_IIR_BL_TYPE == key_touch_IIR_FILTER_PERFORMANCE) */
 612:Generated_Source\PSoC4/key_touch_Filter.c ****             #endif /* (key_touch_PROX_SENSOR_EN) */
 613:Generated_Source\PSoC4/key_touch_Filter.c ****         }
 614:Generated_Source\PSoC4/key_touch_Filter.c ****     #else
 615:Generated_Source\PSoC4/key_touch_Filter.c ****         /* key_touch_BASELINE_TYPE == key_touch_BUCKET_BASELINE */        
 616:Generated_Source\PSoC4/key_touch_Filter.c ****         ptrSensor->bslnExt[channel] = 0u;        
 617:Generated_Source\PSoC4/key_touch_Filter.c ****     #endif /* (key_touch_BASELINE_TYPE == key_touch_IIR_BASELINE) */      
 618:Generated_Source\PSoC4/key_touch_Filter.c ****     
 619:Generated_Source\PSoC4/key_touch_Filter.c ****     ptrSensor->bsln[channel] = ptrSensor->raw[channel]; 
 132              		.loc 1 619 0
 133 000c 5300     		lsl	r3, r2, #1
 134 000e 195A     		ldrh	r1, [r3, r0]
 135 0010 C318     		add	r3, r0, r3
 136 0012 5980     		strh	r1, [r3, #2]
 620:Generated_Source\PSoC4/key_touch_Filter.c ****     
 621:Generated_Source\PSoC4/key_touch_Filter.c ****     #if (key_touch_ENABLE == key_touch_TST_BSLN_DUPLICATION_EN)
 622:Generated_Source\PSoC4/key_touch_Filter.c ****     /* Update baseline inversion of the channel in sensor */    
 623:Generated_Source\PSoC4/key_touch_Filter.c ****         ptrSensor->bslnInv[channel] = ~(ptrSensor->bsln[channel]);
 624:Generated_Source\PSoC4/key_touch_Filter.c ****     #endif /* (key_touch_ENABLE == key_touch_TST_BSLN_DUPLICATION_EN) */
 625:Generated_Source\PSoC4/key_touch_Filter.c **** 
 626:Generated_Source\PSoC4/key_touch_Filter.c ****     ptrSensor->negBslnRstCnt[channel] = 0u;
 137              		.loc 1 626 0
 138 0014 8218     		add	r2, r0, r2
 139              	.LVL19:
 140 0016 0023     		mov	r3, #0
 141 0018 1372     		strb	r3, [r2, #8]
 627:Generated_Source\PSoC4/key_touch_Filter.c **** }
 142              		.loc 1 627 0
 143              		@ sp needed
 144 001a 7047     		bx	lr
 145              		.cfi_endproc
 146              	.LFE10:
 147              		.size	key_touch_FtInitializeBaselineChannel, .-key_touch_FtInitializeBaselineChannel
 148              		.section	.text.key_touch_FtInitializeBaseline,"ax",%progbits
 149              		.align	2
 150              		.global	key_touch_FtInitializeBaseline
 151              		.code	16
 152              		.thumb_func
 153              		.type	key_touch_FtInitializeBaseline, %function
 154              	key_touch_FtInitializeBaseline:
 155              	.LFB9:
 569:Generated_Source\PSoC4/key_touch_Filter.c ****     uint32 channel;
 156              		.loc 1 569 0
 157              		.cfi_startproc
 158              	.LVL20:
 159 0000 70B5     		push	{r4, r5, r6, lr}
 160              		.cfi_def_cfa_offset 16
 161              		.cfi_offset 4, -16
 162              		.cfi_offset 5, -12
 163              		.cfi_offset 6, -8
 164              		.cfi_offset 14, -4
 165 0002 061C     		mov	r6, r0
 166 0004 0D1C     		mov	r5, r1
ARM GAS  C:\Users\Administrator\AppData\Local\Temp\ccrG5N5m.s 			page 15


 167              	.LVL21:
 573:Generated_Source\PSoC4/key_touch_Filter.c ****     {
 168              		.loc 1 573 0
 169 0006 0123     		mov	r3, #1
 170 0008 05E0     		b	.L11
 171              	.LVL22:
 172              	.L12:
 575:Generated_Source\PSoC4/key_touch_Filter.c ****     }
 173              		.loc 1 575 0
 174 000a 301C     		mov	r0, r6
 175 000c 291C     		mov	r1, r5
 176 000e 221C     		mov	r2, r4
 177 0010 FFF7FEFF 		bl	key_touch_FtInitializeBaselineChannel
 178              	.LVL23:
 573:Generated_Source\PSoC4/key_touch_Filter.c ****     {
 179              		.loc 1 573 0
 180 0014 231C     		mov	r3, r4
 181              	.LVL24:
 182              	.L11:
 573:Generated_Source\PSoC4/key_touch_Filter.c ****     {
 183              		.loc 1 573 0 is_stmt 0 discriminator 1
 184 0016 5C1E     		sub	r4, r3, #1
 185              	.LVL25:
 186 0018 002B     		cmp	r3, #0
 187 001a F6D1     		bne	.L12
 577:Generated_Source\PSoC4/key_touch_Filter.c **** 
 188              		.loc 1 577 0 is_stmt 1
 189              		@ sp needed
 190              	.LVL26:
 191              	.LVL27:
 192              	.LVL28:
 193 001c 70BD     		pop	{r4, r5, r6, pc}
 194              		.cfi_endproc
 195              	.LFE9:
 196              		.size	key_touch_FtInitializeBaseline, .-key_touch_FtInitializeBaseline
 197 001e C046     		.section	.text.key_touch_InitializeSensorBaseline,"ax",%progbits
 198              		.align	2
 199              		.global	key_touch_InitializeSensorBaseline
 200              		.code	16
 201              		.thumb_func
 202              		.type	key_touch_InitializeSensorBaseline, %function
 203              	key_touch_InitializeSensorBaseline:
 204              	.LFB8:
 541:Generated_Source\PSoC4/key_touch_Filter.c ****     key_touch_RAM_SNS_STRUCT *ptrSensor = NULL;    
 205              		.loc 1 541 0
 206              		.cfi_startproc
 207              	.LVL29:
 208 0000 70B5     		push	{r4, r5, r6, lr}
 209              		.cfi_def_cfa_offset 16
 210              		.cfi_offset 4, -16
 211              		.cfi_offset 5, -12
 212              		.cfi_offset 6, -8
 213              		.cfi_offset 14, -4
 214              	.LVL30:
 547:Generated_Source\PSoC4/key_touch_Filter.c ****     ptrSensor = &ptrSensor[sensorId];
 215              		.loc 1 547 0
 216 0002 4001     		lsl	r0, r0, #5
ARM GAS  C:\Users\Administrator\AppData\Local\Temp\ccrG5N5m.s 			page 16


 217              	.LVL31:
 218 0004 094B     		ldr	r3, .L16
 219 0006 1818     		add	r0, r3, r0
 220              	.LVL32:
 548:Generated_Source\PSoC4/key_touch_Filter.c **** 
 221              		.loc 1 548 0
 222 0008 8B00     		lsl	r3, r1, #2
 223 000a 5918     		add	r1, r3, r1
 224              	.LVL33:
 225 000c 4900     		lsl	r1, r1, #1
 226 000e 8368     		ldr	r3, [r0, #8]
 227 0010 5C18     		add	r4, r3, r1
 228              	.LVL34:
 550:Generated_Source\PSoC4/key_touch_Filter.c **** }
 229              		.loc 1 550 0
 230 0012 067E     		ldrb	r6, [r0, #24]
 231              	.LVL35:
 232              	.LBB4:
 233              	.LBB5:
 573:Generated_Source\PSoC4/key_touch_Filter.c ****     {
 234              		.loc 1 573 0
 235 0014 0123     		mov	r3, #1
 236 0016 05E0     		b	.L14
 237              	.LVL36:
 238              	.L15:
 575:Generated_Source\PSoC4/key_touch_Filter.c ****     }
 239              		.loc 1 575 0
 240 0018 201C     		mov	r0, r4
 241 001a 311C     		mov	r1, r6
 242 001c 2A1C     		mov	r2, r5
 243 001e FFF7FEFF 		bl	key_touch_FtInitializeBaselineChannel
 244              	.LVL37:
 573:Generated_Source\PSoC4/key_touch_Filter.c ****     {
 245              		.loc 1 573 0
 246 0022 2B1C     		mov	r3, r5
 247              	.LVL38:
 248              	.L14:
 249 0024 5D1E     		sub	r5, r3, #1
 250              	.LVL39:
 251 0026 002B     		cmp	r3, #0
 252 0028 F6D1     		bne	.L15
 253              	.LBE5:
 254              	.LBE4:
 551:Generated_Source\PSoC4/key_touch_Filter.c **** 
 255              		.loc 1 551 0
 256              		@ sp needed
 257              	.LVL40:
 258              	.LVL41:
 259              	.LVL42:
 260 002a 70BD     		pop	{r4, r5, r6, pc}
 261              	.L17:
 262              		.align	2
 263              	.L16:
 264 002c 00000000 		.word	key_touch_dsFlash
 265              		.cfi_endproc
 266              	.LFE8:
 267              		.size	key_touch_InitializeSensorBaseline, .-key_touch_InitializeSensorBaseline
ARM GAS  C:\Users\Administrator\AppData\Local\Temp\ccrG5N5m.s 			page 17


 268              		.section	.text.key_touch_InitializeWidgetBaseline,"ax",%progbits
 269              		.align	2
 270              		.global	key_touch_InitializeWidgetBaseline
 271              		.code	16
 272              		.thumb_func
 273              		.type	key_touch_InitializeWidgetBaseline, %function
 274              	key_touch_InitializeWidgetBaseline:
 275              	.LFB7:
 497:Generated_Source\PSoC4/key_touch_Filter.c ****     uint32 sensorId;
 276              		.loc 1 497 0
 277              		.cfi_startproc
 278              	.LVL43:
 279 0000 38B5     		push	{r3, r4, r5, lr}
 280              		.cfi_def_cfa_offset 16
 281              		.cfi_offset 3, -16
 282              		.cfi_offset 4, -12
 283              		.cfi_offset 5, -8
 284              		.cfi_offset 14, -4
 285 0002 051C     		mov	r5, r0
 286              	.LVL44:
 504:Generated_Source\PSoC4/key_touch_Filter.c ****     
 287              		.loc 1 504 0
 288 0004 4301     		lsl	r3, r0, #5
 289 0006 064A     		ldr	r2, .L21
 290 0008 D318     		add	r3, r2, r3
 291              	.LVL45:
 292 000a DB8A     		ldrh	r3, [r3, #22]
 293              	.LVL46:
 506:Generated_Source\PSoC4/key_touch_Filter.c ****     {
 294              		.loc 1 506 0
 295 000c 04E0     		b	.L19
 296              	.LVL47:
 297              	.L20:
 508:Generated_Source\PSoC4/key_touch_Filter.c ****     }
 298              		.loc 1 508 0
 299 000e 281C     		mov	r0, r5
 300 0010 211C     		mov	r1, r4
 301 0012 FFF7FEFF 		bl	key_touch_InitializeSensorBaseline
 302              	.LVL48:
 506:Generated_Source\PSoC4/key_touch_Filter.c ****     {
 303              		.loc 1 506 0
 304 0016 231C     		mov	r3, r4
 305              	.LVL49:
 306              	.L19:
 506:Generated_Source\PSoC4/key_touch_Filter.c ****     {
 307              		.loc 1 506 0 is_stmt 0 discriminator 1
 308 0018 5C1E     		sub	r4, r3, #1
 309              	.LVL50:
 310 001a 002B     		cmp	r3, #0
 311 001c F7D1     		bne	.L20
 510:Generated_Source\PSoC4/key_touch_Filter.c **** 
 312              		.loc 1 510 0 is_stmt 1
 313              		@ sp needed
 314              	.LVL51:
 315              	.LVL52:
 316 001e 38BD     		pop	{r3, r4, r5, pc}
 317              	.L22:
ARM GAS  C:\Users\Administrator\AppData\Local\Temp\ccrG5N5m.s 			page 18


 318              		.align	2
 319              	.L21:
 320 0020 00000000 		.word	key_touch_dsFlash
 321              		.cfi_endproc
 322              	.LFE7:
 323              		.size	key_touch_InitializeWidgetBaseline, .-key_touch_InitializeWidgetBaseline
 324              		.section	.text.key_touch_InitializeAllBaselines,"ax",%progbits
 325              		.align	2
 326              		.global	key_touch_InitializeAllBaselines
 327              		.code	16
 328              		.thumb_func
 329              		.type	key_touch_InitializeAllBaselines, %function
 330              	key_touch_InitializeAllBaselines:
 331              	.LFB6:
 466:Generated_Source\PSoC4/key_touch_Filter.c ****     uint32 widgetId;    
 332              		.loc 1 466 0
 333              		.cfi_startproc
 334 0000 10B5     		push	{r4, lr}
 335              		.cfi_def_cfa_offset 8
 336              		.cfi_offset 4, -8
 337              		.cfi_offset 14, -4
 338              	.LVL53:
 469:Generated_Source\PSoC4/key_touch_Filter.c ****     {
 339              		.loc 1 469 0
 340 0002 0C23     		mov	r3, #12
 341 0004 03E0     		b	.L24
 342              	.LVL54:
 343              	.L25:
 471:Generated_Source\PSoC4/key_touch_Filter.c ****     }
 344              		.loc 1 471 0
 345 0006 201C     		mov	r0, r4
 346 0008 FFF7FEFF 		bl	key_touch_InitializeWidgetBaseline
 347              	.LVL55:
 469:Generated_Source\PSoC4/key_touch_Filter.c ****     {
 348              		.loc 1 469 0
 349 000c 231C     		mov	r3, r4
 350              	.LVL56:
 351              	.L24:
 469:Generated_Source\PSoC4/key_touch_Filter.c ****     {
 352              		.loc 1 469 0 is_stmt 0 discriminator 1
 353 000e 5C1E     		sub	r4, r3, #1
 354              	.LVL57:
 355 0010 002B     		cmp	r3, #0
 356 0012 F8D1     		bne	.L25
 473:Generated_Source\PSoC4/key_touch_Filter.c **** 
 357              		.loc 1 473 0 is_stmt 1
 358              		@ sp needed
 359              	.LVL58:
 360 0014 10BD     		pop	{r4, pc}
 361              		.cfi_endproc
 362              	.LFE6:
 363              		.size	key_touch_InitializeAllBaselines, .-key_touch_InitializeAllBaselines
 364 0016 C046     		.section	.text.key_touch_RunNoiseEnvelope,"ax",%progbits
 365              		.align	2
 366              		.global	key_touch_RunNoiseEnvelope
 367              		.code	16
 368              		.thumb_func
ARM GAS  C:\Users\Administrator\AppData\Local\Temp\ccrG5N5m.s 			page 19


 369              		.type	key_touch_RunNoiseEnvelope, %function
 370              	key_touch_RunNoiseEnvelope:
 371              	.LFB11:
 628:Generated_Source\PSoC4/key_touch_Filter.c **** 
 629:Generated_Source\PSoC4/key_touch_Filter.c **** 
 630:Generated_Source\PSoC4/key_touch_Filter.c **** #if (key_touch_REGULAR_RC_IIR_FILTER_EN || key_touch_PROX_RC_IIR_FILTER_EN)
 631:Generated_Source\PSoC4/key_touch_Filter.c **** 
 632:Generated_Source\PSoC4/key_touch_Filter.c **** /*******************************************************************************
 633:Generated_Source\PSoC4/key_touch_Filter.c **** * Function Name: key_touch_InitializeIIR
 634:Generated_Source\PSoC4/key_touch_Filter.c **** ****************************************************************************//**
 635:Generated_Source\PSoC4/key_touch_Filter.c **** *
 636:Generated_Source\PSoC4/key_touch_Filter.c **** * \brief    Initialize the IIR filter history.
 637:Generated_Source\PSoC4/key_touch_Filter.c **** *
 638:Generated_Source\PSoC4/key_touch_Filter.c **** * \details  Initialize the IIR filter history.
 639:Generated_Source\PSoC4/key_touch_Filter.c **** *
 640:Generated_Source\PSoC4/key_touch_Filter.c **** * \param    widgetId Specifies the ID number of the widget.
 641:Generated_Source\PSoC4/key_touch_Filter.c **** * \param    sensorId Specifies the ID number of the sensor in the widget.
 642:Generated_Source\PSoC4/key_touch_Filter.c **** *
 643:Generated_Source\PSoC4/key_touch_Filter.c **** *******************************************************************************/
 644:Generated_Source\PSoC4/key_touch_Filter.c **** void key_touch_InitializeIIR(uint32 widgetId, uint32 sensorId)
 645:Generated_Source\PSoC4/key_touch_Filter.c **** {   
 646:Generated_Source\PSoC4/key_touch_Filter.c ****     key_touch_FLASH_WD_STRUCT const *ptrWidget = &key_touch_dsFlash.wdgtArray[widgetId];      
 647:Generated_Source\PSoC4/key_touch_Filter.c ****     key_touch_RAM_SNS_STRUCT *ptrSensor = NULL;    
 648:Generated_Source\PSoC4/key_touch_Filter.c ****     key_touch_PTR_FILTER_VARIANT ptrFilterHistObj; 
 649:Generated_Source\PSoC4/key_touch_Filter.c ****               
 650:Generated_Source\PSoC4/key_touch_Filter.c ****     /* Find pointer to specified sensor object */     
 651:Generated_Source\PSoC4/key_touch_Filter.c ****     ptrSensor = ptrWidget->ptr2SnsRam;
 652:Generated_Source\PSoC4/key_touch_Filter.c ****     ptrSensor = &ptrSensor[sensorId];
 653:Generated_Source\PSoC4/key_touch_Filter.c ****         
 654:Generated_Source\PSoC4/key_touch_Filter.c ****     /* Find pointer to specified filter sensor object */     
 655:Generated_Source\PSoC4/key_touch_Filter.c ****     ptrFilterHistObj.ptr = ptrWidget->ptr2FltrHistory;
 656:Generated_Source\PSoC4/key_touch_Filter.c ****     
 657:Generated_Source\PSoC4/key_touch_Filter.c ****     if ((key_touch_WD_TYPE_ENUM)ptrWidget->wdgtType != key_touch_WD_PROXIMITY_E)
 658:Generated_Source\PSoC4/key_touch_Filter.c ****     {
 659:Generated_Source\PSoC4/key_touch_Filter.c ****         #if (key_touch_REGULAR_SENSOR_EN)
 660:Generated_Source\PSoC4/key_touch_Filter.c ****             ptrFilterHistObj.ptrRegular = &ptrFilterHistObj.ptrRegular[sensorId];
 661:Generated_Source\PSoC4/key_touch_Filter.c ****         #endif /* (key_touch_REGULAR_SENSOR_EN) */
 662:Generated_Source\PSoC4/key_touch_Filter.c ****     }
 663:Generated_Source\PSoC4/key_touch_Filter.c ****     else
 664:Generated_Source\PSoC4/key_touch_Filter.c ****     {
 665:Generated_Source\PSoC4/key_touch_Filter.c ****         #if (key_touch_PROXIMITY_SENSOR_EN)
 666:Generated_Source\PSoC4/key_touch_Filter.c ****             ptrFilterHistObj.ptrProx = &ptrFilterHistObj.ptrProx[sensorId];
 667:Generated_Source\PSoC4/key_touch_Filter.c ****         #endif /* (key_touch_PROXIMITY_SENSOR_EN) */
 668:Generated_Source\PSoC4/key_touch_Filter.c ****     }    
 669:Generated_Source\PSoC4/key_touch_Filter.c ****     
 670:Generated_Source\PSoC4/key_touch_Filter.c ****     key_touch_InitializeIIRInternal(ptrFilterHistObj, ptrSensor, (uint32)ptrWidget->wdgtType);
 671:Generated_Source\PSoC4/key_touch_Filter.c **** }
 672:Generated_Source\PSoC4/key_touch_Filter.c **** 
 673:Generated_Source\PSoC4/key_touch_Filter.c **** 
 674:Generated_Source\PSoC4/key_touch_Filter.c **** /*******************************************************************************
 675:Generated_Source\PSoC4/key_touch_Filter.c **** * Function Name: key_touch_RunIIR
 676:Generated_Source\PSoC4/key_touch_Filter.c **** ****************************************************************************//**
 677:Generated_Source\PSoC4/key_touch_Filter.c **** *
 678:Generated_Source\PSoC4/key_touch_Filter.c **** * \brief    Executes the IIR filter algorithm on a sensor indicated by an input
 679:Generated_Source\PSoC4/key_touch_Filter.c **** *           parameter. 
 680:Generated_Source\PSoC4/key_touch_Filter.c **** *
 681:Generated_Source\PSoC4/key_touch_Filter.c **** * \details  Executes the IIR filter algorithm on a sensor indicated by an input
ARM GAS  C:\Users\Administrator\AppData\Local\Temp\ccrG5N5m.s 			page 20


 682:Generated_Source\PSoC4/key_touch_Filter.c **** *           parameter. 
 683:Generated_Source\PSoC4/key_touch_Filter.c **** *
 684:Generated_Source\PSoC4/key_touch_Filter.c **** * \param    widgetId Specifies the ID number of the widget.
 685:Generated_Source\PSoC4/key_touch_Filter.c **** * \param    sensorId Specifies the ID number of the sensor in the widget.
 686:Generated_Source\PSoC4/key_touch_Filter.c **** *
 687:Generated_Source\PSoC4/key_touch_Filter.c **** *******************************************************************************/
 688:Generated_Source\PSoC4/key_touch_Filter.c **** void key_touch_RunIIR(uint32 widgetId, uint32 sensorId)
 689:Generated_Source\PSoC4/key_touch_Filter.c **** {
 690:Generated_Source\PSoC4/key_touch_Filter.c ****     key_touch_FLASH_WD_STRUCT const *ptrWidget = &key_touch_dsFlash.wdgtArray[widgetId];      
 691:Generated_Source\PSoC4/key_touch_Filter.c ****     key_touch_RAM_SNS_STRUCT *ptrSensor = NULL;    
 692:Generated_Source\PSoC4/key_touch_Filter.c ****     key_touch_PTR_FILTER_VARIANT ptrFilterHistObj; 
 693:Generated_Source\PSoC4/key_touch_Filter.c ****               
 694:Generated_Source\PSoC4/key_touch_Filter.c ****     /* Find pointer to specified sensor object */     
 695:Generated_Source\PSoC4/key_touch_Filter.c ****     ptrSensor = ptrWidget->ptr2SnsRam;
 696:Generated_Source\PSoC4/key_touch_Filter.c ****     ptrSensor = &ptrSensor[sensorId];
 697:Generated_Source\PSoC4/key_touch_Filter.c ****         
 698:Generated_Source\PSoC4/key_touch_Filter.c ****     /* Find pointer to specified filter sensor object */     
 699:Generated_Source\PSoC4/key_touch_Filter.c ****     ptrFilterHistObj.ptr = ptrWidget->ptr2FltrHistory;
 700:Generated_Source\PSoC4/key_touch_Filter.c ****     
 701:Generated_Source\PSoC4/key_touch_Filter.c ****     if ((key_touch_WD_TYPE_ENUM)ptrWidget->wdgtType != key_touch_WD_PROXIMITY_E)
 702:Generated_Source\PSoC4/key_touch_Filter.c ****     {
 703:Generated_Source\PSoC4/key_touch_Filter.c ****         #if (key_touch_REGULAR_SENSOR_EN)
 704:Generated_Source\PSoC4/key_touch_Filter.c ****             ptrFilterHistObj.ptrRegular = &ptrFilterHistObj.ptrRegular[sensorId];
 705:Generated_Source\PSoC4/key_touch_Filter.c ****         #endif /* (key_touch_REGULAR_SENSOR_EN) */
 706:Generated_Source\PSoC4/key_touch_Filter.c ****     }
 707:Generated_Source\PSoC4/key_touch_Filter.c ****     else
 708:Generated_Source\PSoC4/key_touch_Filter.c ****     {
 709:Generated_Source\PSoC4/key_touch_Filter.c ****         #if (key_touch_PROXIMITY_SENSOR_EN)
 710:Generated_Source\PSoC4/key_touch_Filter.c ****             ptrFilterHistObj.ptrProx = &ptrFilterHistObj.ptrProx[sensorId];
 711:Generated_Source\PSoC4/key_touch_Filter.c ****         #endif /* (key_touch_PROXIMITY_SENSOR_EN) */
 712:Generated_Source\PSoC4/key_touch_Filter.c ****     }    
 713:Generated_Source\PSoC4/key_touch_Filter.c ****     
 714:Generated_Source\PSoC4/key_touch_Filter.c ****     key_touch_RunIIRInternal(ptrFilterHistObj, ptrSensor, (uint32)ptrWidget->wdgtType);
 715:Generated_Source\PSoC4/key_touch_Filter.c **** }
 716:Generated_Source\PSoC4/key_touch_Filter.c ****     
 717:Generated_Source\PSoC4/key_touch_Filter.c **** /*******************************************************************************
 718:Generated_Source\PSoC4/key_touch_Filter.c **** * Function Name: key_touch_InitializeIIRInternal
 719:Generated_Source\PSoC4/key_touch_Filter.c **** ****************************************************************************//**
 720:Generated_Source\PSoC4/key_touch_Filter.c **** *
 721:Generated_Source\PSoC4/key_touch_Filter.c **** * \brief    Initializes the IIR filter history.
 722:Generated_Source\PSoC4/key_touch_Filter.c **** *
 723:Generated_Source\PSoC4/key_touch_Filter.c **** * \details  Initializes the IIR filter history.
 724:Generated_Source\PSoC4/key_touch_Filter.c **** *
 725:Generated_Source\PSoC4/key_touch_Filter.c **** * \param    ptrFilterHistObj The pointer to the filter RAM object of the sensor.
 726:Generated_Source\PSoC4/key_touch_Filter.c **** * \param    ptrSensorObj     The pointer to the sensor RAM object of the sensor.
 727:Generated_Source\PSoC4/key_touch_Filter.c **** * \param    wdType           Specifies the type of a widget.                                  
 728:Generated_Source\PSoC4/key_touch_Filter.c **** *
 729:Generated_Source\PSoC4/key_touch_Filter.c **** *******************************************************************************/
 730:Generated_Source\PSoC4/key_touch_Filter.c **** void key_touch_InitializeIIRInternal(key_touch_PTR_FILTER_VARIANT ptrFilterHistObj,
 731:Generated_Source\PSoC4/key_touch_Filter.c ****                                             key_touch_RAM_SNS_STRUCT *ptrSensorObj, uint32 wdType)
 732:Generated_Source\PSoC4/key_touch_Filter.c **** {
 733:Generated_Source\PSoC4/key_touch_Filter.c ****     uint32 channel;
 734:Generated_Source\PSoC4/key_touch_Filter.c **** 
 735:Generated_Source\PSoC4/key_touch_Filter.c ****     for(channel = key_touch_NUM_SCAN_FREQS; channel-- > 0u;)
 736:Generated_Source\PSoC4/key_touch_Filter.c ****     {
 737:Generated_Source\PSoC4/key_touch_Filter.c ****         if ((key_touch_WD_TYPE_ENUM)wdType != key_touch_WD_PROXIMITY_E)
 738:Generated_Source\PSoC4/key_touch_Filter.c ****         {
ARM GAS  C:\Users\Administrator\AppData\Local\Temp\ccrG5N5m.s 			page 21


 739:Generated_Source\PSoC4/key_touch_Filter.c ****             #if (key_touch_REGULAR_SENSOR_EN && key_touch_REGULAR_RC_IIR_FILTER_EN)
 740:Generated_Source\PSoC4/key_touch_Filter.c ****                 #if (key_touch_REGULAR_IIR_RC_TYPE == key_touch_IIR_FILTER_PERFORMANCE)
 741:Generated_Source\PSoC4/key_touch_Filter.c ****                     ptrFilterHistObj.ptrRegular->regularChannel[channel].iirHistory = ptrSensorObj-
 742:Generated_Source\PSoC4/key_touch_Filter.c ****                     ptrFilterHistObj.ptrRegular->regularChannel[channel].iirHistoryLow = 0u;
 743:Generated_Source\PSoC4/key_touch_Filter.c ****                 #else
 744:Generated_Source\PSoC4/key_touch_Filter.c ****                     ptrFilterHistObj.ptrRegular->regularChannel[channel].iirHistory = ptrSensorObj-
 745:Generated_Source\PSoC4/key_touch_Filter.c ****                 #endif /* (key_touch_REGULAR_IIR_RC_TYPE == key_touch_IIR_FILTER_PERFORMANCE) */
 746:Generated_Source\PSoC4/key_touch_Filter.c ****             #endif /* (key_touch_REGULAR_SENSOR_EN) */    
 747:Generated_Source\PSoC4/key_touch_Filter.c ****         }
 748:Generated_Source\PSoC4/key_touch_Filter.c ****         else
 749:Generated_Source\PSoC4/key_touch_Filter.c ****         {
 750:Generated_Source\PSoC4/key_touch_Filter.c ****             #if (key_touch_PROXIMITY_SENSOR_EN && key_touch_PROX_RC_IIR_FILTER_EN)
 751:Generated_Source\PSoC4/key_touch_Filter.c ****                 #if (key_touch_PROX_IIR_RC_TYPE == key_touch_IIR_FILTER_PERFORMANCE)
 752:Generated_Source\PSoC4/key_touch_Filter.c ****                     ptrFilterHistObj.ptrProx->proxChannel[channel].iirHistory = ptrSensorObj->raw[c
 753:Generated_Source\PSoC4/key_touch_Filter.c ****                     ptrFilterHistObj.ptrProx->proxChannel[channel].iirHistoryLow = 0u;    
 754:Generated_Source\PSoC4/key_touch_Filter.c ****                 #else
 755:Generated_Source\PSoC4/key_touch_Filter.c ****                     ptrFilterHistObj.ptrProx->proxChannel[channel].iirHistory = ptrSensorObj->raw[c
 756:Generated_Source\PSoC4/key_touch_Filter.c ****                 #endif /* (key_touch_PROX_IIR_RC_TYPE == key_touch_IIR_FILTER_PERFORMANCE) */
 757:Generated_Source\PSoC4/key_touch_Filter.c ****             #endif /* (key_touch_PROX_SENSOR_EN) */
 758:Generated_Source\PSoC4/key_touch_Filter.c ****         }    
 759:Generated_Source\PSoC4/key_touch_Filter.c ****     }    
 760:Generated_Source\PSoC4/key_touch_Filter.c **** }
 761:Generated_Source\PSoC4/key_touch_Filter.c ****  
 762:Generated_Source\PSoC4/key_touch_Filter.c **** 
 763:Generated_Source\PSoC4/key_touch_Filter.c **** /*******************************************************************************
 764:Generated_Source\PSoC4/key_touch_Filter.c **** * Function Name: key_touch_RunIIRInternal
 765:Generated_Source\PSoC4/key_touch_Filter.c **** ****************************************************************************//**
 766:Generated_Source\PSoC4/key_touch_Filter.c **** *
 767:Generated_Source\PSoC4/key_touch_Filter.c **** * \brief    Run the IIR filter.
 768:Generated_Source\PSoC4/key_touch_Filter.c **** *
 769:Generated_Source\PSoC4/key_touch_Filter.c **** * \details  Run the IIR filter.
 770:Generated_Source\PSoC4/key_touch_Filter.c **** *
 771:Generated_Source\PSoC4/key_touch_Filter.c **** * \param    ptrFilterHistObj The pointer to the filter RAM object of the sensor.
 772:Generated_Source\PSoC4/key_touch_Filter.c **** * \param    ptrSensorObj     The pointer to the sensor RAM object of the sensor.
 773:Generated_Source\PSoC4/key_touch_Filter.c **** * \param    wdType           Specifies the type of a widget.
 774:Generated_Source\PSoC4/key_touch_Filter.c **** *
 775:Generated_Source\PSoC4/key_touch_Filter.c **** *******************************************************************************/    
 776:Generated_Source\PSoC4/key_touch_Filter.c **** void key_touch_RunIIRInternal(key_touch_PTR_FILTER_VARIANT ptrFilterHistObj, 
 777:Generated_Source\PSoC4/key_touch_Filter.c ****                                      key_touch_RAM_SNS_STRUCT *ptrSensorObj, uint32 wdType)
 778:Generated_Source\PSoC4/key_touch_Filter.c **** {        
 779:Generated_Source\PSoC4/key_touch_Filter.c ****     uint32 channel;
 780:Generated_Source\PSoC4/key_touch_Filter.c ****     uint32 temp;
 781:Generated_Source\PSoC4/key_touch_Filter.c **** 
 782:Generated_Source\PSoC4/key_touch_Filter.c ****     for(channel = key_touch_NUM_SCAN_FREQS; channel-- > 0u;)
 783:Generated_Source\PSoC4/key_touch_Filter.c ****     {
 784:Generated_Source\PSoC4/key_touch_Filter.c ****         if ((key_touch_WD_TYPE_ENUM)wdType != key_touch_WD_PROXIMITY_E)
 785:Generated_Source\PSoC4/key_touch_Filter.c ****         {
 786:Generated_Source\PSoC4/key_touch_Filter.c ****             #if (key_touch_REGULAR_SENSOR_EN && key_touch_REGULAR_RC_IIR_FILTER_EN)
 787:Generated_Source\PSoC4/key_touch_Filter.c ****                 #if (key_touch_REGULAR_IIR_RC_TYPE == key_touch_IIR_FILTER_PERFORMANCE)
 788:Generated_Source\PSoC4/key_touch_Filter.c ****                     temp = ((uint32)ptrFilterHistObj.ptrRegular->regularChannel[channel].iirHistory
 789:Generated_Source\PSoC4/key_touch_Filter.c ****                     temp |= ptrFilterHistObj.ptrRegular->regularChannel[channel].iirHistoryLow;
 790:Generated_Source\PSoC4/key_touch_Filter.c ****                     temp = key_touch_FtIIR1stOrder((uint32)ptrSensorObj->raw[channel],
 791:Generated_Source\PSoC4/key_touch_Filter.c ****                                                         temp,
 792:Generated_Source\PSoC4/key_touch_Filter.c ****                                                         key_touch_REGULAR_IIR_RC_N,
 793:Generated_Source\PSoC4/key_touch_Filter.c ****                                                         key_touch_REGULAR_IIR_RC_SHIFT);
 794:Generated_Source\PSoC4/key_touch_Filter.c ****                     ptrFilterHistObj.ptrRegular->regularChannel[channel].iirHistory = LO16(temp >>k
 795:Generated_Source\PSoC4/key_touch_Filter.c ****                     ptrFilterHistObj.ptrRegular->regularChannel[channel].iirHistoryLow = LO8(temp);
ARM GAS  C:\Users\Administrator\AppData\Local\Temp\ccrG5N5m.s 			page 22


 796:Generated_Source\PSoC4/key_touch_Filter.c ****                     ptrSensorObj->raw[channel] = LO16(temp >>key_touch_REGULAR_IIR_RC_SHIFT);
 797:Generated_Source\PSoC4/key_touch_Filter.c ****                 #else
 798:Generated_Source\PSoC4/key_touch_Filter.c ****                     temp =key_touch_FtIIR1stOrder((uint32)ptrSensorObj->raw[channel],
 799:Generated_Source\PSoC4/key_touch_Filter.c ****                                                         (uint32)ptrFilterHistObj.ptrRegular->regula
 800:Generated_Source\PSoC4/key_touch_Filter.c ****                                                         key_touch_REGULAR_IIR_RC_N,
 801:Generated_Source\PSoC4/key_touch_Filter.c ****                                                         key_touch_REGULAR_IIR_RC_SHIFT);
 802:Generated_Source\PSoC4/key_touch_Filter.c ****                     ptrFilterHistObj.ptrRegular->regularChannel[channel].iirHistory = LO16(temp);
 803:Generated_Source\PSoC4/key_touch_Filter.c ****                     ptrSensorObj->raw[channel] = LO16(temp >>key_touch_REGULAR_IIR_RC_SHIFT);
 804:Generated_Source\PSoC4/key_touch_Filter.c ****                 #endif /* (key_touch_REGULAR_IIR_RC_TYPE == key_touch_IIR_FILTER_PERFORMANCE) */
 805:Generated_Source\PSoC4/key_touch_Filter.c ****             #endif /* (key_touch_REGULAR_SENSOR_EN) */    
 806:Generated_Source\PSoC4/key_touch_Filter.c ****         }
 807:Generated_Source\PSoC4/key_touch_Filter.c ****         else
 808:Generated_Source\PSoC4/key_touch_Filter.c ****         {
 809:Generated_Source\PSoC4/key_touch_Filter.c ****             #if (key_touch_PROXIMITY_SENSOR_EN && key_touch_PROX_RC_IIR_FILTER_EN)
 810:Generated_Source\PSoC4/key_touch_Filter.c ****                 #if (key_touch_PROX_IIR_RC_TYPE == key_touch_IIR_FILTER_PERFORMANCE)
 811:Generated_Source\PSoC4/key_touch_Filter.c ****                     temp =  ptrFilterHistObj.ptrProx->proxChannel[channel].iirHistory << key_touch_
 812:Generated_Source\PSoC4/key_touch_Filter.c ****                     temp |= ptrFilterHistObj.ptrProx->proxChannel[channel].iirHistoryLow;
 813:Generated_Source\PSoC4/key_touch_Filter.c ****                     temp =key_touch_FtIIR1stOrder((uint32)ptrSensorObj->raw[channel],
 814:Generated_Source\PSoC4/key_touch_Filter.c ****                                                         temp,
 815:Generated_Source\PSoC4/key_touch_Filter.c ****                                                         key_touch_PROX_IIR_RC_N,
 816:Generated_Source\PSoC4/key_touch_Filter.c ****                                                         key_touch_PROX_IIR_RC_SHIFT);
 817:Generated_Source\PSoC4/key_touch_Filter.c ****                     ptrFilterHistObj.ptrProx->proxChannel[channel].iirHistory = LO16(temp >>key_tou
 818:Generated_Source\PSoC4/key_touch_Filter.c ****                     ptrFilterHistObj.ptrProx->proxChannel[channel].iirHistoryLow = LO8(temp);
 819:Generated_Source\PSoC4/key_touch_Filter.c ****                     ptrSensorObj->raw[channel] = LO16(temp >>key_touch_PROX_IIR_RC_SHIFT);
 820:Generated_Source\PSoC4/key_touch_Filter.c ****                 #else
 821:Generated_Source\PSoC4/key_touch_Filter.c ****                     temp =key_touch_FtIIR1stOrder((uint32)ptrSensorObj->raw[channel],
 822:Generated_Source\PSoC4/key_touch_Filter.c ****                                                         (uint32)ptrFilterHistObj.ptrProx->proxChann
 823:Generated_Source\PSoC4/key_touch_Filter.c ****                                                         key_touch_PROX_IIR_RC_N,
 824:Generated_Source\PSoC4/key_touch_Filter.c ****                                                         key_touch_PROX_IIR_RC_SHIFT);
 825:Generated_Source\PSoC4/key_touch_Filter.c ****                     ptrFilterHistObj.ptrProx->proxChannel[channel].iirHistory = LO16(temp);
 826:Generated_Source\PSoC4/key_touch_Filter.c ****                     ptrSensorObj->raw[channel] = LO16(temp >>key_touch_PROX_IIR_RC_SHIFT);
 827:Generated_Source\PSoC4/key_touch_Filter.c ****                 #endif /* (key_touch_PROX_IIR_RC_TYPE == key_touch_IIR_FILTER_PERFORMANCE) */
 828:Generated_Source\PSoC4/key_touch_Filter.c ****             #endif /* (key_touch_PROX_SENSOR_EN) */
 829:Generated_Source\PSoC4/key_touch_Filter.c ****         }    
 830:Generated_Source\PSoC4/key_touch_Filter.c ****     }        
 831:Generated_Source\PSoC4/key_touch_Filter.c **** }    
 832:Generated_Source\PSoC4/key_touch_Filter.c **** #endif /* #if (key_touch_REGULAR_RC_IIR_FILTER_EN || key_touch_PROX_RC_IIR_FILTER_EN) */
 833:Generated_Source\PSoC4/key_touch_Filter.c **** 
 834:Generated_Source\PSoC4/key_touch_Filter.c **** 
 835:Generated_Source\PSoC4/key_touch_Filter.c **** #if (key_touch_REGULAR_RC_MEDIAN_FILTER_EN || key_touch_PROX_RC_MEDIAN_FILTER_EN)
 836:Generated_Source\PSoC4/key_touch_Filter.c **** 
 837:Generated_Source\PSoC4/key_touch_Filter.c **** /*******************************************************************************
 838:Generated_Source\PSoC4/key_touch_Filter.c **** * Function Name: key_touch_InitializeMedian
 839:Generated_Source\PSoC4/key_touch_Filter.c **** ****************************************************************************//**
 840:Generated_Source\PSoC4/key_touch_Filter.c **** *
 841:Generated_Source\PSoC4/key_touch_Filter.c **** * \brief    Initializes the Median filter history.
 842:Generated_Source\PSoC4/key_touch_Filter.c **** *
 843:Generated_Source\PSoC4/key_touch_Filter.c **** * \details  Initializes the Median filter history.
 844:Generated_Source\PSoC4/key_touch_Filter.c **** *
 845:Generated_Source\PSoC4/key_touch_Filter.c **** * \param    widgetId Specifies the ID number of the widget.
 846:Generated_Source\PSoC4/key_touch_Filter.c **** * \param    sensorId Specifies the ID number of the sensor in the widget.
 847:Generated_Source\PSoC4/key_touch_Filter.c **** *
 848:Generated_Source\PSoC4/key_touch_Filter.c **** *******************************************************************************/
 849:Generated_Source\PSoC4/key_touch_Filter.c **** void key_touch_InitializeMedian(uint32 widgetId, uint32 sensorId)
 850:Generated_Source\PSoC4/key_touch_Filter.c **** {
 851:Generated_Source\PSoC4/key_touch_Filter.c ****     key_touch_FLASH_WD_STRUCT const *ptrWidget = &key_touch_dsFlash.wdgtArray[widgetId];      
 852:Generated_Source\PSoC4/key_touch_Filter.c ****     key_touch_RAM_SNS_STRUCT *ptrSensor = NULL;    
ARM GAS  C:\Users\Administrator\AppData\Local\Temp\ccrG5N5m.s 			page 23


 853:Generated_Source\PSoC4/key_touch_Filter.c ****     key_touch_PTR_FILTER_VARIANT ptrFilterHistObj; 
 854:Generated_Source\PSoC4/key_touch_Filter.c ****               
 855:Generated_Source\PSoC4/key_touch_Filter.c ****     /* Find pointer to specified sensor object */     
 856:Generated_Source\PSoC4/key_touch_Filter.c ****     ptrSensor = ptrWidget->ptr2SnsRam;
 857:Generated_Source\PSoC4/key_touch_Filter.c ****     ptrSensor = &ptrSensor[sensorId];
 858:Generated_Source\PSoC4/key_touch_Filter.c ****     
 859:Generated_Source\PSoC4/key_touch_Filter.c ****     /* Find pointer to specified filter sensor object */     
 860:Generated_Source\PSoC4/key_touch_Filter.c ****     ptrFilterHistObj.ptr = ptrWidget->ptr2FltrHistory;
 861:Generated_Source\PSoC4/key_touch_Filter.c ****     
 862:Generated_Source\PSoC4/key_touch_Filter.c ****     if ((key_touch_WD_TYPE_ENUM)ptrWidget->wdgtType != key_touch_WD_PROXIMITY_E)
 863:Generated_Source\PSoC4/key_touch_Filter.c ****     {
 864:Generated_Source\PSoC4/key_touch_Filter.c ****         #if (key_touch_REGULAR_SENSOR_EN)
 865:Generated_Source\PSoC4/key_touch_Filter.c ****             ptrFilterHistObj.ptrRegular = &ptrFilterHistObj.ptrRegular[sensorId];
 866:Generated_Source\PSoC4/key_touch_Filter.c ****         #endif /* (key_touch_REGULAR_SENSOR_EN) */
 867:Generated_Source\PSoC4/key_touch_Filter.c ****     }
 868:Generated_Source\PSoC4/key_touch_Filter.c ****     else
 869:Generated_Source\PSoC4/key_touch_Filter.c ****     {
 870:Generated_Source\PSoC4/key_touch_Filter.c ****         #if (key_touch_PROXIMITY_SENSOR_EN)
 871:Generated_Source\PSoC4/key_touch_Filter.c ****             ptrFilterHistObj.ptrProx = &ptrFilterHistObj.ptrProx[sensorId];
 872:Generated_Source\PSoC4/key_touch_Filter.c ****         #endif /* (key_touch_PROXIMITY_SENSOR_EN) */
 873:Generated_Source\PSoC4/key_touch_Filter.c ****     }
 874:Generated_Source\PSoC4/key_touch_Filter.c ****     
 875:Generated_Source\PSoC4/key_touch_Filter.c ****     key_touch_InitializeMedianInternal(ptrFilterHistObj, ptrSensor, (uint32)ptrWidget->wdgtType);
 876:Generated_Source\PSoC4/key_touch_Filter.c **** }     
 877:Generated_Source\PSoC4/key_touch_Filter.c **** 
 878:Generated_Source\PSoC4/key_touch_Filter.c **** 
 879:Generated_Source\PSoC4/key_touch_Filter.c **** /*******************************************************************************
 880:Generated_Source\PSoC4/key_touch_Filter.c **** * Function Name: key_touch_RunMedian
 881:Generated_Source\PSoC4/key_touch_Filter.c **** ****************************************************************************//**
 882:Generated_Source\PSoC4/key_touch_Filter.c **** *
 883:Generated_Source\PSoC4/key_touch_Filter.c **** * \brief    Executes the Median filter algorithm on a sensor indicated by an input 
 884:Generated_Source\PSoC4/key_touch_Filter.c **** *           parameter. 
 885:Generated_Source\PSoC4/key_touch_Filter.c **** *
 886:Generated_Source\PSoC4/key_touch_Filter.c **** * \details  Executes the Median filter algorithm on a sensor indicated by an input 
 887:Generated_Source\PSoC4/key_touch_Filter.c **** *           parameter. 
 888:Generated_Source\PSoC4/key_touch_Filter.c **** *
 889:Generated_Source\PSoC4/key_touch_Filter.c **** * \param    widgetId Specifies the ID number of the widget.
 890:Generated_Source\PSoC4/key_touch_Filter.c **** * \param    sensorId Specifies the ID number of the sensor in the widget.
 891:Generated_Source\PSoC4/key_touch_Filter.c **** *
 892:Generated_Source\PSoC4/key_touch_Filter.c **** *******************************************************************************/
 893:Generated_Source\PSoC4/key_touch_Filter.c **** void key_touch_RunMedian(uint32 widgetId, uint32 sensorId)
 894:Generated_Source\PSoC4/key_touch_Filter.c **** {
 895:Generated_Source\PSoC4/key_touch_Filter.c ****     key_touch_FLASH_WD_STRUCT const *ptrWidget = &key_touch_dsFlash.wdgtArray[widgetId];      
 896:Generated_Source\PSoC4/key_touch_Filter.c ****     key_touch_RAM_SNS_STRUCT *ptrSensor = NULL;    
 897:Generated_Source\PSoC4/key_touch_Filter.c ****     key_touch_PTR_FILTER_VARIANT ptrFilterHistObj; 
 898:Generated_Source\PSoC4/key_touch_Filter.c ****               
 899:Generated_Source\PSoC4/key_touch_Filter.c ****     /* Find pointer to specified sensor object */     
 900:Generated_Source\PSoC4/key_touch_Filter.c ****     ptrSensor = ptrWidget->ptr2SnsRam;
 901:Generated_Source\PSoC4/key_touch_Filter.c ****     ptrSensor = &ptrSensor[sensorId];
 902:Generated_Source\PSoC4/key_touch_Filter.c ****     
 903:Generated_Source\PSoC4/key_touch_Filter.c ****     /* Find pointer to specified filter sensor object */     
 904:Generated_Source\PSoC4/key_touch_Filter.c ****     ptrFilterHistObj.ptr = ptrWidget->ptr2FltrHistory;
 905:Generated_Source\PSoC4/key_touch_Filter.c ****     
 906:Generated_Source\PSoC4/key_touch_Filter.c ****     if ((key_touch_WD_TYPE_ENUM)ptrWidget->wdgtType != key_touch_WD_PROXIMITY_E)
 907:Generated_Source\PSoC4/key_touch_Filter.c ****     {
 908:Generated_Source\PSoC4/key_touch_Filter.c ****         #if (key_touch_REGULAR_SENSOR_EN)
 909:Generated_Source\PSoC4/key_touch_Filter.c ****             ptrFilterHistObj.ptrRegular = &ptrFilterHistObj.ptrRegular[sensorId];
ARM GAS  C:\Users\Administrator\AppData\Local\Temp\ccrG5N5m.s 			page 24


 910:Generated_Source\PSoC4/key_touch_Filter.c ****         #endif /* (key_touch_REGULAR_SENSOR_EN) */
 911:Generated_Source\PSoC4/key_touch_Filter.c ****     }
 912:Generated_Source\PSoC4/key_touch_Filter.c ****     else
 913:Generated_Source\PSoC4/key_touch_Filter.c ****     {
 914:Generated_Source\PSoC4/key_touch_Filter.c ****         #if (key_touch_PROXIMITY_SENSOR_EN)
 915:Generated_Source\PSoC4/key_touch_Filter.c ****             ptrFilterHistObj.ptrProx = &ptrFilterHistObj.ptrProx[sensorId];
 916:Generated_Source\PSoC4/key_touch_Filter.c ****         #endif /* (key_touch_PROXIMITY_SENSOR_EN) */
 917:Generated_Source\PSoC4/key_touch_Filter.c ****     }
 918:Generated_Source\PSoC4/key_touch_Filter.c ****     
 919:Generated_Source\PSoC4/key_touch_Filter.c ****     key_touch_RunMedianInternal(ptrFilterHistObj, ptrSensor, (uint32)ptrWidget->wdgtType);
 920:Generated_Source\PSoC4/key_touch_Filter.c **** }
 921:Generated_Source\PSoC4/key_touch_Filter.c ****    
 922:Generated_Source\PSoC4/key_touch_Filter.c **** 
 923:Generated_Source\PSoC4/key_touch_Filter.c **** /*******************************************************************************
 924:Generated_Source\PSoC4/key_touch_Filter.c **** * Function Name: key_touch_InitializeMedianInternal
 925:Generated_Source\PSoC4/key_touch_Filter.c **** ****************************************************************************//**
 926:Generated_Source\PSoC4/key_touch_Filter.c **** *
 927:Generated_Source\PSoC4/key_touch_Filter.c **** * \brief    Initializes the Median filter.
 928:Generated_Source\PSoC4/key_touch_Filter.c **** *
 929:Generated_Source\PSoC4/key_touch_Filter.c **** * \details  Initializes the Median filter.
 930:Generated_Source\PSoC4/key_touch_Filter.c **** *
 931:Generated_Source\PSoC4/key_touch_Filter.c **** * \param    ptrFilterHistObj The pointer to the filter RAM object of the sensor.
 932:Generated_Source\PSoC4/key_touch_Filter.c **** * \param    ptrSensorObj     The pointer to the sensor RAM object of the sensor.
 933:Generated_Source\PSoC4/key_touch_Filter.c **** * \param    wdType           Specifies the type of a widget.
 934:Generated_Source\PSoC4/key_touch_Filter.c **** *
 935:Generated_Source\PSoC4/key_touch_Filter.c **** *******************************************************************************/
 936:Generated_Source\PSoC4/key_touch_Filter.c **** void key_touch_InitializeMedianInternal(key_touch_PTR_FILTER_VARIANT ptrFilterHistObj,
 937:Generated_Source\PSoC4/key_touch_Filter.c ****                                                key_touch_RAM_SNS_STRUCT *ptrSensorObj, uint32 wdTyp
 938:Generated_Source\PSoC4/key_touch_Filter.c **** {
 939:Generated_Source\PSoC4/key_touch_Filter.c ****     uint32 channel;
 940:Generated_Source\PSoC4/key_touch_Filter.c **** 
 941:Generated_Source\PSoC4/key_touch_Filter.c ****     for(channel = key_touch_NUM_SCAN_FREQS; channel-- > 0u;)
 942:Generated_Source\PSoC4/key_touch_Filter.c ****     {
 943:Generated_Source\PSoC4/key_touch_Filter.c ****         if ((key_touch_WD_TYPE_ENUM)wdType != key_touch_WD_PROXIMITY_E)
 944:Generated_Source\PSoC4/key_touch_Filter.c ****         {
 945:Generated_Source\PSoC4/key_touch_Filter.c ****             #if (key_touch_REGULAR_SENSOR_EN && key_touch_REGULAR_RC_MEDIAN_FILTER_EN)
 946:Generated_Source\PSoC4/key_touch_Filter.c ****                 ptrFilterHistObj.ptrRegular->regularChannel[channel].medHistory[0u] = ptrSensorObj-
 947:Generated_Source\PSoC4/key_touch_Filter.c ****                 ptrFilterHistObj.ptrRegular->regularChannel[channel].medHistory[1u] = ptrSensorObj-
 948:Generated_Source\PSoC4/key_touch_Filter.c ****             #endif /* (key_touch_REGULAR_SENSOR_EN) */
 949:Generated_Source\PSoC4/key_touch_Filter.c ****         }
 950:Generated_Source\PSoC4/key_touch_Filter.c ****         else
 951:Generated_Source\PSoC4/key_touch_Filter.c ****         {
 952:Generated_Source\PSoC4/key_touch_Filter.c ****             #if (key_touch_PROXIMITY_SENSOR_EN && key_touch_PROX_RC_MEDIAN_FILTER_EN)
 953:Generated_Source\PSoC4/key_touch_Filter.c ****                 ptrFilterHistObj.ptrProx->proxChannel[channel].medHistory[0u] = ptrSensorObj->raw[c
 954:Generated_Source\PSoC4/key_touch_Filter.c ****                 ptrFilterHistObj.ptrProx->proxChannel[channel].medHistory[1u] = ptrSensorObj->raw[c
 955:Generated_Source\PSoC4/key_touch_Filter.c ****             #endif /* (key_touch_PROXIMITY_SENSOR_EN) */               
 956:Generated_Source\PSoC4/key_touch_Filter.c ****         }
 957:Generated_Source\PSoC4/key_touch_Filter.c ****     }
 958:Generated_Source\PSoC4/key_touch_Filter.c **** }
 959:Generated_Source\PSoC4/key_touch_Filter.c **** 
 960:Generated_Source\PSoC4/key_touch_Filter.c **** 
 961:Generated_Source\PSoC4/key_touch_Filter.c **** /*******************************************************************************
 962:Generated_Source\PSoC4/key_touch_Filter.c **** * Function Name: key_touch_RunMedianInternal
 963:Generated_Source\PSoC4/key_touch_Filter.c **** ****************************************************************************//**
 964:Generated_Source\PSoC4/key_touch_Filter.c **** *
 965:Generated_Source\PSoC4/key_touch_Filter.c **** * \brief    Runs the Median filter.
 966:Generated_Source\PSoC4/key_touch_Filter.c **** *
ARM GAS  C:\Users\Administrator\AppData\Local\Temp\ccrG5N5m.s 			page 25


 967:Generated_Source\PSoC4/key_touch_Filter.c **** * \details  Runs the Median filter.
 968:Generated_Source\PSoC4/key_touch_Filter.c **** *
 969:Generated_Source\PSoC4/key_touch_Filter.c **** * \param    ptrFilterHistObj The pointer to the filter RAM object of the sensor.
 970:Generated_Source\PSoC4/key_touch_Filter.c **** * \param    ptrSensorObj     The pointer to the sensor RAM object of the sensor.
 971:Generated_Source\PSoC4/key_touch_Filter.c **** * \param    wdType           Specifies the type of a widget.
 972:Generated_Source\PSoC4/key_touch_Filter.c **** *
 973:Generated_Source\PSoC4/key_touch_Filter.c **** *******************************************************************************/
 974:Generated_Source\PSoC4/key_touch_Filter.c **** void key_touch_RunMedianInternal(key_touch_PTR_FILTER_VARIANT ptrFilterHistObj,
 975:Generated_Source\PSoC4/key_touch_Filter.c ****                                         key_touch_RAM_SNS_STRUCT *ptrSensorObj, uint32 wdType)
 976:Generated_Source\PSoC4/key_touch_Filter.c **** {
 977:Generated_Source\PSoC4/key_touch_Filter.c ****     uint32 channel;
 978:Generated_Source\PSoC4/key_touch_Filter.c ****     
 979:Generated_Source\PSoC4/key_touch_Filter.c ****     #if ((key_touch_REGULAR_SENSOR_EN && key_touch_REGULAR_RC_MEDIAN_FILTER_EN) || \
 980:Generated_Source\PSoC4/key_touch_Filter.c ****          (key_touch_PROXIMITY_SENSOR_EN && key_touch_PROX_RC_MEDIAN_FILTER_EN))
 981:Generated_Source\PSoC4/key_touch_Filter.c ****         uint32 temp;
 982:Generated_Source\PSoC4/key_touch_Filter.c ****     #endif
 983:Generated_Source\PSoC4/key_touch_Filter.c ****     
 984:Generated_Source\PSoC4/key_touch_Filter.c ****     for(channel = key_touch_NUM_SCAN_FREQS; channel-- > 0u;)
 985:Generated_Source\PSoC4/key_touch_Filter.c ****     {    
 986:Generated_Source\PSoC4/key_touch_Filter.c ****         if ((key_touch_WD_TYPE_ENUM)wdType != key_touch_WD_PROXIMITY_E)
 987:Generated_Source\PSoC4/key_touch_Filter.c ****         {                                             
 988:Generated_Source\PSoC4/key_touch_Filter.c ****             #if (key_touch_REGULAR_SENSOR_EN && key_touch_REGULAR_RC_MEDIAN_FILTER_EN)
 989:Generated_Source\PSoC4/key_touch_Filter.c ****                 temp = key_touch_FtMedian((uint32)ptrSensorObj->raw[channel],\
 990:Generated_Source\PSoC4/key_touch_Filter.c ****                                                  (uint32)ptrFilterHistObj.ptrRegular->regularChanne
 991:Generated_Source\PSoC4/key_touch_Filter.c ****                                                  (uint32)ptrFilterHistObj.ptrRegular->regularChanne
 992:Generated_Source\PSoC4/key_touch_Filter.c ****                 ptrFilterHistObj.ptrRegular->regularChannel[channel].medHistory[1u] = \
 993:Generated_Source\PSoC4/key_touch_Filter.c ****                 ptrFilterHistObj.ptrRegular->regularChannel[channel].medHistory[0u];
 994:Generated_Source\PSoC4/key_touch_Filter.c ****                 ptrFilterHistObj.ptrRegular->regularChannel[channel].medHistory[0u] = ptrSensorObj-
 995:Generated_Source\PSoC4/key_touch_Filter.c ****                 ptrSensorObj->raw[channel] = LO16(temp);
 996:Generated_Source\PSoC4/key_touch_Filter.c ****             #endif /* (key_touch_REGULAR_SENSOR_EN) */     
 997:Generated_Source\PSoC4/key_touch_Filter.c ****         }
 998:Generated_Source\PSoC4/key_touch_Filter.c ****         else 
 999:Generated_Source\PSoC4/key_touch_Filter.c ****         {                   
1000:Generated_Source\PSoC4/key_touch_Filter.c ****             #if (key_touch_PROXIMITY_SENSOR_EN && key_touch_PROX_RC_MEDIAN_FILTER_EN)
1001:Generated_Source\PSoC4/key_touch_Filter.c ****                 temp = key_touch_FtMedian((uint32)ptrSensorObj->raw[channel],\
1002:Generated_Source\PSoC4/key_touch_Filter.c ****                                                  (uint32)ptrFilterHistObj.ptrProx->proxChannel[chan
1003:Generated_Source\PSoC4/key_touch_Filter.c ****                                                  (uint32)ptrFilterHistObj.ptrProx->proxChannel[chan
1004:Generated_Source\PSoC4/key_touch_Filter.c ****                 ptrFilterHistObj.ptrProx->proxChannel[channel].medHistory[1u] = \
1005:Generated_Source\PSoC4/key_touch_Filter.c ****                 ptrFilterHistObj.ptrProx->proxChannel[channel].medHistory[0u];
1006:Generated_Source\PSoC4/key_touch_Filter.c ****                 ptrFilterHistObj.ptrProx->proxChannel[channel].medHistory[0u] = ptrSensorObj->raw[c
1007:Generated_Source\PSoC4/key_touch_Filter.c ****                 ptrSensorObj->raw[channel] = LO16(temp);
1008:Generated_Source\PSoC4/key_touch_Filter.c ****             #endif /* (key_touch_PROXIMITY_SENSOR_EN) */               
1009:Generated_Source\PSoC4/key_touch_Filter.c ****         }
1010:Generated_Source\PSoC4/key_touch_Filter.c ****     }
1011:Generated_Source\PSoC4/key_touch_Filter.c **** }
1012:Generated_Source\PSoC4/key_touch_Filter.c **** #endif /* (key_touch_REGULAR_RC_MEDIAN_FILTER_EN || key_touch_PROX_RC_MEDIAN_FILTER_EN) */
1013:Generated_Source\PSoC4/key_touch_Filter.c **** 
1014:Generated_Source\PSoC4/key_touch_Filter.c **** 
1015:Generated_Source\PSoC4/key_touch_Filter.c **** #if (key_touch_REGULAR_RC_AVERAGE_FILTER_EN || key_touch_PROX_RC_AVERAGE_FILTER_EN)
1016:Generated_Source\PSoC4/key_touch_Filter.c **** 
1017:Generated_Source\PSoC4/key_touch_Filter.c **** /*******************************************************************************
1018:Generated_Source\PSoC4/key_touch_Filter.c **** * Function Name: key_touch_InitializeAverage
1019:Generated_Source\PSoC4/key_touch_Filter.c **** ****************************************************************************//**
1020:Generated_Source\PSoC4/key_touch_Filter.c **** *
1021:Generated_Source\PSoC4/key_touch_Filter.c **** * \brief    Initializes the average filter history.
1022:Generated_Source\PSoC4/key_touch_Filter.c **** *
1023:Generated_Source\PSoC4/key_touch_Filter.c **** * \details  Initializes the average filter history.
ARM GAS  C:\Users\Administrator\AppData\Local\Temp\ccrG5N5m.s 			page 26


1024:Generated_Source\PSoC4/key_touch_Filter.c **** *
1025:Generated_Source\PSoC4/key_touch_Filter.c **** * \param    widgetId Specifies the ID number of the widget.
1026:Generated_Source\PSoC4/key_touch_Filter.c **** * \param    sensorId Specifies the ID number of the sensor in the widget.
1027:Generated_Source\PSoC4/key_touch_Filter.c **** *
1028:Generated_Source\PSoC4/key_touch_Filter.c **** *******************************************************************************/
1029:Generated_Source\PSoC4/key_touch_Filter.c **** void key_touch_InitializeAverage(uint32 widgetId, uint32 sensorId)
1030:Generated_Source\PSoC4/key_touch_Filter.c **** {
1031:Generated_Source\PSoC4/key_touch_Filter.c ****     key_touch_FLASH_WD_STRUCT const *ptrWidget = &key_touch_dsFlash.wdgtArray[widgetId];      
1032:Generated_Source\PSoC4/key_touch_Filter.c ****     key_touch_RAM_SNS_STRUCT *ptrSensor = NULL;
1033:Generated_Source\PSoC4/key_touch_Filter.c ****     key_touch_PTR_FILTER_VARIANT ptrFilterHistObj;
1034:Generated_Source\PSoC4/key_touch_Filter.c **** 
1035:Generated_Source\PSoC4/key_touch_Filter.c ****     /* Find pointer to specified sensor object */
1036:Generated_Source\PSoC4/key_touch_Filter.c ****     ptrSensor = ptrWidget->ptr2SnsRam;
1037:Generated_Source\PSoC4/key_touch_Filter.c ****     ptrSensor = &ptrSensor[sensorId];
1038:Generated_Source\PSoC4/key_touch_Filter.c ****     
1039:Generated_Source\PSoC4/key_touch_Filter.c ****     /* Find pointer to specified filter sensor object */
1040:Generated_Source\PSoC4/key_touch_Filter.c ****     ptrFilterHistObj.ptr = ptrWidget->ptr2FltrHistory;
1041:Generated_Source\PSoC4/key_touch_Filter.c **** 
1042:Generated_Source\PSoC4/key_touch_Filter.c ****     if ((key_touch_WD_TYPE_ENUM)ptrWidget->wdgtType != key_touch_WD_PROXIMITY_E)
1043:Generated_Source\PSoC4/key_touch_Filter.c ****     {
1044:Generated_Source\PSoC4/key_touch_Filter.c ****         #if (key_touch_REGULAR_SENSOR_EN)
1045:Generated_Source\PSoC4/key_touch_Filter.c ****             ptrFilterHistObj.ptrRegular = &ptrFilterHistObj.ptrRegular[sensorId];
1046:Generated_Source\PSoC4/key_touch_Filter.c ****         #endif /* (key_touch_REGULAR_SENSOR_EN) */
1047:Generated_Source\PSoC4/key_touch_Filter.c ****     }
1048:Generated_Source\PSoC4/key_touch_Filter.c ****     else
1049:Generated_Source\PSoC4/key_touch_Filter.c ****     {
1050:Generated_Source\PSoC4/key_touch_Filter.c ****         #if (key_touch_PROXIMITY_SENSOR_EN)
1051:Generated_Source\PSoC4/key_touch_Filter.c ****             ptrFilterHistObj.ptrProx = &ptrFilterHistObj.ptrProx[sensorId];
1052:Generated_Source\PSoC4/key_touch_Filter.c ****         #endif /* (key_touch_PROXIMITY_SENSOR_EN) */
1053:Generated_Source\PSoC4/key_touch_Filter.c ****     }
1054:Generated_Source\PSoC4/key_touch_Filter.c **** 
1055:Generated_Source\PSoC4/key_touch_Filter.c ****     key_touch_InitializeAverageInternal(ptrFilterHistObj, ptrSensor, (uint32)ptrWidget->wdgtType);
1056:Generated_Source\PSoC4/key_touch_Filter.c **** }
1057:Generated_Source\PSoC4/key_touch_Filter.c **** 
1058:Generated_Source\PSoC4/key_touch_Filter.c **** 
1059:Generated_Source\PSoC4/key_touch_Filter.c **** /*******************************************************************************
1060:Generated_Source\PSoC4/key_touch_Filter.c **** * Function Name: key_touch_RunAverage
1061:Generated_Source\PSoC4/key_touch_Filter.c **** ****************************************************************************//**
1062:Generated_Source\PSoC4/key_touch_Filter.c **** *
1063:Generated_Source\PSoC4/key_touch_Filter.c **** * \brief    Executes the average filter algorithm on a sensor indicated by an input 
1064:Generated_Source\PSoC4/key_touch_Filter.c **** *           parameter. 
1065:Generated_Source\PSoC4/key_touch_Filter.c **** *
1066:Generated_Source\PSoC4/key_touch_Filter.c **** * \details  Executes the average filter algorithm on a sensor indicated by an input 
1067:Generated_Source\PSoC4/key_touch_Filter.c **** *           parameter. 
1068:Generated_Source\PSoC4/key_touch_Filter.c **** *
1069:Generated_Source\PSoC4/key_touch_Filter.c **** * \param    widgetId Specifies the ID number of the widget.
1070:Generated_Source\PSoC4/key_touch_Filter.c **** * \param    sensorId Specifies the ID number of the sensor in the widget.
1071:Generated_Source\PSoC4/key_touch_Filter.c **** *
1072:Generated_Source\PSoC4/key_touch_Filter.c **** *******************************************************************************/
1073:Generated_Source\PSoC4/key_touch_Filter.c **** void key_touch_RunAverage(uint32 widgetId, uint32 sensorId)
1074:Generated_Source\PSoC4/key_touch_Filter.c **** {
1075:Generated_Source\PSoC4/key_touch_Filter.c ****     key_touch_FLASH_WD_STRUCT const *ptrWidget = &key_touch_dsFlash.wdgtArray[widgetId];      
1076:Generated_Source\PSoC4/key_touch_Filter.c ****     key_touch_RAM_SNS_STRUCT *ptrSensor = NULL;    
1077:Generated_Source\PSoC4/key_touch_Filter.c ****     key_touch_PTR_FILTER_VARIANT ptrFilterHistObj; 
1078:Generated_Source\PSoC4/key_touch_Filter.c ****               
1079:Generated_Source\PSoC4/key_touch_Filter.c ****     /* Find pointer to specified sensor object */     
1080:Generated_Source\PSoC4/key_touch_Filter.c ****     ptrSensor = ptrWidget->ptr2SnsRam;
ARM GAS  C:\Users\Administrator\AppData\Local\Temp\ccrG5N5m.s 			page 27


1081:Generated_Source\PSoC4/key_touch_Filter.c ****     ptrSensor = &ptrSensor[sensorId];
1082:Generated_Source\PSoC4/key_touch_Filter.c ****     
1083:Generated_Source\PSoC4/key_touch_Filter.c ****     /* Find pointer to specified filter sensor object */     
1084:Generated_Source\PSoC4/key_touch_Filter.c ****     ptrFilterHistObj.ptr = ptrWidget->ptr2FltrHistory;
1085:Generated_Source\PSoC4/key_touch_Filter.c ****     
1086:Generated_Source\PSoC4/key_touch_Filter.c ****     if ((key_touch_WD_TYPE_ENUM)ptrWidget->wdgtType != key_touch_WD_PROXIMITY_E)
1087:Generated_Source\PSoC4/key_touch_Filter.c ****     {
1088:Generated_Source\PSoC4/key_touch_Filter.c ****         #if (key_touch_REGULAR_SENSOR_EN)
1089:Generated_Source\PSoC4/key_touch_Filter.c ****             ptrFilterHistObj.ptrRegular = &ptrFilterHistObj.ptrRegular[sensorId];
1090:Generated_Source\PSoC4/key_touch_Filter.c ****         #endif /* (key_touch_REGULAR_SENSOR_EN) */
1091:Generated_Source\PSoC4/key_touch_Filter.c ****     }
1092:Generated_Source\PSoC4/key_touch_Filter.c ****     else
1093:Generated_Source\PSoC4/key_touch_Filter.c ****     {
1094:Generated_Source\PSoC4/key_touch_Filter.c ****         #if (key_touch_PROXIMITY_SENSOR_EN)
1095:Generated_Source\PSoC4/key_touch_Filter.c ****             ptrFilterHistObj.ptrProx = &ptrFilterHistObj.ptrProx[sensorId];
1096:Generated_Source\PSoC4/key_touch_Filter.c ****         #endif /* (key_touch_PROXIMITY_SENSOR_EN) */
1097:Generated_Source\PSoC4/key_touch_Filter.c ****     }
1098:Generated_Source\PSoC4/key_touch_Filter.c ****     
1099:Generated_Source\PSoC4/key_touch_Filter.c ****     key_touch_RunAverageInternal(ptrFilterHistObj, ptrSensor, (uint32)ptrWidget->wdgtType);
1100:Generated_Source\PSoC4/key_touch_Filter.c **** }
1101:Generated_Source\PSoC4/key_touch_Filter.c **** 
1102:Generated_Source\PSoC4/key_touch_Filter.c **** 
1103:Generated_Source\PSoC4/key_touch_Filter.c **** /*******************************************************************************
1104:Generated_Source\PSoC4/key_touch_Filter.c **** * Function Name: key_touch_InitializeAverageInternal
1105:Generated_Source\PSoC4/key_touch_Filter.c **** ****************************************************************************//**
1106:Generated_Source\PSoC4/key_touch_Filter.c **** *
1107:Generated_Source\PSoC4/key_touch_Filter.c **** * \brief    Initializes the average filter.
1108:Generated_Source\PSoC4/key_touch_Filter.c **** *
1109:Generated_Source\PSoC4/key_touch_Filter.c **** * \details  Initializes the average filter.
1110:Generated_Source\PSoC4/key_touch_Filter.c **** *
1111:Generated_Source\PSoC4/key_touch_Filter.c **** * \param    ptrFilterHistObj The pointer to the filter RAM object of the sensor.
1112:Generated_Source\PSoC4/key_touch_Filter.c **** * \param    ptrSensorObj     The pointer to the sensor RAM object of the sensor.
1113:Generated_Source\PSoC4/key_touch_Filter.c **** * \param    wdType           Specifies the type of a widget.
1114:Generated_Source\PSoC4/key_touch_Filter.c **** *
1115:Generated_Source\PSoC4/key_touch_Filter.c **** *******************************************************************************/
1116:Generated_Source\PSoC4/key_touch_Filter.c **** void key_touch_InitializeAverageInternal(key_touch_PTR_FILTER_VARIANT ptrFilterHistObj,\
1117:Generated_Source\PSoC4/key_touch_Filter.c ****                                                   key_touch_RAM_SNS_STRUCT *ptrSensorObj, uint32 wd
1118:Generated_Source\PSoC4/key_touch_Filter.c **** {
1119:Generated_Source\PSoC4/key_touch_Filter.c ****     uint32 channel;
1120:Generated_Source\PSoC4/key_touch_Filter.c **** 
1121:Generated_Source\PSoC4/key_touch_Filter.c ****     for(channel = key_touch_NUM_SCAN_FREQS; channel-- > 0u;)
1122:Generated_Source\PSoC4/key_touch_Filter.c ****     {
1123:Generated_Source\PSoC4/key_touch_Filter.c ****         if ((key_touch_WD_TYPE_ENUM)wdType != key_touch_WD_PROXIMITY_E)
1124:Generated_Source\PSoC4/key_touch_Filter.c ****         {
1125:Generated_Source\PSoC4/key_touch_Filter.c ****             #if (key_touch_REGULAR_SENSOR_EN && key_touch_REGULAR_RC_AVERAGE_FILTER_EN)
1126:Generated_Source\PSoC4/key_touch_Filter.c ****                 ptrFilterHistObj.ptrRegular->regularChannel[channel].avgHistory[0] = ptrSensorObj->
1127:Generated_Source\PSoC4/key_touch_Filter.c ****                 #if (key_touch_REGULAR_AVERAGE_LEN == key_touch_AVERAGE_FILTER_LEN_4)
1128:Generated_Source\PSoC4/key_touch_Filter.c ****                     ptrFilterHistObj.ptrRegular->regularChannel[channel].avgHistory[1u] = ptrSensor
1129:Generated_Source\PSoC4/key_touch_Filter.c ****                     ptrFilterHistObj.ptrRegular->regularChannel[channel].avgHistory[2u] = ptrSensor
1130:Generated_Source\PSoC4/key_touch_Filter.c ****                 #endif /* key_touch_REGULAR_AVERAGE_LEN == key_touch_AVERAGE_FILTER_LEN_4 */
1131:Generated_Source\PSoC4/key_touch_Filter.c ****             #endif /* (key_touch_REGULAR_SENSOR_EN) */      
1132:Generated_Source\PSoC4/key_touch_Filter.c ****         }
1133:Generated_Source\PSoC4/key_touch_Filter.c ****         else
1134:Generated_Source\PSoC4/key_touch_Filter.c ****         {
1135:Generated_Source\PSoC4/key_touch_Filter.c ****             #if (key_touch_PROXIMITY_SENSOR_EN && key_touch_PROX_RC_AVERAGE_FILTER_EN)
1136:Generated_Source\PSoC4/key_touch_Filter.c ****                 ptrFilterHistObj.ptrProx->proxChannel[channel].avgHistory[0] = ptrSensorObj->raw[ch
1137:Generated_Source\PSoC4/key_touch_Filter.c ****                     #if (key_touch_PROX_AVERAGE_LEN == key_touch_AVERAGE_FILTER_LEN_4)
ARM GAS  C:\Users\Administrator\AppData\Local\Temp\ccrG5N5m.s 			page 28


1138:Generated_Source\PSoC4/key_touch_Filter.c ****                         ptrFilterHistObj.ptrProx->proxChannel[channel].avgHistory[1u] = ptrSensorOb
1139:Generated_Source\PSoC4/key_touch_Filter.c ****                         ptrFilterHistObj.ptrProx->proxChannel[channel].avgHistory[2u] = ptrSensorOb
1140:Generated_Source\PSoC4/key_touch_Filter.c ****                     #endif /* key_touch_REGULAR_AVERAGE_LEN == key_touch_AVERAGE_FILTER_LEN_4 */
1141:Generated_Source\PSoC4/key_touch_Filter.c ****             #endif /* (key_touch_PROXIMITY_SENSOR_EN) */
1142:Generated_Source\PSoC4/key_touch_Filter.c ****         }
1143:Generated_Source\PSoC4/key_touch_Filter.c ****     }
1144:Generated_Source\PSoC4/key_touch_Filter.c **** }
1145:Generated_Source\PSoC4/key_touch_Filter.c **** 
1146:Generated_Source\PSoC4/key_touch_Filter.c **** 
1147:Generated_Source\PSoC4/key_touch_Filter.c **** /*******************************************************************************
1148:Generated_Source\PSoC4/key_touch_Filter.c **** * Function Name: key_touch_RunAverageInternal
1149:Generated_Source\PSoC4/key_touch_Filter.c **** ****************************************************************************//**
1150:Generated_Source\PSoC4/key_touch_Filter.c **** *
1151:Generated_Source\PSoC4/key_touch_Filter.c **** * \brief    Runs the average filter.
1152:Generated_Source\PSoC4/key_touch_Filter.c **** *
1153:Generated_Source\PSoC4/key_touch_Filter.c **** * \details  Runs the average filter.
1154:Generated_Source\PSoC4/key_touch_Filter.c **** *
1155:Generated_Source\PSoC4/key_touch_Filter.c **** * \param    ptrFilterHistObj The pointer to the filter RAM object of the sensor.
1156:Generated_Source\PSoC4/key_touch_Filter.c **** * \param    ptrSensorObj     The pointer to the sensor RAM object of the sensor.
1157:Generated_Source\PSoC4/key_touch_Filter.c **** * \param    wdType           Specifies the type of a widget.
1158:Generated_Source\PSoC4/key_touch_Filter.c **** *
1159:Generated_Source\PSoC4/key_touch_Filter.c **** *******************************************************************************/
1160:Generated_Source\PSoC4/key_touch_Filter.c **** void key_touch_RunAverageInternal(key_touch_PTR_FILTER_VARIANT ptrFilterHistObj,\
1161:Generated_Source\PSoC4/key_touch_Filter.c ****                                            key_touch_RAM_SNS_STRUCT *ptrSensorObj, uint32 wdType)
1162:Generated_Source\PSoC4/key_touch_Filter.c **** {
1163:Generated_Source\PSoC4/key_touch_Filter.c ****     uint32 channel;
1164:Generated_Source\PSoC4/key_touch_Filter.c ****     uint32 temp;
1165:Generated_Source\PSoC4/key_touch_Filter.c **** 
1166:Generated_Source\PSoC4/key_touch_Filter.c ****     for(channel = key_touch_NUM_SCAN_FREQS; channel-- > 0u;)
1167:Generated_Source\PSoC4/key_touch_Filter.c ****     {
1168:Generated_Source\PSoC4/key_touch_Filter.c ****         if ((key_touch_WD_TYPE_ENUM)wdType != key_touch_WD_PROXIMITY_E)
1169:Generated_Source\PSoC4/key_touch_Filter.c ****         {
1170:Generated_Source\PSoC4/key_touch_Filter.c ****             #if (key_touch_REGULAR_SENSOR_EN && key_touch_REGULAR_RC_AVERAGE_FILTER_EN)
1171:Generated_Source\PSoC4/key_touch_Filter.c ****                 #if (key_touch_REGULAR_AVERAGE_LEN == key_touch_AVERAGE_FILTER_LEN_2)
1172:Generated_Source\PSoC4/key_touch_Filter.c ****                     temp = ((uint32)ptrSensorObj->raw[channel] + 
1173:Generated_Source\PSoC4/key_touch_Filter.c ****                             (uint32)ptrFilterHistObj.ptrRegular->regularChannel[channel].avgHistory
1174:Generated_Source\PSoC4/key_touch_Filter.c ****                     ptrFilterHistObj.ptrRegular->regularChannel[channel].avgHistory[0] = ptrSensorO
1175:Generated_Source\PSoC4/key_touch_Filter.c ****                     ptrSensorObj->raw[channel] = LO16(temp);
1176:Generated_Source\PSoC4/key_touch_Filter.c ****                 #else
1177:Generated_Source\PSoC4/key_touch_Filter.c ****                     temp = ((uint32)ptrSensorObj->raw[channel] + 
1178:Generated_Source\PSoC4/key_touch_Filter.c ****                             (uint32)ptrFilterHistObj.ptrRegular->regularChannel[channel].avgHistory
1179:Generated_Source\PSoC4/key_touch_Filter.c ****                             (uint32)ptrFilterHistObj.ptrRegular->regularChannel[channel].avgHistory
1180:Generated_Source\PSoC4/key_touch_Filter.c ****                             (uint32)ptrFilterHistObj.ptrRegular->regularChannel[channel].avgHistory
1181:Generated_Source\PSoC4/key_touch_Filter.c **** 
1182:Generated_Source\PSoC4/key_touch_Filter.c ****                     ptrFilterHistObj.ptrRegular->regularChannel[channel].avgHistory[2u] =
1183:Generated_Source\PSoC4/key_touch_Filter.c ****                     ptrFilterHistObj.ptrRegular->regularChannel[channel].avgHistory[1u];
1184:Generated_Source\PSoC4/key_touch_Filter.c ****                     ptrFilterHistObj.ptrRegular->regularChannel[channel].avgHistory[1u] =
1185:Generated_Source\PSoC4/key_touch_Filter.c ****                     ptrFilterHistObj.ptrRegular->regularChannel[channel].avgHistory[0];
1186:Generated_Source\PSoC4/key_touch_Filter.c ****                     ptrFilterHistObj.ptrRegular->regularChannel[channel].avgHistory[0] = ptrSensorO
1187:Generated_Source\PSoC4/key_touch_Filter.c ****                     ptrSensorObj->raw[channel] = LO16(temp);
1188:Generated_Source\PSoC4/key_touch_Filter.c ****                 #endif /* key_touch_REGULAR_AVERAGE_LEN == key_touch_AVERAGE_FILTER_LEN_4 */
1189:Generated_Source\PSoC4/key_touch_Filter.c ****             #endif /* (key_touch_REGULAR_SENSOR_EN) */
1190:Generated_Source\PSoC4/key_touch_Filter.c ****         }
1191:Generated_Source\PSoC4/key_touch_Filter.c ****         else 
1192:Generated_Source\PSoC4/key_touch_Filter.c ****         {
1193:Generated_Source\PSoC4/key_touch_Filter.c ****             #if (key_touch_PROXIMITY_SENSOR_EN && key_touch_PROX_RC_AVERAGE_FILTER_EN)
1194:Generated_Source\PSoC4/key_touch_Filter.c ****                 #if (key_touch_PROX_AVERAGE_LEN == key_touch_AVERAGE_FILTER_LEN_2)     
ARM GAS  C:\Users\Administrator\AppData\Local\Temp\ccrG5N5m.s 			page 29


1195:Generated_Source\PSoC4/key_touch_Filter.c ****                     temp = ((uint32)ptrSensorObj->raw[channel] + 
1196:Generated_Source\PSoC4/key_touch_Filter.c ****                             (uint32)ptrFilterHistObj.ptrProx->proxChannel[channel].avgHistory[0]) >
1197:Generated_Source\PSoC4/key_touch_Filter.c ****                     ptrFilterHistObj.ptrProx->proxChannel[channel].avgHistory[0] = ptrSensorObj->ra
1198:Generated_Source\PSoC4/key_touch_Filter.c ****                     ptrSensorObj->raw[channel] = LO16(temp);
1199:Generated_Source\PSoC4/key_touch_Filter.c ****                 #else
1200:Generated_Source\PSoC4/key_touch_Filter.c ****                     temp = ((uint32)ptrSensorObj->raw[channel] + 
1201:Generated_Source\PSoC4/key_touch_Filter.c ****                             (uint32)ptrFilterHistObj.ptrProx->proxChannel[channel].avgHistory[0] +
1202:Generated_Source\PSoC4/key_touch_Filter.c ****                             (uint32)ptrFilterHistObj.ptrProx->proxChannel[channel].avgHistory[1u] +
1203:Generated_Source\PSoC4/key_touch_Filter.c ****                             (uint32)ptrFilterHistObj.ptrProx->proxChannel[channel].avgHistory[2u]) 
1204:Generated_Source\PSoC4/key_touch_Filter.c ****                     
1205:Generated_Source\PSoC4/key_touch_Filter.c ****                     ptrFilterHistObj.ptrProx->proxChannel[channel].avgHistory[2u] =
1206:Generated_Source\PSoC4/key_touch_Filter.c ****                     ptrFilterHistObj.ptrProx->proxChannel[channel].avgHistory[1u];
1207:Generated_Source\PSoC4/key_touch_Filter.c ****                     ptrFilterHistObj.ptrProx->proxChannel[channel].avgHistory[1u] =
1208:Generated_Source\PSoC4/key_touch_Filter.c ****                     ptrFilterHistObj.ptrProx->proxChannel[channel].avgHistory[0];
1209:Generated_Source\PSoC4/key_touch_Filter.c ****                     ptrFilterHistObj.ptrProx->proxChannel[channel].avgHistory[0] = ptrSensorObj->ra
1210:Generated_Source\PSoC4/key_touch_Filter.c ****                     ptrSensorObj->raw[channel] = LO16(temp);
1211:Generated_Source\PSoC4/key_touch_Filter.c ****                 #endif /* key_touch_PROX_AVERAGE_LEN == key_touch_AVERAGE_FILTER_LEN_4 */
1212:Generated_Source\PSoC4/key_touch_Filter.c ****             #endif /* (key_touch_PROXIMITY_SENSOR_EN) */
1213:Generated_Source\PSoC4/key_touch_Filter.c ****         }
1214:Generated_Source\PSoC4/key_touch_Filter.c ****     }
1215:Generated_Source\PSoC4/key_touch_Filter.c **** }
1216:Generated_Source\PSoC4/key_touch_Filter.c **** #endif /* (key_touch_REGULAR_RC_AVERAGE_FILTER_EN || key_touch_PROX_RC_AVERAGE_FILTER_EN) */
1217:Generated_Source\PSoC4/key_touch_Filter.c **** 
1218:Generated_Source\PSoC4/key_touch_Filter.c **** 
1219:Generated_Source\PSoC4/key_touch_Filter.c **** #if ((key_touch_REGULAR_RC_FILTER_EN || key_touch_PROX_RC_FILTER_EN))
1220:Generated_Source\PSoC4/key_touch_Filter.c **** /*******************************************************************************
1221:Generated_Source\PSoC4/key_touch_Filter.c **** * Function Name: key_touch_FtRunEnabledFilters
1222:Generated_Source\PSoC4/key_touch_Filter.c **** ****************************************************************************//**
1223:Generated_Source\PSoC4/key_touch_Filter.c **** *
1224:Generated_Source\PSoC4/key_touch_Filter.c **** * \brief    Runs all enabled filters.
1225:Generated_Source\PSoC4/key_touch_Filter.c **** *
1226:Generated_Source\PSoC4/key_touch_Filter.c **** * \details  Runs all enabled filters.
1227:Generated_Source\PSoC4/key_touch_Filter.c **** *
1228:Generated_Source\PSoC4/key_touch_Filter.c **** * \param    widgetId Specifies the ID number of a widget to update the IIR filter history.*
1229:Generated_Source\PSoC4/key_touch_Filter.c **** * \param    sensorId Specifies the ID number of a sensor in the widget to update the IIR 
1230:Generated_Source\PSoC4/key_touch_Filter.c **** *           filter history.
1231:Generated_Source\PSoC4/key_touch_Filter.c **** *
1232:Generated_Source\PSoC4/key_touch_Filter.c **** *******************************************************************************/
1233:Generated_Source\PSoC4/key_touch_Filter.c **** void key_touch_FtRunEnabledFilters(uint32 widgetId, uint32 sensorId)
1234:Generated_Source\PSoC4/key_touch_Filter.c **** {
1235:Generated_Source\PSoC4/key_touch_Filter.c ****     key_touch_FLASH_WD_STRUCT const *ptrWidget = &key_touch_dsFlash.wdgtArray[widgetId];      
1236:Generated_Source\PSoC4/key_touch_Filter.c ****     key_touch_RAM_SNS_STRUCT *ptrSensor = NULL;    
1237:Generated_Source\PSoC4/key_touch_Filter.c ****     key_touch_PTR_FILTER_VARIANT ptrFilterHistObj; 
1238:Generated_Source\PSoC4/key_touch_Filter.c ****               
1239:Generated_Source\PSoC4/key_touch_Filter.c ****     /* Find pointer to specified sensor object */     
1240:Generated_Source\PSoC4/key_touch_Filter.c ****     ptrSensor = ptrWidget->ptr2SnsRam;
1241:Generated_Source\PSoC4/key_touch_Filter.c ****     ptrSensor = &ptrSensor[sensorId];
1242:Generated_Source\PSoC4/key_touch_Filter.c ****     
1243:Generated_Source\PSoC4/key_touch_Filter.c ****     /* Find pointer to specified filter sensor object */     
1244:Generated_Source\PSoC4/key_touch_Filter.c ****     ptrFilterHistObj.ptr = ptrWidget->ptr2FltrHistory;
1245:Generated_Source\PSoC4/key_touch_Filter.c ****     
1246:Generated_Source\PSoC4/key_touch_Filter.c ****     if ((key_touch_WD_TYPE_ENUM)ptrWidget->wdgtType != key_touch_WD_PROXIMITY_E)
1247:Generated_Source\PSoC4/key_touch_Filter.c ****     {
1248:Generated_Source\PSoC4/key_touch_Filter.c ****         #if (key_touch_REGULAR_SENSOR_EN)
1249:Generated_Source\PSoC4/key_touch_Filter.c ****             ptrFilterHistObj.ptrRegular = &ptrFilterHistObj.ptrRegular[sensorId];
1250:Generated_Source\PSoC4/key_touch_Filter.c ****         #endif /* (key_touch_REGULAR_SENSOR_EN) */
1251:Generated_Source\PSoC4/key_touch_Filter.c ****     }
ARM GAS  C:\Users\Administrator\AppData\Local\Temp\ccrG5N5m.s 			page 30


1252:Generated_Source\PSoC4/key_touch_Filter.c ****     else
1253:Generated_Source\PSoC4/key_touch_Filter.c ****     {
1254:Generated_Source\PSoC4/key_touch_Filter.c ****         #if (key_touch_PROXIMITY_SENSOR_EN)
1255:Generated_Source\PSoC4/key_touch_Filter.c ****             ptrFilterHistObj.ptrProx = &ptrFilterHistObj.ptrProx[sensorId];
1256:Generated_Source\PSoC4/key_touch_Filter.c ****         #endif /* (key_touch_PROXIMITY_SENSOR_EN) */
1257:Generated_Source\PSoC4/key_touch_Filter.c ****     }
1258:Generated_Source\PSoC4/key_touch_Filter.c ****     
1259:Generated_Source\PSoC4/key_touch_Filter.c ****     key_touch_FtRunEnabledFiltersInternal(ptrFilterHistObj, ptrSensor, (uint32)ptrWidget->wdgtType)
1260:Generated_Source\PSoC4/key_touch_Filter.c **** }
1261:Generated_Source\PSoC4/key_touch_Filter.c **** 
1262:Generated_Source\PSoC4/key_touch_Filter.c **** 
1263:Generated_Source\PSoC4/key_touch_Filter.c **** /*******************************************************************************
1264:Generated_Source\PSoC4/key_touch_Filter.c **** * Function Name: key_touch_FtRunEnabledFiltersInternal
1265:Generated_Source\PSoC4/key_touch_Filter.c **** ****************************************************************************//**
1266:Generated_Source\PSoC4/key_touch_Filter.c **** *
1267:Generated_Source\PSoC4/key_touch_Filter.c **** * \brief    Runs all enabled filters.
1268:Generated_Source\PSoC4/key_touch_Filter.c **** *
1269:Generated_Source\PSoC4/key_touch_Filter.c **** * \details  Runs all enabled filters.
1270:Generated_Source\PSoC4/key_touch_Filter.c **** *
1271:Generated_Source\PSoC4/key_touch_Filter.c **** * \param    ptrFilterHistObj The pointer to the filter RAM object of the sensor.
1272:Generated_Source\PSoC4/key_touch_Filter.c **** * \param    ptrSensorObj     The pointer to the sensor RAM object of the sensor.
1273:Generated_Source\PSoC4/key_touch_Filter.c **** * \param    wdType           Specifies the type of a widget.
1274:Generated_Source\PSoC4/key_touch_Filter.c **** *
1275:Generated_Source\PSoC4/key_touch_Filter.c **** *******************************************************************************/
1276:Generated_Source\PSoC4/key_touch_Filter.c **** void key_touch_FtRunEnabledFiltersInternal(key_touch_PTR_FILTER_VARIANT ptrFilterHistObj, 
1277:Generated_Source\PSoC4/key_touch_Filter.c ****                                                   key_touch_RAM_SNS_STRUCT *ptrSensorObj, uint32 wd
1278:Generated_Source\PSoC4/key_touch_Filter.c **** {
1279:Generated_Source\PSoC4/key_touch_Filter.c ****     #if (key_touch_REGULAR_RC_MEDIAN_FILTER_EN || key_touch_PROX_RC_MEDIAN_FILTER_EN)
1280:Generated_Source\PSoC4/key_touch_Filter.c ****         key_touch_RunMedianInternal(ptrFilterHistObj, ptrSensorObj, wdType);
1281:Generated_Source\PSoC4/key_touch_Filter.c ****     #endif /* (key_touch_REGULAR_RC_MEDIAN_FILTER_EN || key_touch_PROX_RC_MEDIAN_FILTER_EN) */
1282:Generated_Source\PSoC4/key_touch_Filter.c ****     
1283:Generated_Source\PSoC4/key_touch_Filter.c ****     #if (key_touch_REGULAR_RC_IIR_FILTER_EN || key_touch_PROX_RC_IIR_FILTER_EN)    
1284:Generated_Source\PSoC4/key_touch_Filter.c ****         key_touch_RunIIRInternal(ptrFilterHistObj, ptrSensorObj, wdType);
1285:Generated_Source\PSoC4/key_touch_Filter.c ****     #endif /* (key_touch_REGULAR_RC_IIR_FILTER_EN || key_touch_PROX_RC_IIR_FILTER_EN) */ 
1286:Generated_Source\PSoC4/key_touch_Filter.c **** 
1287:Generated_Source\PSoC4/key_touch_Filter.c ****     #if (key_touch_REGULAR_RC_AVERAGE_FILTER_EN || key_touch_PROX_RC_AVERAGE_FILTER_EN)
1288:Generated_Source\PSoC4/key_touch_Filter.c ****         key_touch_RunAverageInternal(ptrFilterHistObj, ptrSensorObj, wdType);
1289:Generated_Source\PSoC4/key_touch_Filter.c ****     #endif /* (key_touch_REGULAR_RC_AVERAGE_FILTER_EN || key_touch_PROX_RC_AVERAGE_FILTER_EN) */   
1290:Generated_Source\PSoC4/key_touch_Filter.c **** }
1291:Generated_Source\PSoC4/key_touch_Filter.c **** #endif /* (key_touch_REGULAR_RC_FILTER_EN || key_touch_PROX_RC_FILTER_EN) */
1292:Generated_Source\PSoC4/key_touch_Filter.c **** 
1293:Generated_Source\PSoC4/key_touch_Filter.c **** 
1294:Generated_Source\PSoC4/key_touch_Filter.c **** #if (key_touch_CSD_AUTOTUNE & key_touch_CSD_SS_TH_EN)
1295:Generated_Source\PSoC4/key_touch_Filter.c **** /*******************************************************************************
1296:Generated_Source\PSoC4/key_touch_Filter.c **** * Function Name: key_touch_RunNoiseEnvelope
1297:Generated_Source\PSoC4/key_touch_Filter.c **** ****************************************************************************//**
1298:Generated_Source\PSoC4/key_touch_Filter.c **** *
1299:Generated_Source\PSoC4/key_touch_Filter.c **** * \brief    Executes the noise envelope  filter algorithm on a sensor indicated by 
1300:Generated_Source\PSoC4/key_touch_Filter.c **** *           an input parameter to measure the pk-to-pk noise in the sensor raw count.
1301:Generated_Source\PSoC4/key_touch_Filter.c **** *
1302:Generated_Source\PSoC4/key_touch_Filter.c **** * \details  Executes the noise envelope  filter algorithm on a sensor indicated by 
1303:Generated_Source\PSoC4/key_touch_Filter.c **** *           an input parameter to measure the pk-to-pk noise in the sensor raw count.
1304:Generated_Source\PSoC4/key_touch_Filter.c **** *
1305:Generated_Source\PSoC4/key_touch_Filter.c **** * \param    widgetId Specifies the ID number of the widget.
1306:Generated_Source\PSoC4/key_touch_Filter.c **** * \param    sensorId Specifies the ID number of the sensor in the widget.
1307:Generated_Source\PSoC4/key_touch_Filter.c **** *
1308:Generated_Source\PSoC4/key_touch_Filter.c **** *******************************************************************************/
ARM GAS  C:\Users\Administrator\AppData\Local\Temp\ccrG5N5m.s 			page 31


1309:Generated_Source\PSoC4/key_touch_Filter.c **** void key_touch_RunNoiseEnvelope(uint32 widgetId, uint32 sensorId)
1310:Generated_Source\PSoC4/key_touch_Filter.c **** {
 372              		.loc 1 1310 0
 373              		.cfi_startproc
 374              	.LVL59:
 375 0000 38B5     		push	{r3, r4, r5, lr}
 376              		.cfi_def_cfa_offset 16
 377              		.cfi_offset 3, -16
 378              		.cfi_offset 4, -12
 379              		.cfi_offset 5, -8
 380              		.cfi_offset 14, -4
 381              	.LVL60:
1311:Generated_Source\PSoC4/key_touch_Filter.c ****     key_touch_FLASH_WD_STRUCT const *ptrWidget = &key_touch_dsFlash.wdgtArray[widgetId];
1312:Generated_Source\PSoC4/key_touch_Filter.c ****     key_touch_RAM_WD_BASE_STRUCT *ptrWidgetRam = ptrWidget->ptr2WdgtRam;
 382              		.loc 1 1312 0
 383 0002 4001     		lsl	r0, r0, #5
 384              	.LVL61:
 385 0004 084B     		ldr	r3, .L27
 386 0006 1818     		add	r0, r3, r0
 387              	.LVL62:
 388 0008 4468     		ldr	r4, [r0, #4]
 389              	.LVL63:
1313:Generated_Source\PSoC4/key_touch_Filter.c ****     key_touch_RAM_SNS_STRUCT *ptrSensor = NULL;    
1314:Generated_Source\PSoC4/key_touch_Filter.c ****     SMARTSENSE_CSD_NOISE_ENVELOPE_STRUCT *ptrNoiseEnvelope = NULL;
1315:Generated_Source\PSoC4/key_touch_Filter.c **** 
1316:Generated_Source\PSoC4/key_touch_Filter.c ****     /* Find pointer to specified sensor object */
1317:Generated_Source\PSoC4/key_touch_Filter.c ****     ptrSensor = ptrWidget->ptr2SnsRam;
 390              		.loc 1 1317 0
 391 000a 8568     		ldr	r5, [r0, #8]
 392              	.LVL64:
1318:Generated_Source\PSoC4/key_touch_Filter.c ****     ptrSensor = &ptrSensor[sensorId];
 393              		.loc 1 1318 0
 394 000c 8B00     		lsl	r3, r1, #2
 395 000e 5B18     		add	r3, r3, r1
 396 0010 5B00     		lsl	r3, r3, #1
 397              	.LVL65:
1319:Generated_Source\PSoC4/key_touch_Filter.c ****     
1320:Generated_Source\PSoC4/key_touch_Filter.c ****     /* Find pointer to specified filter sensor object */
1321:Generated_Source\PSoC4/key_touch_Filter.c ****     ptrNoiseEnvelope = ptrWidget->ptr2NoiseEnvlp;
 398              		.loc 1 1321 0
 399 0012 C269     		ldr	r2, [r0, #28]
 400              	.LVL66:
1322:Generated_Source\PSoC4/key_touch_Filter.c ****     ptrNoiseEnvelope = &ptrNoiseEnvelope[sensorId];    
 401              		.loc 1 1322 0
 402 0014 4800     		lsl	r0, r1, #1
 403              	.LVL67:
 404 0016 4118     		add	r1, r0, r1
 405              	.LVL68:
 406 0018 8900     		lsl	r1, r1, #2
 407 001a 5218     		add	r2, r2, r1
 408              	.LVL69:
1323:Generated_Source\PSoC4/key_touch_Filter.c **** 
1324:Generated_Source\PSoC4/key_touch_Filter.c ****     SmartSense_RunNoiseEnvelope(ptrSensor->raw[0u], ptrWidgetRam->sigPFC, ptrNoiseEnvelope);
 409              		.loc 1 1324 0
 410 001c E85A     		ldrh	r0, [r5, r3]
 411 001e 218A     		ldrh	r1, [r4, #16]
 412 0020 FFF7FEFF 		bl	SmartSense_RunNoiseEnvelope
ARM GAS  C:\Users\Administrator\AppData\Local\Temp\ccrG5N5m.s 			page 32


 413              	.LVL70:
1325:Generated_Source\PSoC4/key_touch_Filter.c **** }
 414              		.loc 1 1325 0
 415              		@ sp needed
 416              	.LVL71:
 417              	.LVL72:
 418 0024 38BD     		pop	{r3, r4, r5, pc}
 419              	.L28:
 420 0026 C046     		.align	2
 421              	.L27:
 422 0028 00000000 		.word	key_touch_dsFlash
 423              		.cfi_endproc
 424              	.LFE11:
 425              		.size	key_touch_RunNoiseEnvelope, .-key_touch_RunNoiseEnvelope
 426              		.section	.text.key_touch_InitializeNoiseEnvelope,"ax",%progbits
 427              		.align	2
 428              		.global	key_touch_InitializeNoiseEnvelope
 429              		.code	16
 430              		.thumb_func
 431              		.type	key_touch_InitializeNoiseEnvelope, %function
 432              	key_touch_InitializeNoiseEnvelope:
 433              	.LFB12:
1326:Generated_Source\PSoC4/key_touch_Filter.c **** 
1327:Generated_Source\PSoC4/key_touch_Filter.c **** 
1328:Generated_Source\PSoC4/key_touch_Filter.c **** /*******************************************************************************
1329:Generated_Source\PSoC4/key_touch_Filter.c **** * Function Name: key_touch_InitializeNoiseEnvelope
1330:Generated_Source\PSoC4/key_touch_Filter.c **** ****************************************************************************//**
1331:Generated_Source\PSoC4/key_touch_Filter.c **** *
1332:Generated_Source\PSoC4/key_touch_Filter.c **** * \brief    Initializes the noise-envelope filter
1333:Generated_Source\PSoC4/key_touch_Filter.c **** *
1334:Generated_Source\PSoC4/key_touch_Filter.c **** * \details  Initializes the noise-envelope filter
1335:Generated_Source\PSoC4/key_touch_Filter.c **** *
1336:Generated_Source\PSoC4/key_touch_Filter.c **** * \param    widgetId Specifies the ID number of the widget.
1337:Generated_Source\PSoC4/key_touch_Filter.c **** * \param    sensorId Specifies the ID number of the sensor in the widget.
1338:Generated_Source\PSoC4/key_touch_Filter.c **** *
1339:Generated_Source\PSoC4/key_touch_Filter.c **** *******************************************************************************/
1340:Generated_Source\PSoC4/key_touch_Filter.c **** void key_touch_InitializeNoiseEnvelope(uint32 widgetId, uint32 sensorId)
1341:Generated_Source\PSoC4/key_touch_Filter.c **** {
 434              		.loc 1 1341 0
 435              		.cfi_startproc
 436              	.LVL73:
 437 0000 38B5     		push	{r3, r4, r5, lr}
 438              		.cfi_def_cfa_offset 16
 439              		.cfi_offset 3, -16
 440              		.cfi_offset 4, -12
 441              		.cfi_offset 5, -8
 442              		.cfi_offset 14, -4
 443              	.LVL74:
1342:Generated_Source\PSoC4/key_touch_Filter.c ****     key_touch_FLASH_WD_STRUCT const *ptrWidget = &key_touch_dsFlash.wdgtArray[widgetId];
1343:Generated_Source\PSoC4/key_touch_Filter.c ****     key_touch_RAM_WD_BASE_STRUCT *ptrWidgetRam = ptrWidget->ptr2WdgtRam;
 444              		.loc 1 1343 0
 445 0002 4001     		lsl	r0, r0, #5
 446              	.LVL75:
 447 0004 084B     		ldr	r3, .L30
 448 0006 1818     		add	r0, r3, r0
 449              	.LVL76:
 450 0008 4468     		ldr	r4, [r0, #4]
ARM GAS  C:\Users\Administrator\AppData\Local\Temp\ccrG5N5m.s 			page 33


 451              	.LVL77:
1344:Generated_Source\PSoC4/key_touch_Filter.c ****     key_touch_RAM_SNS_STRUCT *ptrSensor = NULL;    
1345:Generated_Source\PSoC4/key_touch_Filter.c ****     SMARTSENSE_CSD_NOISE_ENVELOPE_STRUCT *ptrNoiseEnvelope = NULL;
1346:Generated_Source\PSoC4/key_touch_Filter.c **** 
1347:Generated_Source\PSoC4/key_touch_Filter.c ****     /* Find pointer to specified sensor object */
1348:Generated_Source\PSoC4/key_touch_Filter.c ****     ptrSensor = ptrWidget->ptr2SnsRam;
 452              		.loc 1 1348 0
 453 000a 8568     		ldr	r5, [r0, #8]
 454              	.LVL78:
1349:Generated_Source\PSoC4/key_touch_Filter.c ****     ptrSensor = &ptrSensor[sensorId];
 455              		.loc 1 1349 0
 456 000c 8B00     		lsl	r3, r1, #2
 457 000e 5B18     		add	r3, r3, r1
 458 0010 5B00     		lsl	r3, r3, #1
 459              	.LVL79:
1350:Generated_Source\PSoC4/key_touch_Filter.c ****     
1351:Generated_Source\PSoC4/key_touch_Filter.c ****     /* Find pointer to specified filter sensor object */
1352:Generated_Source\PSoC4/key_touch_Filter.c ****     ptrNoiseEnvelope = ptrWidget->ptr2NoiseEnvlp;
 460              		.loc 1 1352 0
 461 0012 C269     		ldr	r2, [r0, #28]
 462              	.LVL80:
1353:Generated_Source\PSoC4/key_touch_Filter.c ****     ptrNoiseEnvelope = &ptrNoiseEnvelope[sensorId];    
 463              		.loc 1 1353 0
 464 0014 4800     		lsl	r0, r1, #1
 465              	.LVL81:
 466 0016 4118     		add	r1, r0, r1
 467              	.LVL82:
 468 0018 8900     		lsl	r1, r1, #2
 469 001a 5218     		add	r2, r2, r1
 470              	.LVL83:
1354:Generated_Source\PSoC4/key_touch_Filter.c **** 
1355:Generated_Source\PSoC4/key_touch_Filter.c ****     SmartSense_InitializeNoiseEnvelope(ptrSensor->raw[0u], ptrWidgetRam->sigPFC, ptrNoiseEnvelope);
 471              		.loc 1 1355 0
 472 001c E85A     		ldrh	r0, [r5, r3]
 473 001e 218A     		ldrh	r1, [r4, #16]
 474 0020 FFF7FEFF 		bl	SmartSense_InitializeNoiseEnvelope
 475              	.LVL84:
1356:Generated_Source\PSoC4/key_touch_Filter.c **** }
 476              		.loc 1 1356 0
 477              		@ sp needed
 478              	.LVL85:
 479              	.LVL86:
 480 0024 38BD     		pop	{r3, r4, r5, pc}
 481              	.L31:
 482 0026 C046     		.align	2
 483              	.L30:
 484 0028 00000000 		.word	key_touch_dsFlash
 485              		.cfi_endproc
 486              	.LFE12:
 487              		.size	key_touch_InitializeNoiseEnvelope, .-key_touch_InitializeNoiseEnvelope
 488              		.section	.text.key_touch_FtIIR1stOrder,"ax",%progbits
 489              		.align	2
 490              		.global	key_touch_FtIIR1stOrder
 491              		.code	16
 492              		.thumb_func
 493              		.type	key_touch_FtIIR1stOrder, %function
 494              	key_touch_FtIIR1stOrder:
ARM GAS  C:\Users\Administrator\AppData\Local\Temp\ccrG5N5m.s 			page 34


 495              	.LFB13:
1357:Generated_Source\PSoC4/key_touch_Filter.c **** #endif /* #if key_touch_CSD_AUTOTUNE & key_touch_CSD_SS_TH_EN */
1358:Generated_Source\PSoC4/key_touch_Filter.c **** 
1359:Generated_Source\PSoC4/key_touch_Filter.c **** 
1360:Generated_Source\PSoC4/key_touch_Filter.c **** #if (key_touch_POS_MEDIAN_FILTER_EN || key_touch_REGULAR_RC_MEDIAN_FILTER_EN || key_touch_PROX_RC_M
1361:Generated_Source\PSoC4/key_touch_Filter.c **** /*******************************************************************************
1362:Generated_Source\PSoC4/key_touch_Filter.c **** * Function Name: key_touch_FtMedian
1363:Generated_Source\PSoC4/key_touch_Filter.c **** ****************************************************************************//**
1364:Generated_Source\PSoC4/key_touch_Filter.c **** *
1365:Generated_Source\PSoC4/key_touch_Filter.c **** * \brief    Return the median value from the three passed arguments.
1366:Generated_Source\PSoC4/key_touch_Filter.c **** *
1367:Generated_Source\PSoC4/key_touch_Filter.c **** * \details  Return the median value from the three passed arguments.
1368:Generated_Source\PSoC4/key_touch_Filter.c **** *
1369:Generated_Source\PSoC4/key_touch_Filter.c **** * \param    x1 The first value to be compared.
1370:Generated_Source\PSoC4/key_touch_Filter.c **** * \param    x2 The second value to be compared.
1371:Generated_Source\PSoC4/key_touch_Filter.c **** * \param    x3 The third value to be compared.
1372:Generated_Source\PSoC4/key_touch_Filter.c **** *
1373:Generated_Source\PSoC4/key_touch_Filter.c **** * \return   Returns the median value of input arguments.
1374:Generated_Source\PSoC4/key_touch_Filter.c **** *
1375:Generated_Source\PSoC4/key_touch_Filter.c **** *******************************************************************************/
1376:Generated_Source\PSoC4/key_touch_Filter.c **** uint32 key_touch_FtMedian(uint32 x1, uint32 x2, uint32 x3)
1377:Generated_Source\PSoC4/key_touch_Filter.c **** {
1378:Generated_Source\PSoC4/key_touch_Filter.c ****     uint32 tmp;
1379:Generated_Source\PSoC4/key_touch_Filter.c **** 
1380:Generated_Source\PSoC4/key_touch_Filter.c ****     if (x1 > x2)
1381:Generated_Source\PSoC4/key_touch_Filter.c ****     {
1382:Generated_Source\PSoC4/key_touch_Filter.c ****         tmp = x2;
1383:Generated_Source\PSoC4/key_touch_Filter.c ****         x2 = x1;
1384:Generated_Source\PSoC4/key_touch_Filter.c ****         x1 = tmp;
1385:Generated_Source\PSoC4/key_touch_Filter.c ****     }
1386:Generated_Source\PSoC4/key_touch_Filter.c **** 
1387:Generated_Source\PSoC4/key_touch_Filter.c ****     if (x2 > x3)
1388:Generated_Source\PSoC4/key_touch_Filter.c ****     {
1389:Generated_Source\PSoC4/key_touch_Filter.c ****         x2 = x3;
1390:Generated_Source\PSoC4/key_touch_Filter.c ****     }
1391:Generated_Source\PSoC4/key_touch_Filter.c **** 
1392:Generated_Source\PSoC4/key_touch_Filter.c ****     return ((x1 > x2) ? x1 : x2);
1393:Generated_Source\PSoC4/key_touch_Filter.c **** }
1394:Generated_Source\PSoC4/key_touch_Filter.c **** #endif /*key_touch_POS_MEDIAN_FILTER_EN || key_touch_REGULAR_RC_MEDIAN_FILTER_EN || key_touch_PROX_
1395:Generated_Source\PSoC4/key_touch_Filter.c **** 
1396:Generated_Source\PSoC4/key_touch_Filter.c **** 
1397:Generated_Source\PSoC4/key_touch_Filter.c **** /*******************************************************************************
1398:Generated_Source\PSoC4/key_touch_Filter.c **** * Function Name: key_touch_FtIIR1stOrder
1399:Generated_Source\PSoC4/key_touch_Filter.c **** ****************************************************************************//**
1400:Generated_Source\PSoC4/key_touch_Filter.c **** *
1401:Generated_Source\PSoC4/key_touch_Filter.c **** * \brief    Return the filtered data by the IIR 1-st order algorithm
1402:Generated_Source\PSoC4/key_touch_Filter.c **** *
1403:Generated_Source\PSoC4/key_touch_Filter.c **** * \details  Return the filtered data by the IIR 1-st order algorithm
1404:Generated_Source\PSoC4/key_touch_Filter.c **** *
1405:Generated_Source\PSoC4/key_touch_Filter.c **** * \param    input      The data to be filtered.
1406:Generated_Source\PSoC4/key_touch_Filter.c **** * \param    prevOutput The previous filtered data.
1407:Generated_Source\PSoC4/key_touch_Filter.c **** * \param    n          The IIR filter coefficient (n/256).
1408:Generated_Source\PSoC4/key_touch_Filter.c **** * \param    shift      The parameter is used to shift input data to have free LSB 
1409:Generated_Source\PSoC4/key_touch_Filter.c **** *                       bits for a fraction storage of the filter output calculation.
1410:Generated_Source\PSoC4/key_touch_Filter.c **** *
1411:Generated_Source\PSoC4/key_touch_Filter.c **** * \return   Returns the filtered data.
1412:Generated_Source\PSoC4/key_touch_Filter.c **** *
ARM GAS  C:\Users\Administrator\AppData\Local\Temp\ccrG5N5m.s 			page 35


1413:Generated_Source\PSoC4/key_touch_Filter.c **** *******************************************************************************/
1414:Generated_Source\PSoC4/key_touch_Filter.c **** uint32 key_touch_FtIIR1stOrder(uint32 input, uint32 prevOutput, uint32 n, uint32 shift)
1415:Generated_Source\PSoC4/key_touch_Filter.c **** {   
 496              		.loc 1 1415 0
 497              		.cfi_startproc
 498              	.LVL87:
1416:Generated_Source\PSoC4/key_touch_Filter.c ****     uint32 output;
1417:Generated_Source\PSoC4/key_touch_Filter.c ****    
1418:Generated_Source\PSoC4/key_touch_Filter.c ****     /*
1419:Generated_Source\PSoC4/key_touch_Filter.c ****     * n - IIR filter coefficient (n/256)
1420:Generated_Source\PSoC4/key_touch_Filter.c ****     * shift - Used to shift input data to have free LSB bits
1421:Generated_Source\PSoC4/key_touch_Filter.c ****     * for fraction storage of filter output calculation
1422:Generated_Source\PSoC4/key_touch_Filter.c ****     */
1423:Generated_Source\PSoC4/key_touch_Filter.c ****     output = ((n * (input << shift)) + ((key_touch_IIR_COEFFICIENT_K - n) * prevOutput)) >> 8u;
 499              		.loc 1 1423 0
 500 0000 9840     		lsl	r0, r0, r3
 501              	.LVL88:
 502 0002 031C     		mov	r3, r0
 503              	.LVL89:
 504 0004 5343     		mul	r3, r2
 505 0006 8020     		mov	r0, #128
 506 0008 4000     		lsl	r0, r0, #1
 507 000a 801A     		sub	r0, r0, r2
 508 000c 4143     		mul	r1, r0
 509              	.LVL90:
 510 000e 5818     		add	r0, r3, r1
 511 0010 000A     		lsr	r0, r0, #8
 512              	.LVL91:
1424:Generated_Source\PSoC4/key_touch_Filter.c ****     
1425:Generated_Source\PSoC4/key_touch_Filter.c ****     /* Shift operation of output will be done in upper level API if needed */
1426:Generated_Source\PSoC4/key_touch_Filter.c ****     return output;
1427:Generated_Source\PSoC4/key_touch_Filter.c **** }
 513              		.loc 1 1427 0
 514              		@ sp needed
 515 0012 7047     		bx	lr
 516              		.cfi_endproc
 517              	.LFE13:
 518              		.size	key_touch_FtIIR1stOrder, .-key_touch_FtIIR1stOrder
 519              		.section	.text.key_touch_FtUpdateBaseline,"ax",%progbits
 520              		.align	2
 521              		.global	key_touch_FtUpdateBaseline
 522              		.code	16
 523              		.thumb_func
 524              		.type	key_touch_FtUpdateBaseline, %function
 525              	key_touch_FtUpdateBaseline:
 526              	.LFB5:
 325:Generated_Source\PSoC4/key_touch_Filter.c ****     uint32 sign;
 527              		.loc 1 325 0
 528              		.cfi_startproc
 529              	.LVL92:
 530 0000 F0B5     		push	{r4, r5, r6, r7, lr}
 531              		.cfi_def_cfa_offset 20
 532              		.cfi_offset 4, -20
 533              		.cfi_offset 5, -16
 534              		.cfi_offset 6, -12
 535              		.cfi_offset 7, -8
 536              		.cfi_offset 14, -4
ARM GAS  C:\Users\Administrator\AppData\Local\Temp\ccrG5N5m.s 			page 36


 537 0002 83B0     		sub	sp, sp, #12
 538              		.cfi_def_cfa_offset 32
 539 0004 071C     		mov	r7, r0
 540 0006 0E1C     		mov	r6, r1
 541 0008 0192     		str	r2, [sp, #4]
 542              	.LVL93:
 336:Generated_Source\PSoC4/key_touch_Filter.c ****     {               
 543              		.loc 1 336 0
 544 000a 0123     		mov	r3, #1
 545 000c 3BE0     		b	.L34
 546              	.LVL94:
 547              	.L41:
 348:Generated_Source\PSoC4/key_touch_Filter.c ****         {
 548              		.loc 1 348 0
 549 000e 6300     		lsl	r3, r4, #1
 550 0010 985B     		ldrh	r0, [r3, r6]
 551 0012 F318     		add	r3, r6, r3
 552 0014 5988     		ldrh	r1, [r3, #2]
 553 0016 8842     		cmp	r0, r1
 554 0018 05D3     		bcc	.L35
 350:Generated_Source\PSoC4/key_touch_Filter.c ****             sign = 1u;
 555              		.loc 1 350 0
 556 001a 431A     		sub	r3, r0, r1
 557              	.LVL95:
 352:Generated_Source\PSoC4/key_touch_Filter.c ****         }
 558              		.loc 1 352 0
 559 001c 3219     		add	r2, r6, r4
 560 001e 0025     		mov	r5, #0
 561 0020 1572     		strb	r5, [r2, #8]
 351:Generated_Source\PSoC4/key_touch_Filter.c ****             ptrSensor->negBslnRstCnt[channel] = 0u;
 562              		.loc 1 351 0
 563 0022 0122     		mov	r2, #1
 564 0024 01E0     		b	.L36
 565              	.LVL96:
 566              	.L35:
 356:Generated_Source\PSoC4/key_touch_Filter.c ****             sign = 0u;
 567              		.loc 1 356 0
 568 0026 0B1A     		sub	r3, r1, r0
 569              	.LVL97:
 357:Generated_Source\PSoC4/key_touch_Filter.c ****         }     
 570              		.loc 1 357 0
 571 0028 0022     		mov	r2, #0
 572              	.LVL98:
 573              	.L36:
 361:Generated_Source\PSoC4/key_touch_Filter.c ****         {
 574              		.loc 1 361 0
 575 002a 002A     		cmp	r2, #0
 576 002c 11D1     		bne	.L37
 361:Generated_Source\PSoC4/key_touch_Filter.c ****         {
 577              		.loc 1 361 0 is_stmt 0 discriminator 1
 578 002e 7D79     		ldrb	r5, [r7, #5]
 579 0030 9D42     		cmp	r5, r3
 580 0032 0ED2     		bcs	.L37
 363:Generated_Source\PSoC4/key_touch_Filter.c ****             {                
 581              		.loc 1 363 0 is_stmt 1
 582 0034 3319     		add	r3, r6, r4
 583              	.LVL99:
ARM GAS  C:\Users\Administrator\AppData\Local\Temp\ccrG5N5m.s 			page 37


 584 0036 1B7A     		ldrb	r3, [r3, #8]
 585 0038 3A7A     		ldrb	r2, [r7, #8]
 586              	.LVL100:
 587 003a 9342     		cmp	r3, r2
 588 003c 05D3     		bcc	.L38
 365:Generated_Source\PSoC4/key_touch_Filter.c ****             }
 589              		.loc 1 365 0
 590 003e 301C     		mov	r0, r6
 591 0040 0199     		ldr	r1, [sp, #4]
 592 0042 221C     		mov	r2, r4
 593 0044 FFF7FEFF 		bl	key_touch_FtInitializeBaselineChannel
 594              	.LVL101:
 595 0048 1CE0     		b	.L39
 596              	.L38:
 369:Generated_Source\PSoC4/key_touch_Filter.c ****             }
 597              		.loc 1 369 0
 598 004a 3219     		add	r2, r6, r4
 599 004c 0133     		add	r3, r3, #1
 600 004e 1372     		strb	r3, [r2, #8]
 601 0050 18E0     		b	.L39
 602              	.LVL102:
 603              	.L37:
 376:Generated_Source\PSoC4/key_touch_Filter.c ****                     ((difference < (uint32) ptrWidgetRam->nNoiseTh) && (sign == 0u)))
 604              		.loc 1 376 0
 605 0052 3D79     		ldrb	r5, [r7, #4]
 606 0054 9D42     		cmp	r5, r3
 607 0056 04D2     		bcs	.L40
 377:Generated_Source\PSoC4/key_touch_Filter.c ****                 {
 608              		.loc 1 377 0 discriminator 1
 609 0058 7D79     		ldrb	r5, [r7, #5]
 376:Generated_Source\PSoC4/key_touch_Filter.c ****                     ((difference < (uint32) ptrWidgetRam->nNoiseTh) && (sign == 0u)))
 610              		.loc 1 376 0 discriminator 1
 611 005a 9D42     		cmp	r5, r3
 612 005c 12D9     		bls	.L39
 377:Generated_Source\PSoC4/key_touch_Filter.c ****                 {
 613              		.loc 1 377 0
 614 005e 002A     		cmp	r2, #0
 615 0060 10D1     		bne	.L39
 616              	.L40:
 383:Generated_Source\PSoC4/key_touch_Filter.c ****                 {
 617              		.loc 1 383 0
 618 0062 6B46     		mov	r3, sp
 619              	.LVL103:
 620 0064 1B79     		ldrb	r3, [r3, #4]
 621 0066 062B     		cmp	r3, #6
 622 0068 0CD0     		beq	.L39
 387:Generated_Source\PSoC4/key_touch_Filter.c ****                             history |= ptrSensor->bslnExt[channel];
 623              		.loc 1 387 0
 624 006a 0902     		lsl	r1, r1, #8
 625              	.LVL104:
 388:Generated_Source\PSoC4/key_touch_Filter.c ****                         #else
 626              		.loc 1 388 0
 627 006c 3519     		add	r5, r6, r4
 628 006e 2B79     		ldrb	r3, [r5, #4]
 629 0070 1943     		orr	r1, r3
 630              	.LVL105:
 393:Generated_Source\PSoC4/key_touch_Filter.c ****                                         (uint32)ptrSensor->raw[channel],
ARM GAS  C:\Users\Administrator\AppData\Local\Temp\ccrG5N5m.s 			page 38


 631              		.loc 1 393 0
 632 0072 0122     		mov	r2, #1
 633              	.LVL106:
 634 0074 0823     		mov	r3, #8
 635 0076 FFF7FEFF 		bl	key_touch_FtIIR1stOrder
 636              	.LVL107:
 400:Generated_Source\PSoC4/key_touch_Filter.c ****                             ptrSensor->bslnExt[channel] = LO8(history);
 637              		.loc 1 400 0
 638 007a 020A     		lsr	r2, r0, #8
 639 007c 6300     		lsl	r3, r4, #1
 640 007e F318     		add	r3, r6, r3
 641 0080 5A80     		strh	r2, [r3, #2]
 401:Generated_Source\PSoC4/key_touch_Filter.c ****                         #else
 642              		.loc 1 401 0
 643 0082 2871     		strb	r0, [r5, #4]
 644              	.LVL108:
 645              	.L39:
 646 0084 231C     		mov	r3, r4
 647              	.LVL109:
 648              	.L34:
 336:Generated_Source\PSoC4/key_touch_Filter.c ****     {               
 649              		.loc 1 336 0 discriminator 1
 650 0086 5C1E     		sub	r4, r3, #1
 651              	.LVL110:
 652 0088 002B     		cmp	r3, #0
 653 008a C0D1     		bne	.L41
 449:Generated_Source\PSoC4/key_touch_Filter.c **** 
 654              		.loc 1 449 0
 655 008c 0020     		mov	r0, #0
 656 008e 03B0     		add	sp, sp, #12
 657              		@ sp needed
 658              	.LVL111:
 659              	.LVL112:
 660              	.LVL113:
 661 0090 F0BD     		pop	{r4, r5, r6, r7, pc}
 662              		.cfi_endproc
 663              	.LFE5:
 664              		.size	key_touch_FtUpdateBaseline, .-key_touch_FtUpdateBaseline
 665 0092 C046     		.section	.text.key_touch_UpdateSensorBaseline,"ax",%progbits
 666              		.align	2
 667              		.global	key_touch_UpdateSensorBaseline
 668              		.code	16
 669              		.thumb_func
 670              		.type	key_touch_UpdateSensorBaseline, %function
 671              	key_touch_UpdateSensorBaseline:
 672              	.LFB4:
 267:Generated_Source\PSoC4/key_touch_Filter.c ****     uint32 result = CYRET_SUCCESS;
 673              		.loc 1 267 0
 674              		.cfi_startproc
 675              	.LVL114:
 676 0000 08B5     		push	{r3, lr}
 677              		.cfi_def_cfa_offset 8
 678              		.cfi_offset 3, -8
 679              		.cfi_offset 14, -4
 680              	.LVL115:
 272:Generated_Source\PSoC4/key_touch_Filter.c **** 
 681              		.loc 1 272 0
ARM GAS  C:\Users\Administrator\AppData\Local\Temp\ccrG5N5m.s 			page 39


 682 0002 4001     		lsl	r0, r0, #5
 683              	.LVL116:
 684 0004 064B     		ldr	r3, .L43
 685 0006 1B18     		add	r3, r3, r0
 686              	.LVL117:
 687 0008 5868     		ldr	r0, [r3, #4]
 688              	.LVL118:
 276:Generated_Source\PSoC4/key_touch_Filter.c ****     result = key_touch_FtUpdateBaseline(ptrWidgetRam, ptrSensor, (uint32)ptrWidget->wdgtType);
 689              		.loc 1 276 0
 690 000a 8A00     		lsl	r2, r1, #2
 691 000c 5118     		add	r1, r2, r1
 692              	.LVL119:
 693 000e 4900     		lsl	r1, r1, #1
 694 0010 9A68     		ldr	r2, [r3, #8]
 695 0012 9446     		mov	ip, r2
 696 0014 6144     		add	r1, r1, ip
 697              	.LVL120:
 277:Generated_Source\PSoC4/key_touch_Filter.c ****     
 698              		.loc 1 277 0
 699 0016 1A7E     		ldrb	r2, [r3, #24]
 700 0018 FFF7FEFF 		bl	key_touch_FtUpdateBaseline
 701              	.LVL121:
 288:Generated_Source\PSoC4/key_touch_Filter.c **** 
 702              		.loc 1 288 0
 703              		@ sp needed
 704 001c 08BD     		pop	{r3, pc}
 705              	.L44:
 706 001e C046     		.align	2
 707              	.L43:
 708 0020 00000000 		.word	key_touch_dsFlash
 709              		.cfi_endproc
 710              	.LFE4:
 711              		.size	key_touch_UpdateSensorBaseline, .-key_touch_UpdateSensorBaseline
 712              		.section	.text.key_touch_UpdateWidgetBaseline,"ax",%progbits
 713              		.align	2
 714              		.global	key_touch_UpdateWidgetBaseline
 715              		.code	16
 716              		.thumb_func
 717              		.type	key_touch_UpdateWidgetBaseline, %function
 718              	key_touch_UpdateWidgetBaseline:
 719              	.LFB3:
 210:Generated_Source\PSoC4/key_touch_Filter.c ****     uint32 sensorId;       
 720              		.loc 1 210 0
 721              		.cfi_startproc
 722              	.LVL122:
 723 0000 70B5     		push	{r4, r5, r6, lr}
 724              		.cfi_def_cfa_offset 16
 725              		.cfi_offset 4, -16
 726              		.cfi_offset 5, -12
 727              		.cfi_offset 6, -8
 728              		.cfi_offset 14, -4
 729 0002 061C     		mov	r6, r0
 730              	.LVL123:
 218:Generated_Source\PSoC4/key_touch_Filter.c ****     
 731              		.loc 1 218 0
 732 0004 4301     		lsl	r3, r0, #5
 733 0006 084A     		ldr	r2, .L48
ARM GAS  C:\Users\Administrator\AppData\Local\Temp\ccrG5N5m.s 			page 40


 734 0008 D318     		add	r3, r2, r3
 735              	.LVL124:
 736 000a DB8A     		ldrh	r3, [r3, #22]
 737              	.LVL125:
 215:Generated_Source\PSoC4/key_touch_Filter.c ****     
 738              		.loc 1 215 0
 739 000c 0025     		mov	r5, #0
 220:Generated_Source\PSoC4/key_touch_Filter.c ****     {
 740              		.loc 1 220 0
 741 000e 05E0     		b	.L46
 742              	.LVL126:
 743              	.L47:
 222:Generated_Source\PSoC4/key_touch_Filter.c ****     }
 744              		.loc 1 222 0
 745 0010 301C     		mov	r0, r6
 746 0012 211C     		mov	r1, r4
 747 0014 FFF7FEFF 		bl	key_touch_UpdateSensorBaseline
 748              	.LVL127:
 749 0018 0543     		orr	r5, r0
 750              	.LVL128:
 220:Generated_Source\PSoC4/key_touch_Filter.c ****     {
 751              		.loc 1 220 0
 752 001a 231C     		mov	r3, r4
 753              	.LVL129:
 754              	.L46:
 220:Generated_Source\PSoC4/key_touch_Filter.c ****     {
 755              		.loc 1 220 0 is_stmt 0 discriminator 1
 756 001c 5C1E     		sub	r4, r3, #1
 757              	.LVL130:
 758 001e 002B     		cmp	r3, #0
 759 0020 F6D1     		bne	.L47
 226:Generated_Source\PSoC4/key_touch_Filter.c **** 
 760              		.loc 1 226 0 is_stmt 1
 761 0022 281C     		mov	r0, r5
 762              		@ sp needed
 763              	.LVL131:
 764              	.LVL132:
 765              	.LVL133:
 766 0024 70BD     		pop	{r4, r5, r6, pc}
 767              	.L49:
 768 0026 C046     		.align	2
 769              	.L48:
 770 0028 00000000 		.word	key_touch_dsFlash
 771              		.cfi_endproc
 772              	.LFE3:
 773              		.size	key_touch_UpdateWidgetBaseline, .-key_touch_UpdateWidgetBaseline
 774              		.section	.text.key_touch_UpdateAllBaselines,"ax",%progbits
 775              		.align	2
 776              		.global	key_touch_UpdateAllBaselines
 777              		.code	16
 778              		.thumb_func
 779              		.type	key_touch_UpdateAllBaselines, %function
 780              	key_touch_UpdateAllBaselines:
 781              	.LFB2:
 165:Generated_Source\PSoC4/key_touch_Filter.c ****     uint32 widgetId; 
 782              		.loc 1 165 0
 783              		.cfi_startproc
ARM GAS  C:\Users\Administrator\AppData\Local\Temp\ccrG5N5m.s 			page 41


 784 0000 38B5     		push	{r3, r4, r5, lr}
 785              		.cfi_def_cfa_offset 16
 786              		.cfi_offset 3, -16
 787              		.cfi_offset 4, -12
 788              		.cfi_offset 5, -8
 789              		.cfi_offset 14, -4
 790              	.LVL134:
 167:Generated_Source\PSoC4/key_touch_Filter.c ****     
 791              		.loc 1 167 0
 792 0002 0025     		mov	r5, #0
 169:Generated_Source\PSoC4/key_touch_Filter.c ****     {            
 793              		.loc 1 169 0
 794 0004 0C23     		mov	r3, #12
 795 0006 04E0     		b	.L51
 796              	.LVL135:
 797              	.L52:
 171:Generated_Source\PSoC4/key_touch_Filter.c ****     }      
 798              		.loc 1 171 0
 799 0008 201C     		mov	r0, r4
 800 000a FFF7FEFF 		bl	key_touch_UpdateWidgetBaseline
 801              	.LVL136:
 802 000e 0543     		orr	r5, r0
 803              	.LVL137:
 169:Generated_Source\PSoC4/key_touch_Filter.c ****     {            
 804              		.loc 1 169 0
 805 0010 231C     		mov	r3, r4
 806              	.LVL138:
 807              	.L51:
 169:Generated_Source\PSoC4/key_touch_Filter.c ****     {            
 808              		.loc 1 169 0 is_stmt 0 discriminator 1
 809 0012 5C1E     		sub	r4, r3, #1
 810              	.LVL139:
 811 0014 002B     		cmp	r3, #0
 812 0016 F7D1     		bne	.L52
 175:Generated_Source\PSoC4/key_touch_Filter.c ****   
 813              		.loc 1 175 0 is_stmt 1
 814 0018 281C     		mov	r0, r5
 815              		@ sp needed
 816              	.LVL140:
 817              	.LVL141:
 818 001a 38BD     		pop	{r3, r4, r5, pc}
 819              		.cfi_endproc
 820              	.LFE2:
 821              		.size	key_touch_UpdateAllBaselines, .-key_touch_UpdateAllBaselines
 822              		.text
 823              	.Letext0:
 824              		.file 2 "Generated_Source\\PSoC4\\cytypes.h"
 825              		.file 3 "Generated_Source\\PSoC4\\key_touch_Configuration.h"
 826              		.file 4 "Generated_Source\\PSoC4\\key_touch_SmartSense_LL.h"
 827              		.file 5 "Generated_Source\\PSoC4\\key_touch_Structure.h"