ARM GAS  C:\Users\Administrator\AppData\Local\Temp\ccGF7c1p.s 			page 1


   1              		.cpu cortex-m0plus
   2              		.fpu softvfp
   3              		.eabi_attribute 20, 1
   4              		.eabi_attribute 21, 1
   5              		.eabi_attribute 23, 3
   6              		.eabi_attribute 24, 1
   7              		.eabi_attribute 25, 1
   8              		.eabi_attribute 26, 1
   9              		.eabi_attribute 30, 1
  10              		.eabi_attribute 34, 0
  11              		.eabi_attribute 18, 4
  12              		.code	16
  13              		.file	"main.c"
  14              		.text
  15              	.Ltext0:
  16              		.cfi_sections	.debug_frame
  17              		.section	.text.time_1ms_Interrupt,"ax",%progbits
  18              		.align	2
  19              		.global	time_1ms_Interrupt
  20              		.code	16
  21              		.thumb_func
  22              		.type	time_1ms_Interrupt, %function
  23              	time_1ms_Interrupt:
  24              	.LFB36:
  25              		.file 1 "main.c"
   1:main.c        **** /* ========================================
   2:main.c        ****  *
   3:main.c        ****  * Copyright YOUR COMPANY, THE YEAR
   4:main.c        ****  * All Rights Reserved
   5:main.c        ****  * UNPUBLISHED, LICENSED SOFTWARE.
   6:main.c        ****  *
   7:main.c        ****  * CONFIDENTIAL AND PROPRIETARY INFORMATION
   8:main.c        ****  * WHICH IS THE PROPERTY OF your company.
   9:main.c        ****  *
  10:main.c        ****  * ========================================
  11:main.c        **** */
  12:main.c        **** #include "project.h"
  13:main.c        **** #include "timing.h"
  14:main.c        **** #include "app.h"
  15:main.c        **** #include "key.h"
  16:main.c        **** #include "simple_protocol.h"
  17:main.c        **** #include "task_manager.h"
  18:main.c        **** 
  19:main.c        **** CY_ISR_PROTO(time_1ms_Interrupt);
  20:main.c        **** 
  21:main.c        **** int main(void)
  22:main.c        **** {
  23:main.c        ****     /* Place your initialization/startup code here (e.g. MyInst_Start()) */
  24:main.c        ****     
  25:main.c        ****     CyGlobalIntEnable; /* Enable global interrupts. */
  26:main.c        ****     
  27:main.c        ****     key_init();
  28:main.c        ****     simple_protocol_init();
  29:main.c        ****     task_init();
  30:main.c        ****     app_init();
  31:main.c        ****     Timer_1_Start();  //开定时器
  32:main.c        ****     time_1ms_ISR_StartEx(time_1ms_Interrupt);      //自定义中断服务函数
ARM GAS  C:\Users\Administrator\AppData\Local\Temp\ccGF7c1p.s 			page 2


  33:main.c        ****     key_touch_Start(); /* Initialize Component */
  34:main.c        ****     key_touch_ScanAllWidgets(); /* Scan all widgets */
  35:main.c        ****     
  36:main.c        ****     task_add(key_main, 10);      
  37:main.c        ****     task_add(simple_protocol_process, 1);
  38:main.c        ****     for(;;)
  39:main.c        ****     {
  40:main.c        ****         //CySysWdtIsr();   //feed dog
  41:main.c        ****         /* Do this only when a scan is done */
  42:main.c        ****         if(key_touch_NOT_BUSY == key_touch_IsBusy()) 
  43:main.c        ****         {
  44:main.c        ****             key_touch_ProcessAllWidgets(); 
  45:main.c        ****             task_main();
  46:main.c        ****             key_touch_ScanAllWidgets(); 
  47:main.c        ****         } 
  48:main.c        ****         /* Place your application code here. */
  49:main.c        ****         task_main();
  50:main.c        ****     }
  51:main.c        ****     
  52:main.c        **** }
  53:main.c        **** 
  54:main.c        **** CY_ISR(time_1ms_Interrupt)
  55:main.c        **** {
  26              		.loc 1 55 0
  27              		.cfi_startproc
  28 0000 08B5     		push	{r3, lr}
  29              		.cfi_def_cfa_offset 8
  30              		.cfi_offset 3, -8
  31              		.cfi_offset 14, -4
  56:main.c        ****     task_1ms_updater();
  32              		.loc 1 56 0
  33 0002 FFF7FEFF 		bl	task_1ms_updater
  34              	.LVL0:
  57:main.c        ****     timing_count();
  35              		.loc 1 57 0
  36 0006 FFF7FEFF 		bl	timing_count
  37              	.LVL1:
  58:main.c        ****     Timer_1_ClearInterrupt(Timer_1_INTR_MASK_TC);
  38              		.loc 1 58 0
  39 000a 0120     		mov	r0, #1
  40 000c FFF7FEFF 		bl	Timer_1_ClearInterrupt
  41              	.LVL2:
  59:main.c        **** }
  42              		.loc 1 59 0
  43              		@ sp needed
  44 0010 08BD     		pop	{r3, pc}
  45              		.cfi_endproc
  46              	.LFE36:
  47              		.size	time_1ms_Interrupt, .-time_1ms_Interrupt
  48 0012 C046     		.section	.text.main,"ax",%progbits
  49              		.align	2
  50              		.global	main
  51              		.code	16
  52              		.thumb_func
  53              		.type	main, %function
  54              	main:
  55              	.LFB35:
ARM GAS  C:\Users\Administrator\AppData\Local\Temp\ccGF7c1p.s 			page 3


  22:main.c        ****     /* Place your initialization/startup code here (e.g. MyInst_Start()) */
  56              		.loc 1 22 0
  57              		.cfi_startproc
  58 0000 08B5     		push	{r3, lr}
  59              		.cfi_def_cfa_offset 8
  60              		.cfi_offset 3, -8
  61              		.cfi_offset 14, -4
  25:main.c        ****     
  62              		.loc 1 25 0
  63              	@ 25 "main.c" 1
  64 0002 62B6     		CPSIE   i
  65              	@ 0 "" 2
  27:main.c        ****     simple_protocol_init();
  66              		.loc 1 27 0
  67              		.code	16
  68 0004 FFF7FEFF 		bl	key_init
  69              	.LVL3:
  28:main.c        ****     task_init();
  70              		.loc 1 28 0
  71 0008 FFF7FEFF 		bl	simple_protocol_init
  72              	.LVL4:
  29:main.c        ****     app_init();
  73              		.loc 1 29 0
  74 000c FFF7FEFF 		bl	task_init
  75              	.LVL5:
  30:main.c        ****     Timer_1_Start();  //开定时器
  76              		.loc 1 30 0
  77 0010 FFF7FEFF 		bl	app_init
  78              	.LVL6:
  31:main.c        ****     time_1ms_ISR_StartEx(time_1ms_Interrupt);      //自定义中断服务函数
  79              		.loc 1 31 0
  80 0014 FFF7FEFF 		bl	Timer_1_Start
  81              	.LVL7:
  32:main.c        ****     key_touch_Start(); /* Initialize Component */
  82              		.loc 1 32 0
  83 0018 0D48     		ldr	r0, .L5
  84 001a FFF7FEFF 		bl	time_1ms_ISR_StartEx
  85              	.LVL8:
  33:main.c        ****     key_touch_ScanAllWidgets(); /* Scan all widgets */
  86              		.loc 1 33 0
  87 001e FFF7FEFF 		bl	key_touch_Start
  88              	.LVL9:
  34:main.c        ****     
  89              		.loc 1 34 0
  90 0022 FFF7FEFF 		bl	key_touch_ScanAllWidgets
  91              	.LVL10:
  36:main.c        ****     task_add(simple_protocol_process, 1);
  92              		.loc 1 36 0
  93 0026 0B48     		ldr	r0, .L5+4
  94 0028 0A21     		mov	r1, #10
  95 002a FFF7FEFF 		bl	task_add
  96              	.LVL11:
  37:main.c        ****     for(;;)
  97              		.loc 1 37 0
  98 002e 0A48     		ldr	r0, .L5+8
  99 0030 0121     		mov	r1, #1
 100 0032 FFF7FEFF 		bl	task_add
ARM GAS  C:\Users\Administrator\AppData\Local\Temp\ccGF7c1p.s 			page 4


 101              	.LVL12:
 102              	.L4:
  42:main.c        ****         {
 103              		.loc 1 42 0
 104 0036 FFF7FEFF 		bl	key_touch_IsBusy
 105              	.LVL13:
 106 003a 0028     		cmp	r0, #0
 107 003c 05D1     		bne	.L3
  44:main.c        ****             task_main();
 108              		.loc 1 44 0
 109 003e FFF7FEFF 		bl	key_touch_ProcessAllWidgets
 110              	.LVL14:
  45:main.c        ****             key_touch_ScanAllWidgets(); 
 111              		.loc 1 45 0
 112 0042 FFF7FEFF 		bl	task_main
 113              	.LVL15:
  46:main.c        ****         } 
 114              		.loc 1 46 0
 115 0046 FFF7FEFF 		bl	key_touch_ScanAllWidgets
 116              	.LVL16:
 117              	.L3:
  49:main.c        ****     }
 118              		.loc 1 49 0
 119 004a FFF7FEFF 		bl	task_main
 120              	.LVL17:
  50:main.c        ****     
 121              		.loc 1 50 0
 122 004e F2E7     		b	.L4
 123              	.L6:
 124              		.align	2
 125              	.L5:
 126 0050 00000000 		.word	time_1ms_Interrupt
 127 0054 00000000 		.word	key_main
 128 0058 00000000 		.word	simple_protocol_process
 129              		.cfi_endproc
 130              	.LFE35:
 131              		.size	main, .-main
 132              		.text
 133              	.Letext0:
 134              		.file 2 "Generated_Source\\PSoC4/cytypes.h"
 135              		.file 3 "types.h"
 136              		.file 4 "task_manager.h"
 137              		.file 5 "timing.h"
 138              		.file 6 "key.h"
 139              		.file 7 "simple_protocol.h"
 140              		.file 8 "app.h"
 141              		.file 9 "Generated_Source\\PSoC4/Timer_1.h"
 142              		.file 10 "Generated_Source\\PSoC4/time_1ms_ISR.h"
 143              		.file 11 "Generated_Source\\PSoC4/key_touch_Control.h"
 144              		.file 12 "Generated_Source\\PSoC4/key_touch_Sensing.h"