ARM GAS  C:\Users\Administrator\AppData\Local\Temp\ccbSnUQ9.s 			page 1


   1              		.cpu cortex-m0plus
   2              		.fpu softvfp
   3              		.eabi_attribute 20, 1
   4              		.eabi_attribute 21, 1
   5              		.eabi_attribute 23, 3
   6              		.eabi_attribute 24, 1
   7              		.eabi_attribute 25, 1
   8              		.eabi_attribute 26, 1
   9              		.eabi_attribute 30, 1
  10              		.eabi_attribute 34, 0
  11              		.eabi_attribute 18, 4
  12              		.code	16
  13              		.file	"task_manager.c"
  14              		.text
  15              	.Ltext0:
  16              		.cfi_sections	.debug_frame
  17              		.section	.text.task_init,"ax",%progbits
  18              		.align	2
  19              		.global	task_init
  20              		.code	16
  21              		.thumb_func
  22              		.type	task_init, %function
  23              	task_init:
  24              	.LFB0:
  25              		.file 1 "task_manager.c"
   1:task_manager.c **** /* ========================================
   2:task_manager.c ****  *
   3:task_manager.c ****  * Copyright YOUR COMPANY, THE YEAR
   4:task_manager.c ****  * All Rights Reserved
   5:task_manager.c ****  * UNPUBLISHED, LICENSED SOFTWARE.
   6:task_manager.c ****  *
   7:task_manager.c ****  * CONFIDENTIAL AND PROPRIETARY INFORMATION
   8:task_manager.c ****  * WHICH IS THE PROPERTY OF your company.
   9:task_manager.c ****  *
  10:task_manager.c ****  * ========================================
  11:task_manager.c **** */
  12:task_manager.c **** #include "task_manager.h"
  13:task_manager.c **** #include "string.h"
  14:task_manager.c **** 
  15:task_manager.c **** typedef struct
  16:task_manager.c **** {
  17:task_manager.c ****     pfunc task;           
  18:task_manager.c ****     uint16 schedule_period;
  19:task_manager.c ****     uint16 old_time;
  20:task_manager.c **** }Task;
  21:task_manager.c **** #define TASK_MAX_NUMBER 20
  22:task_manager.c **** 
  23:task_manager.c **** typedef struct
  24:task_manager.c **** {
  25:task_manager.c ****     Task task_list[TASK_MAX_NUMBER];        
  26:task_manager.c ****     uint8 task_nunber;      
  27:task_manager.c ****     uint16 time_counter;
  28:task_manager.c ****     uint16 prev_time_counter;
  29:task_manager.c **** }Task_manager;
  30:task_manager.c **** 
  31:task_manager.c **** static Task_manager task_manager;
  32:task_manager.c **** 
ARM GAS  C:\Users\Administrator\AppData\Local\Temp\ccbSnUQ9.s 			page 2


  33:task_manager.c **** void task_init(void)
  34:task_manager.c **** {
  26              		.loc 1 34 0
  27              		.cfi_startproc
  28 0000 08B5     		push	{r3, lr}
  29              		.cfi_def_cfa_offset 8
  30              		.cfi_offset 3, -8
  31              		.cfi_offset 14, -4
  35:task_manager.c ****     memset(&task_manager, 0, sizeof(Task_manager));
  32              		.loc 1 35 0
  33 0002 0348     		ldr	r0, .L2
  34 0004 0021     		mov	r1, #0
  35 0006 A822     		mov	r2, #168
  36 0008 FFF7FEFF 		bl	memset
  37              	.LVL0:
  36:task_manager.c **** }
  38              		.loc 1 36 0
  39              		@ sp needed
  40 000c 08BD     		pop	{r3, pc}
  41              	.L3:
  42 000e C046     		.align	2
  43              	.L2:
  44 0010 00000000 		.word	.LANCHOR0
  45              		.cfi_endproc
  46              	.LFE0:
  47              		.size	task_init, .-task_init
  48              		.section	.text.task_main,"ax",%progbits
  49              		.align	2
  50              		.global	task_main
  51              		.code	16
  52              		.thumb_func
  53              		.type	task_main, %function
  54              	task_main:
  55              	.LFB1:
  37:task_manager.c **** 
  38:task_manager.c **** void task_main(void)
  39:task_manager.c **** {
  56              		.loc 1 39 0
  57              		.cfi_startproc
  58 0000 10B5     		push	{r4, lr}
  59              		.cfi_def_cfa_offset 8
  60              		.cfi_offset 4, -8
  61              		.cfi_offset 14, -4
  62              	.LVL1:
  40:task_manager.c ****     uint8 i = 0;
  41:task_manager.c ****     uint16 temp = 0;
  42:task_manager.c ****     
  43:task_manager.c ****     if (task_manager.time_counter == task_manager.prev_time_counter)
  63              		.loc 1 43 0
  64 0002 124B     		ldr	r3, .L9
  65 0004 A222     		mov	r2, #162
  66 0006 9A5A     		ldrh	r2, [r3, r2]
  67 0008 A421     		mov	r1, #164
  68 000a 5B5A     		ldrh	r3, [r3, r1]
  69 000c 9A42     		cmp	r2, r3
  70 000e 1CD0     		beq	.L4
  44:task_manager.c ****         return;
ARM GAS  C:\Users\Administrator\AppData\Local\Temp\ccbSnUQ9.s 			page 3


  45:task_manager.c ****     task_manager.prev_time_counter = task_manager.time_counter;
  71              		.loc 1 45 0
  72 0010 A423     		mov	r3, #164
  73 0012 0E49     		ldr	r1, .L9
  74 0014 CA52     		strh	r2, [r1, r3]
  46:task_manager.c ****     
  47:task_manager.c ****     for (i = 0; i < task_manager.task_nunber; i++)
  75              		.loc 1 47 0
  76 0016 0024     		mov	r4, #0
  77 0018 12E0     		b	.L6
  78              	.LVL2:
  79              	.L8:
  48:task_manager.c ****     {
  49:task_manager.c ****         temp = task_manager.time_counter - task_manager.task_list[i].old_time;
  80              		.loc 1 49 0
  81 001a 0C4A     		ldr	r2, .L9
  82 001c A223     		mov	r3, #162
  83 001e D15A     		ldrh	r1, [r2, r3]
  84 0020 E300     		lsl	r3, r4, #3
  85 0022 D218     		add	r2, r2, r3
  86 0024 D388     		ldrh	r3, [r2, #6]
  87 0026 CB1A     		sub	r3, r1, r3
  88 0028 9BB2     		uxth	r3, r3
  89              	.LVL3:
  50:task_manager.c ****         if (temp < task_manager.task_list[i].schedule_period)
  90              		.loc 1 50 0
  91 002a 9288     		ldrh	r2, [r2, #4]
  92 002c 9A42     		cmp	r2, r3
  93 002e 05D8     		bhi	.L7
  51:task_manager.c ****             continue;
  52:task_manager.c ****         else        //调用周期到
  53:task_manager.c ****         {
  54:task_manager.c ****             task_manager.task_list[i].old_time = task_manager.time_counter;
  94              		.loc 1 54 0
  95 0030 064B     		ldr	r3, .L9
  96              	.LVL4:
  97 0032 E200     		lsl	r2, r4, #3
  98              	.LVL5:
  99 0034 9818     		add	r0, r3, r2
 100              	.LVL6:
 101 0036 C180     		strh	r1, [r0, #6]
 102              	.LVL7:
  55:task_manager.c ****             task_manager.task_list[i].task();
 103              		.loc 1 55 0
 104 0038 D358     		ldr	r3, [r2, r3]
 105 003a 9847     		blx	r3
 106              	.LVL8:
 107              	.L7:
  47:task_manager.c ****     {
 108              		.loc 1 47 0 discriminator 2
 109 003c 0134     		add	r4, r4, #1
 110              	.LVL9:
 111 003e E4B2     		uxtb	r4, r4
 112              	.LVL10:
 113              	.L6:
  47:task_manager.c ****     {
 114              		.loc 1 47 0 is_stmt 0 discriminator 1
ARM GAS  C:\Users\Administrator\AppData\Local\Temp\ccbSnUQ9.s 			page 4


 115 0040 A023     		mov	r3, #160
 116 0042 024A     		ldr	r2, .L9
 117 0044 D35C     		ldrb	r3, [r2, r3]
 118 0046 A342     		cmp	r3, r4
 119 0048 E7D8     		bhi	.L8
 120              	.LVL11:
 121              	.L4:
  56:task_manager.c ****         }
  57:task_manager.c ****     }
  58:task_manager.c **** }
 122              		.loc 1 58 0 is_stmt 1
 123              		@ sp needed
 124 004a 10BD     		pop	{r4, pc}
 125              	.L10:
 126              		.align	2
 127              	.L9:
 128 004c 00000000 		.word	.LANCHOR0
 129              		.cfi_endproc
 130              	.LFE1:
 131              		.size	task_main, .-task_main
 132              		.section	.text.task_1ms_updater,"ax",%progbits
 133              		.align	2
 134              		.global	task_1ms_updater
 135              		.code	16
 136              		.thumb_func
 137              		.type	task_1ms_updater, %function
 138              	task_1ms_updater:
 139              	.LFB2:
  59:task_manager.c **** 
  60:task_manager.c **** /*在100us中断中调用这个函数*/
  61:task_manager.c **** void task_1ms_updater(void)
  62:task_manager.c **** {
 140              		.loc 1 62 0
 141              		.cfi_startproc
  63:task_manager.c ****     task_manager.time_counter++;
 142              		.loc 1 63 0
 143 0000 0249     		ldr	r1, .L12
 144 0002 A222     		mov	r2, #162
 145 0004 8B5A     		ldrh	r3, [r1, r2]
 146 0006 0133     		add	r3, r3, #1
 147 0008 8B52     		strh	r3, [r1, r2]
  64:task_manager.c **** }
 148              		.loc 1 64 0
 149              		@ sp needed
 150 000a 7047     		bx	lr
 151              	.L13:
 152              		.align	2
 153              	.L12:
 154 000c 00000000 		.word	.LANCHOR0
 155              		.cfi_endproc
 156              	.LFE2:
 157              		.size	task_1ms_updater, .-task_1ms_updater
 158              		.section	.text.task_add,"ax",%progbits
 159              		.align	2
 160              		.global	task_add
 161              		.code	16
 162              		.thumb_func
ARM GAS  C:\Users\Administrator\AppData\Local\Temp\ccbSnUQ9.s 			page 5


 163              		.type	task_add, %function
 164              	task_add:
 165              	.LFB3:
  65:task_manager.c **** 
  66:task_manager.c **** Bool task_add(pfunc task, uint16 schedule_period)
  67:task_manager.c **** {
 166              		.loc 1 67 0
 167              		.cfi_startproc
 168              	.LVL12:
 169 0000 10B5     		push	{r4, lr}
 170              		.cfi_def_cfa_offset 8
 171              		.cfi_offset 4, -8
 172              		.cfi_offset 14, -4
  68:task_manager.c ****     if (task == NULL || schedule_period == 0)
 173              		.loc 1 68 0
 174 0002 0028     		cmp	r0, #0
 175 0004 10D0     		beq	.L16
 176              		.loc 1 68 0 is_stmt 0 discriminator 1
 177 0006 0029     		cmp	r1, #0
 178 0008 10D0     		beq	.L17
  69:task_manager.c ****         return FALSE;
  70:task_manager.c ****     if (task_manager.task_nunber >= TASK_MAX_NUMBER - 1)
 179              		.loc 1 70 0 is_stmt 1
 180 000a A023     		mov	r3, #160
 181 000c 094A     		ldr	r2, .L19
 182 000e D35C     		ldrb	r3, [r2, r3]
 183 0010 122B     		cmp	r3, #18
 184 0012 0DD8     		bhi	.L18
  71:task_manager.c ****         return FALSE;
  72:task_manager.c ****     
  73:task_manager.c ****     task_manager.task_list[task_manager.task_nunber].task = task;
 185              		.loc 1 73 0
 186 0014 141C     		mov	r4, r2
 187 0016 DA00     		lsl	r2, r3, #3
 188 0018 1051     		str	r0, [r2, r4]
  74:task_manager.c ****     task_manager.task_list[task_manager.task_nunber].schedule_period = schedule_period;
 189              		.loc 1 74 0
 190 001a A218     		add	r2, r4, r2
 191 001c 9180     		strh	r1, [r2, #4]
  75:task_manager.c ****     task_manager.task_nunber++;
 192              		.loc 1 75 0
 193 001e 0133     		add	r3, r3, #1
 194 0020 A022     		mov	r2, #160
 195 0022 A354     		strb	r3, [r4, r2]
  76:task_manager.c ****     
  77:task_manager.c ****     return TRUE;
 196              		.loc 1 77 0
 197 0024 0120     		mov	r0, #1
 198              	.LVL13:
 199 0026 04E0     		b	.L15
 200              	.LVL14:
 201              	.L16:
  69:task_manager.c ****     if (task_manager.task_nunber >= TASK_MAX_NUMBER - 1)
 202              		.loc 1 69 0
 203 0028 0020     		mov	r0, #0
 204              	.LVL15:
 205 002a 02E0     		b	.L15
ARM GAS  C:\Users\Administrator\AppData\Local\Temp\ccbSnUQ9.s 			page 6


 206              	.LVL16:
 207              	.L17:
 208 002c 0020     		mov	r0, #0
 209              	.LVL17:
 210 002e 00E0     		b	.L15
 211              	.LVL18:
 212              	.L18:
  71:task_manager.c ****     
 213              		.loc 1 71 0
 214 0030 0020     		mov	r0, #0
 215              	.LVL19:
 216              	.L15:
  78:task_manager.c **** }
 217              		.loc 1 78 0
 218              		@ sp needed
 219 0032 10BD     		pop	{r4, pc}
 220              	.L20:
 221              		.align	2
 222              	.L19:
 223 0034 00000000 		.word	.LANCHOR0
 224              		.cfi_endproc
 225              	.LFE3:
 226              		.size	task_add, .-task_add
 227              		.bss
 228              		.align	2
 229              		.set	.LANCHOR0,. + 0
 230              		.type	task_manager, %object
 231              		.size	task_manager, 168
 232              	task_manager:
 233 0000 00000000 		.space	168
 233      00000000 
 233      00000000 
 233      00000000 
 233      00000000 
 234              		.text
 235              	.Letext0:
 236              		.file 2 "types.h"
 237              		.file 3 "task_manager.h"