ARM GAS  C:\Users\Administrator\AppData\Local\Temp\ccKtKJDR.s 			page 1


   1              		.cpu cortex-m0plus
   2              		.fpu softvfp
   3              		.eabi_attribute 20, 1
   4              		.eabi_attribute 21, 1
   5              		.eabi_attribute 23, 3
   6              		.eabi_attribute 24, 1
   7              		.eabi_attribute 25, 1
   8              		.eabi_attribute 26, 1
   9              		.eabi_attribute 30, 1
  10              		.eabi_attribute 34, 0
  11              		.eabi_attribute 18, 4
  12              		.code	16
  13              		.file	"task.c"
  14              		.text
  15              	.Ltext0:
  16              		.cfi_sections	.debug_frame
  17              		.section	.text.task_init,"ax",%progbits
  18              		.align	2
  19              		.global	task_init
  20              		.code	16
  21              		.thumb_func
  22              		.type	task_init, %function
  23              	task_init:
  24              	.LFB0:
  25              		.file 1 "task.c"
   1:task.c        **** /* ========================================
   2:task.c        ****  *
   3:task.c        ****  * Copyright YOUR COMPANY, THE YEAR
   4:task.c        ****  * All Rights Reserved
   5:task.c        ****  * UNPUBLISHED, LICENSED SOFTWARE.
   6:task.c        ****  *
   7:task.c        ****  * CONFIDENTIAL AND PROPRIETARY INFORMATION
   8:task.c        ****  * WHICH IS THE PROPERTY OF your company.
   9:task.c        ****  *
  10:task.c        ****  * ========================================
  11:task.c        **** */
  12:task.c        **** #include "task.h"
  13:task.c        **** #include "string.h"
  14:task.c        **** 
  15:task.c        **** typedef struct
  16:task.c        **** {
  17:task.c        ****     pfunc task;           
  18:task.c        ****     uint16 schedule_period;
  19:task.c        ****     uint16 old_time;
  20:task.c        **** }Task;
  21:task.c        **** #define TASK_MAX_NUMBER 20
  22:task.c        **** 
  23:task.c        **** typedef struct
  24:task.c        **** {
  25:task.c        ****     Task task_list[TASK_MAX_NUMBER];        
  26:task.c        ****     uint8 task_nunber;      
  27:task.c        ****     uint16 time_counter;
  28:task.c        ****     uint16 prev_time_counter;
  29:task.c        **** }Task_manager;
  30:task.c        **** 
  31:task.c        **** static Task_manager task_manager;
  32:task.c        **** 
ARM GAS  C:\Users\Administrator\AppData\Local\Temp\ccKtKJDR.s 			page 2


  33:task.c        **** void task_init(void)
  34:task.c        **** {
  26              		.loc 1 34 0
  27              		.cfi_startproc
  28 0000 08B5     		push	{r3, lr}
  29              		.cfi_def_cfa_offset 8
  30              		.cfi_offset 3, -8
  31              		.cfi_offset 14, -4
  35:task.c        ****     memset(&task_manager, 0, sizeof(Task_manager));
  32              		.loc 1 35 0
  33 0002 0348     		ldr	r0, .L2
  34 0004 0021     		mov	r1, #0
  35 0006 A822     		mov	r2, #168
  36 0008 FFF7FEFF 		bl	memset
  37              	.LVL0:
  36:task.c        **** }
  38              		.loc 1 36 0
  39              		@ sp needed
  40 000c 08BD     		pop	{r3, pc}
  41              	.L3:
  42 000e C046     		.align	2
  43              	.L2:
  44 0010 00000000 		.word	.LANCHOR0
  45              		.cfi_endproc
  46              	.LFE0:
  47              		.size	task_init, .-task_init
  48              		.section	.text.task_main,"ax",%progbits
  49              		.align	2
  50              		.global	task_main
  51              		.code	16
  52              		.thumb_func
  53              		.type	task_main, %function
  54              	task_main:
  55              	.LFB1:
  37:task.c        **** 
  38:task.c        **** void task_main(void)
  39:task.c        **** {
  56              		.loc 1 39 0
  57              		.cfi_startproc
  58 0000 10B5     		push	{r4, lr}
  59              		.cfi_def_cfa_offset 8
  60              		.cfi_offset 4, -8
  61              		.cfi_offset 14, -4
  62              	.LVL1:
  40:task.c        ****     uint8 i = 0;
  41:task.c        ****     
  42:task.c        ****     if (task_manager.time_counter == task_manager.prev_time_counter)
  63              		.loc 1 42 0
  64 0002 124B     		ldr	r3, .L9
  65 0004 A222     		mov	r2, #162
  66 0006 9A5A     		ldrh	r2, [r3, r2]
  67 0008 A421     		mov	r1, #164
  68 000a 5B5A     		ldrh	r3, [r3, r1]
  69 000c 9A42     		cmp	r2, r3
  70 000e 1BD0     		beq	.L4
  43:task.c        ****         return;
  44:task.c        ****     task_manager.prev_time_counter = task_manager.time_counter;
ARM GAS  C:\Users\Administrator\AppData\Local\Temp\ccKtKJDR.s 			page 3


  71              		.loc 1 44 0
  72 0010 A423     		mov	r3, #164
  73 0012 0E49     		ldr	r1, .L9
  74 0014 CA52     		strh	r2, [r1, r3]
  45:task.c        ****     
  46:task.c        ****     for (i = 0; i < task_manager.task_nunber; i++)
  75              		.loc 1 46 0
  76 0016 0024     		mov	r4, #0
  77 0018 11E0     		b	.L6
  78              	.LVL2:
  79              	.L8:
  47:task.c        ****     {
  48:task.c        ****         if ((task_manager.time_counter - task_manager.task_list[i].old_time) < task_manager.task_li
  80              		.loc 1 48 0
  81 001a 0C4A     		ldr	r2, .L9
  82 001c A223     		mov	r3, #162
  83 001e D15A     		ldrh	r1, [r2, r3]
  84 0020 E300     		lsl	r3, r4, #3
  85 0022 D318     		add	r3, r2, r3
  86 0024 DA88     		ldrh	r2, [r3, #6]
  87 0026 8A1A     		sub	r2, r1, r2
  88 0028 9B88     		ldrh	r3, [r3, #4]
  89 002a 9A42     		cmp	r2, r3
  90 002c 05DB     		blt	.L7
  49:task.c        ****             continue;
  50:task.c        ****         else        //调用周期到
  51:task.c        ****         {
  52:task.c        ****             task_manager.task_list[i].old_time = task_manager.time_counter;
  91              		.loc 1 52 0
  92 002e 074B     		ldr	r3, .L9
  93 0030 E200     		lsl	r2, r4, #3
  94 0032 9818     		add	r0, r3, r2
  95 0034 C180     		strh	r1, [r0, #6]
  53:task.c        ****             task_manager.task_list[i].task();
  96              		.loc 1 53 0
  97 0036 D358     		ldr	r3, [r2, r3]
  98 0038 9847     		blx	r3
  99              	.LVL3:
 100              	.L7:
  46:task.c        ****     {
 101              		.loc 1 46 0 discriminator 2
 102 003a 0134     		add	r4, r4, #1
 103              	.LVL4:
 104 003c E4B2     		uxtb	r4, r4
 105              	.LVL5:
 106              	.L6:
  46:task.c        ****     {
 107              		.loc 1 46 0 is_stmt 0 discriminator 1
 108 003e A023     		mov	r3, #160
 109 0040 024A     		ldr	r2, .L9
 110 0042 D35C     		ldrb	r3, [r2, r3]
 111 0044 A342     		cmp	r3, r4
 112 0046 E8D8     		bhi	.L8
 113              	.LVL6:
 114              	.L4:
  54:task.c        ****         }
  55:task.c        ****     }
ARM GAS  C:\Users\Administrator\AppData\Local\Temp\ccKtKJDR.s 			page 4


  56:task.c        **** }
 115              		.loc 1 56 0 is_stmt 1
 116              		@ sp needed
 117 0048 10BD     		pop	{r4, pc}
 118              	.L10:
 119 004a C046     		.align	2
 120              	.L9:
 121 004c 00000000 		.word	.LANCHOR0
 122              		.cfi_endproc
 123              	.LFE1:
 124              		.size	task_main, .-task_main
 125              		.section	.text.task_100us_updater,"ax",%progbits
 126              		.align	2
 127              		.global	task_100us_updater
 128              		.code	16
 129              		.thumb_func
 130              		.type	task_100us_updater, %function
 131              	task_100us_updater:
 132              	.LFB2:
  57:task.c        **** 
  58:task.c        **** /*在100us中断中调用这个函数*/
  59:task.c        **** void task_100us_updater(void)
  60:task.c        **** {
 133              		.loc 1 60 0
 134              		.cfi_startproc
  61:task.c        ****     task_manager.time_counter++;
 135              		.loc 1 61 0
 136 0000 0249     		ldr	r1, .L12
 137 0002 A222     		mov	r2, #162
 138 0004 8B5A     		ldrh	r3, [r1, r2]
 139 0006 0133     		add	r3, r3, #1
 140 0008 8B52     		strh	r3, [r1, r2]
  62:task.c        **** }
 141              		.loc 1 62 0
 142              		@ sp needed
 143 000a 7047     		bx	lr
 144              	.L13:
 145              		.align	2
 146              	.L12:
 147 000c 00000000 		.word	.LANCHOR0
 148              		.cfi_endproc
 149              	.LFE2:
 150              		.size	task_100us_updater, .-task_100us_updater
 151              		.section	.text.task_add,"ax",%progbits
 152              		.align	2
 153              		.global	task_add
 154              		.code	16
 155              		.thumb_func
 156              		.type	task_add, %function
 157              	task_add:
 158              	.LFB3:
  63:task.c        **** 
  64:task.c        **** Bool task_add(pfunc task, uint16 schedule_period)
  65:task.c        **** {
 159              		.loc 1 65 0
 160              		.cfi_startproc
 161              	.LVL7:
ARM GAS  C:\Users\Administrator\AppData\Local\Temp\ccKtKJDR.s 			page 5


  66:task.c        ****     if (task == NULL || schedule_period == 0)
 162              		.loc 1 66 0
 163 0000 0028     		cmp	r0, #0
 164 0002 0CD0     		beq	.L16
 165              		.loc 1 66 0 is_stmt 0 discriminator 1
 166 0004 0029     		cmp	r1, #0
 167 0006 0CD0     		beq	.L17
  67:task.c        ****         return FALSE;
  68:task.c        ****     if (task_manager.task_nunber >= TASK_MAX_NUMBER)
 168              		.loc 1 68 0 is_stmt 1
 169 0008 A023     		mov	r3, #160
 170 000a 084A     		ldr	r2, .L19
 171 000c D35C     		ldrb	r3, [r2, r3]
 172 000e 132B     		cmp	r3, #19
 173 0010 09D8     		bhi	.L18
  69:task.c        ****         return FALSE;
  70:task.c        ****     
  71:task.c        ****     task_manager.task_list[task_manager.task_nunber].task = task;
 174              		.loc 1 71 0
 175 0012 DB00     		lsl	r3, r3, #3
 176 0014 9850     		str	r0, [r3, r2]
  72:task.c        ****     task_manager.task_list[task_manager.task_nunber].schedule_period = schedule_period;
 177              		.loc 1 72 0
 178 0016 D318     		add	r3, r2, r3
 179 0018 9980     		strh	r1, [r3, #4]
  73:task.c        ****     
  74:task.c        ****     return TRUE;
 180              		.loc 1 74 0
 181 001a 0120     		mov	r0, #1
 182              	.LVL8:
 183 001c 04E0     		b	.L15
 184              	.LVL9:
 185              	.L16:
  67:task.c        ****     if (task_manager.task_nunber >= TASK_MAX_NUMBER)
 186              		.loc 1 67 0
 187 001e 0020     		mov	r0, #0
 188              	.LVL10:
 189 0020 02E0     		b	.L15
 190              	.LVL11:
 191              	.L17:
 192 0022 0020     		mov	r0, #0
 193              	.LVL12:
 194 0024 00E0     		b	.L15
 195              	.LVL13:
 196              	.L18:
  69:task.c        ****     
 197              		.loc 1 69 0
 198 0026 0020     		mov	r0, #0
 199              	.LVL14:
 200              	.L15:
  75:task.c        **** }
 201              		.loc 1 75 0
 202              		@ sp needed
 203 0028 7047     		bx	lr
 204              	.L20:
 205 002a C046     		.align	2
 206              	.L19:
ARM GAS  C:\Users\Administrator\AppData\Local\Temp\ccKtKJDR.s 			page 6


 207 002c 00000000 		.word	.LANCHOR0
 208              		.cfi_endproc
 209              	.LFE3:
 210              		.size	task_add, .-task_add
 211              		.bss
 212              		.align	2
 213              		.set	.LANCHOR0,. + 0
 214              		.type	task_manager, %object
 215              		.size	task_manager, 168
 216              	task_manager:
 217 0000 00000000 		.space	168
 217      00000000 
 217      00000000 
 217      00000000 
 217      00000000 
 218              		.text
 219              	.Letext0:
 220              		.file 2 "types.h"
 221              		.file 3 "task.h"